CCS PCH C Compiler, Version 5.015, 5967               21-Apr-26 11:38

               Filename:   C:\3ph_Digi_starter\3ph_digi_starter.lst

               ROM used:   36394 bytes (56%)
                           Largest free fragment is 29138
               RAM used:   749 (19%) at main() level
                           968 (25%) worst case
               Stack used: 8 locations (6 in main + 2 for interrupts)
               Stack size: 31

*
00000:  GOTO   74B6
*
00008:  MOVWF  04
0000A:  MOVFF  FD8,05
0000E:  MOVFF  FE0,06
00012:  MOVLB  0
00014:  MOVFF  FE9,0C
00018:  MOVFF  FEA,07
0001C:  MOVFF  FE1,08
00020:  MOVFF  FE2,09
00024:  MOVFF  FD9,0A
00028:  MOVFF  FDA,0B
0002C:  MOVFF  FF3,12
00030:  MOVFF  FF4,13
00034:  MOVFF  FFA,14
00038:  MOVFF  00,0E
0003C:  MOVFF  01,0F
00040:  MOVFF  02,10
00044:  MOVFF  03,11
00048:  BTFSS  F9D.6
0004A:  GOTO   0054
0004E:  BTFSC  F9E.6
00050:  GOTO   0160
00054:  BTFSS  F9D.0
00056:  GOTO   0060
0005A:  BTFSC  F9E.0
0005C:  GOTO   03BC
00060:  MOVFF  0E,00
00064:  MOVFF  0F,01
00068:  MOVFF  10,02
0006C:  MOVFF  11,03
00070:  MOVFF  0C,FE9
00074:  MOVFF  07,FEA
00078:  BSF    07.7
0007A:  MOVFF  08,FE1
0007E:  MOVFF  09,FE2
00082:  MOVFF  0A,FD9
00086:  MOVFF  0B,FDA
0008A:  MOVFF  12,FF3
0008E:  MOVFF  13,FF4
00092:  MOVFF  14,FFA
00096:  MOVF   04,W
00098:  MOVFF  06,FE0
0009C:  MOVFF  05,FD8
000A0:  RETFIE 0
.................... //LCD module connections 
.................... #define LCD_DATA_PIN PIN_C3 
.................... #define LCD_CLOCK_PIN PIN_C4 
.................... #define LCD_EN_PIN PIN_B0 
.................... //End LCD module connections 
.................... #include <18F26K22.h> 
.................... //////////// Standard Header file for the PIC18F26K22 device //////////////// 
.................... /////////////////////////////////////////////////////////////////////////// 
.................... ////        (C) Copyright 1996, 2013 Custom Computer Services          //// 
.................... //// This source code may only be used by licensed users of the CCS C  //// 
.................... //// compiler.  This source code may only be distributed to other      //// 
.................... //// licensed users of the CCS C compiler.  No other use, reproduction //// 
.................... //// or distribution is permitted without written permission.          //// 
.................... //// Derivative programs created using this software in object code    //// 
.................... //// form are not restricted in any way.                               //// 
.................... /////////////////////////////////////////////////////////////////////////// 
.................... #device PIC18F26K22 
000A2:  MOVFF  FF2,0D
000A6:  BCF    FF2.7
000A8:  CLRF   FF7
000AA:  ADDLW  BC
000AC:  MOVWF  FF6
000AE:  MOVLW  00
000B0:  ADDWFC FF7,F
000B2:  TBLRD*+
000B4:  MOVF   FF5,W
000B6:  BTFSC  0D.7
000B8:  BSF    FF2.7
000BA:  RETURN 0
000BC:  DATA 05,00
000BE:  DATA 1E,00
000C0:  DATA 32,00
000C2:  DATA 64,00
000C4:  DATA C8,00
000C6:  DATA 2C,01
000C8:  MOVFF  FF2,0D
000CC:  BCF    FF2.7
000CE:  CLRF   FF7
000D0:  ADDLW  E2
000D2:  MOVWF  FF6
000D4:  MOVLW  00
000D6:  ADDWFC FF7,F
000D8:  TBLRD*+
000DA:  MOVF   FF5,W
000DC:  BTFSC  0D.7
000DE:  BSF    FF2.7
000E0:  RETURN 0
000E2:  DATA 01,06
000E4:  DATA 0A,14
000E6:  DATA 28,3C
000E8:  MOVLB  3
000EA:  MOVF   xC4,W
000EC:  ANDLW  07
000EE:  MOVWF  00
000F0:  RRCF   xC4,W
000F2:  MOVWF  01
000F4:  RRCF   01,F
000F6:  RRCF   01,F
000F8:  MOVLW  1F
000FA:  ANDWF  01,F
000FC:  MOVF   01,W
000FE:  ADDWF  xC5,W
00100:  MOVWF  FE9
00102:  MOVLW  00
00104:  ADDWFC xC6,W
00106:  MOVWF  FEA
00108:  MOVFF  FEF,01
0010C:  INCF   00,F
0010E:  BRA    0112
00110:  RRCF   01,F
00112:  DECFSZ 00,F
00114:  BRA    0110
00116:  MOVLB  0
00118:  GOTO   027A (RETURN)
0011C:  MOVLB  3
0011E:  MOVF   xC4,W
00120:  ANDLW  07
00122:  MOVWF  00
00124:  RRCF   xC4,W
00126:  MOVWF  01
00128:  RRCF   01,F
0012A:  RRCF   01,F
0012C:  MOVLW  1F
0012E:  ANDWF  01,F
00130:  MOVF   01,W
00132:  ADDWF  xC6,W
00134:  MOVWF  FE9
00136:  MOVLW  00
00138:  ADDWFC xC7,W
0013A:  MOVWF  FEA
0013C:  CLRF   01
0013E:  INCF   01,F
00140:  INCF   00,F
00142:  BRA    0146
00144:  RLCF   01,F
00146:  DECFSZ 00,F
00148:  BRA    0144
0014A:  MOVF   xC5,F
0014C:  BZ    0154
0014E:  MOVF   01,W
00150:  IORWF  FEF,F
00152:  BRA    015A
00154:  COMF   01,F
00156:  MOVF   01,W
00158:  ANDWF  FEF,F
0015A:  MOVLB  0
0015C:  GOTO   0292 (RETURN)
*
00374:  ADDWF  FE8,W
00376:  CLRF   FF7
00378:  RLCF   FF7,F
0037A:  ADDLW  8F
0037C:  MOVWF  FF6
0037E:  MOVLW  03
00380:  ADDWFC FF7,F
00382:  TBLRD*-
00384:  MOVF   FF5,W
00386:  MOVWF  FFA
00388:  TBLRD*
0038A:  MOVF   FF5,W
0038C:  MOVWF  FF9
0038E:  DATA 14,03
00390:  DATA 1C,03
00392:  DATA 24,03
00394:  DATA 2C,03
00396:  DATA 34,03
00398:  DATA 3C,03
0039A:  MOVLB  3
0039C:  MOVF   xC2,W
0039E:  MULWF  xC4
003A0:  MOVFF  FF3,01
003A4:  MOVFF  FF4,00
003A8:  MULWF  xC5
003AA:  MOVF   FF3,W
003AC:  ADDWF  00,F
003AE:  MOVF   xC3,W
003B0:  MULWF  xC4
003B2:  MOVF   FF3,W
003B4:  ADDWFC 00,W
003B6:  MOVWF  02
003B8:  MOVLB  0
003BA:  RETURN 0
*
004D4:  DATA 50,72
004D6:  DATA 65,73
004D8:  DATA 73,20
004DA:  DATA 74,6F
004DC:  DATA 20,45
004DE:  DATA 58,49
004E0:  DATA 54,00
004E2:  DATA 50,72
004E4:  DATA 65,73
004E6:  DATA 73,20
004E8:  DATA 74,6F
004EA:  DATA 20,45
004EC:  DATA 4E,54
004EE:  DATA 45,52
004F0:  DATA 00,00
004F2:  DATA 45,58
004F4:  DATA 49,54
004F6:  DATA 49,4E
004F8:  DATA 47,20
004FA:  DATA 4D,45
004FC:  DATA 4E,55
004FE:  DATA 2E,2E
00500:  DATA 2E,00
00502:  DATA 31,2E
00504:  DATA 50,48
00506:  DATA 41,53
00508:  DATA 45,20
0050A:  DATA 53,45
0050C:  DATA 54,54
0050E:  DATA 49,4E
00510:  DATA 47,00
00512:  DATA 3E,3E
00514:  DATA 20,32
00516:  DATA 20,50
00518:  DATA 48,41
0051A:  DATA 53,45
0051C:  DATA 20,20
0051E:  DATA 20,20
00520:  DATA 20,20
00522:  DATA 20,20
00524:  DATA 00,00
00526:  DATA 3E,3E
00528:  DATA 20,33
0052A:  DATA 20,50
0052C:  DATA 48,41
0052E:  DATA 53,45
00530:  DATA 20,20
00532:  DATA 20,20
00534:  DATA 20,20
00536:  DATA 20,20
00538:  DATA 00,00
0053A:  DATA 3E,3E
0053C:  DATA 20,32
0053E:  DATA 20,50
00540:  DATA 48,41
00542:  DATA 53,45
00544:  DATA 20,20
00546:  DATA 20,20
00548:  DATA 20,20
0054A:  DATA 20,20
0054C:  DATA 00,00
0054E:  DATA 3E,3E
00550:  DATA 20,33
00552:  DATA 20,50
00554:  DATA 48,41
00556:  DATA 53,45
00558:  DATA 20,20
0055A:  DATA 20,20
0055C:  DATA 20,20
0055E:  DATA 20,20
00560:  DATA 00,00
00562:  DATA 50,48
00564:  DATA 41,53
00566:  DATA 45,20
00568:  DATA 53,41
0056A:  DATA 56,45
0056C:  DATA 44,00
0056E:  DATA 32,20
00570:  DATA 50,48
00572:  DATA 41,53
00574:  DATA 45,00
00576:  DATA 33,20
00578:  DATA 50,48
0057A:  DATA 41,53
0057C:  DATA 45,00
0057E:  DATA 50,72
00580:  DATA 65,73
00582:  DATA 73,20
00584:  DATA 45,4E
00586:  DATA 54,45
00588:  DATA 52,20
0058A:  DATA 20,20
0058C:  DATA 20,20
0058E:  DATA 00,00
00590:  DATA 4E,6F
00592:  DATA 20,43
00594:  DATA 68,61
00596:  DATA 6E,67
00598:  DATA 65,00
0059A:  DATA 50,72
0059C:  DATA 65,73
0059E:  DATA 73,20
005A0:  DATA 45,4E
005A2:  DATA 54,45
005A4:  DATA 52,00
005A6:  DATA 25,73
005A8:  DATA 20,4E
005AA:  DATA 52,4D
005AC:  DATA 00,00
005AE:  DATA 25,73
005B0:  DATA 20,46
005B2:  DATA 53,54
005B4:  DATA 00,00
005B6:  DATA 25,73
005B8:  DATA 20,53
005BA:  DATA 55,46
005BC:  DATA 00,00
005BE:  DATA 3E,3E
005C0:  DATA 20,25
005C2:  DATA 6C,64
005C4:  DATA 00,00
005C6:  DATA 32,2E
005C8:  DATA 4A,55
005CA:  DATA 49,43
005CC:  DATA 45,20
005CE:  DATA 43,4F
005D0:  DATA 4E,54
005D2:  DATA 52,4F
005D4:  DATA 4C,00
005D6:  DATA 3E,3E
005D8:  DATA 20,45
005DA:  DATA 4E,41
005DC:  DATA 42,4C
005DE:  DATA 45,20
005E0:  DATA 20,20
005E2:  DATA 20,20
005E4:  DATA 20,20
005E6:  DATA 20,00
005E8:  DATA 3E,3E
005EA:  DATA 20,44
005EC:  DATA 49,53
005EE:  DATA 41,42
005F0:  DATA 4C,45
005F2:  DATA 20,20
005F4:  DATA 20,20
005F6:  DATA 20,20
005F8:  DATA 20,00
005FA:  DATA 3E,3E
005FC:  DATA 20,45
005FE:  DATA 4E,41
00600:  DATA 42,4C
00602:  DATA 45,20
00604:  DATA 20,20
00606:  DATA 20,20
00608:  DATA 20,20
0060A:  DATA 20,00
0060C:  DATA 3E,3E
0060E:  DATA 20,44
00610:  DATA 49,53
00612:  DATA 41,42
00614:  DATA 4C,45
00616:  DATA 20,20
00618:  DATA 20,20
0061A:  DATA 20,20
0061C:  DATA 20,00
0061E:  DATA 4A,55
00620:  DATA 49,43
00622:  DATA 45,20
00624:  DATA 43,54
00626:  DATA 52,4C
00628:  DATA 20,53
0062A:  DATA 41,56
0062C:  DATA 45,44
0062E:  DATA 00,00
00630:  DATA 53,54
00632:  DATA 41,54
00634:  DATA 55,53
00636:  DATA 3A,20
00638:  DATA 45,4E
0063A:  DATA 41,42
0063C:  DATA 4C,45
0063E:  DATA 20,20
00640:  DATA 00,00
00642:  DATA 53,54
00644:  DATA 41,54
00646:  DATA 55,53
00648:  DATA 3A,20
0064A:  DATA 44,49
0064C:  DATA 53,41
0064E:  DATA 42,4C
00650:  DATA 45,20
00652:  DATA 00,00
00654:  DATA 50,72
00656:  DATA 65,73
00658:  DATA 73,20
0065A:  DATA 45,4E
0065C:  DATA 54,45
0065E:  DATA 52,20
00660:  DATA 20,20
00662:  DATA 20,20
00664:  DATA 00,00
00666:  DATA 33,2E
00668:  DATA 50,57
0066A:  DATA 52,20
0066C:  DATA 44,4C
0066E:  DATA 59,20
00670:  DATA 4E,4F
00672:  DATA 52,4D
00674:  DATA 00,00
00676:  DATA 33,2E
00678:  DATA 50,57
0067A:  DATA 52,20
0067C:  DATA 44,4C
0067E:  DATA 59,20
00680:  DATA 46,41
00682:  DATA 53,54
00684:  DATA 00,00
00686:  DATA 33,2E
00688:  DATA 50,57
0068A:  DATA 52,20
0068C:  DATA 44,4C
0068E:  DATA 59,20
00690:  DATA 53,55
00692:  DATA 46,41
00694:  DATA 00,00
00696:  DATA 20,20
00698:  DATA 20,25
0069A:  DATA 6C,64
0069C:  DATA 20,73
0069E:  DATA 65,63
006A0:  DATA 20,20
006A2:  DATA 20,00
006A4:  DATA 44,45
006A6:  DATA 4C,41
006A8:  DATA 59,20
006AA:  DATA 53,41
006AC:  DATA 56,45
006AE:  DATA 44,21
006B0:  DATA 00,00
006B2:  DATA 20,20
006B4:  DATA 20,25
006B6:  DATA 6C,64
006B8:  DATA 20,73
006BA:  DATA 65,63
006BC:  DATA 20,20
006BE:  DATA 20,00
006C0:  DATA 50,72
006C2:  DATA 65,73
006C4:  DATA 73,20
006C6:  DATA 45,4E
006C8:  DATA 54,45
006CA:  DATA 52,20
006CC:  DATA 20,20
006CE:  DATA 20,20
006D0:  DATA 00,00
006D2:  DATA 4E,6F
006D4:  DATA 20,43
006D6:  DATA 68,61
006D8:  DATA 6E,67
006DA:  DATA 65,00
006DC:  DATA 50,72
006DE:  DATA 65,73
006E0:  DATA 73,20
006E2:  DATA 45,4E
006E4:  DATA 54,45
006E6:  DATA 52,00
006E8:  DATA 35,2E
006EA:  DATA 53,54
006EC:  DATA 41,52
006EE:  DATA 20,44
006F0:  DATA 45,4C
006F2:  DATA 54,20
006F4:  DATA 4E,52
006F6:  DATA 4D,00
006F8:  DATA 35,2E
006FA:  DATA 53,54
006FC:  DATA 41,52
006FE:  DATA 20,44
00700:  DATA 45,4C
00702:  DATA 54,20
00704:  DATA 46,53
00706:  DATA 54,00
00708:  DATA 20,20
0070A:  DATA 20,25
0070C:  DATA 6C,64
0070E:  DATA 20,73
00710:  DATA 65,63
00712:  DATA 20,20
00714:  DATA 20,00
00716:  DATA 20,44
00718:  DATA 45,4C
0071A:  DATA 41,59
0071C:  DATA 20,53
0071E:  DATA 41,56
00720:  DATA 45,44
00722:  DATA 21,20
00724:  DATA 00,00
00726:  DATA 20,20
00728:  DATA 20,25
0072A:  DATA 6C,64
0072C:  DATA 20,73
0072E:  DATA 65,63
00730:  DATA 20,20
00732:  DATA 20,00
00734:  DATA 50,72
00736:  DATA 65,73
00738:  DATA 73,20
0073A:  DATA 45,4E
0073C:  DATA 54,45
0073E:  DATA 52,20
00740:  DATA 20,20
00742:  DATA 20,20
00744:  DATA 00,00
00746:  DATA 4E,6F
00748:  DATA 20,43
0074A:  DATA 68,61
0074C:  DATA 6E,67
0074E:  DATA 65,00
00750:  DATA 50,72
00752:  DATA 65,73
00754:  DATA 73,20
00756:  DATA 45,4E
00758:  DATA 54,45
0075A:  DATA 52,00
0075C:  DATA 36,2E
0075E:  DATA 56,4F
00760:  DATA 4C,54
00762:  DATA 20,53
00764:  DATA 45,54
00766:  DATA 54,49
00768:  DATA 4E,47
0076A:  DATA 20,20
0076C:  DATA 00,00
0076E:  DATA 4C,4F
00770:  DATA 57,20
00772:  DATA 56,4F
00774:  DATA 4C,54
00776:  DATA 20,53
00778:  DATA 45,54
0077A:  DATA 20,20
0077C:  DATA 20,20
0077E:  DATA 00,00
00780:  DATA 4C,56
00782:  DATA 20,53
00784:  DATA 41,56
00786:  DATA 45,44
00788:  DATA 20,20
0078A:  DATA 20,20
0078C:  DATA 20,20
0078E:  DATA 20,20
00790:  DATA 00,00
00792:  DATA 25,6C
00794:  DATA 75,3A
00796:  DATA 25,6C
00798:  DATA 75,3A
0079A:  DATA 25,6C
0079C:  DATA 75,20
0079E:  DATA 20,20
007A0:  DATA 20,20
007A2:  DATA 20,00
007A4:  DATA 48,49
007A6:  DATA 47,48
007A8:  DATA 20,56
007AA:  DATA 4F,4C
007AC:  DATA 54,20
007AE:  DATA 53,45
007B0:  DATA 54,20
007B2:  DATA 20,20
007B4:  DATA 00,00
007B6:  DATA 48,56
007B8:  DATA 20,53
007BA:  DATA 41,56
007BC:  DATA 45,44
007BE:  DATA 20,20
007C0:  DATA 20,20
007C2:  DATA 20,20
007C4:  DATA 20,20
007C6:  DATA 00,00
007C8:  DATA 25,6C
007CA:  DATA 75,3A
007CC:  DATA 25,6C
007CE:  DATA 75,3A
007D0:  DATA 25,6C
007D2:  DATA 75,20
007D4:  DATA 20,20
007D6:  DATA 20,20
007D8:  DATA 20,00
007DA:  DATA 4F,56
007DC:  DATA 45,52
007DE:  DATA 4C,4F
007E0:  DATA 41,44
007E2:  DATA 20,53
007E4:  DATA 45,54
007E6:  DATA 20,20
007E8:  DATA 20,20
007EA:  DATA 00,00
007EC:  DATA 4F,4C
007EE:  DATA 20,53
007F0:  DATA 41,56
007F2:  DATA 45,44
007F4:  DATA 20,20
007F6:  DATA 20,20
007F8:  DATA 20,20
007FA:  DATA 20,20
007FC:  DATA 00,00
007FE:  DATA 25,6C
00800:  DATA 75,3A
00802:  DATA 25,6C
00804:  DATA 75,3A
00806:  DATA 25,6C
00808:  DATA 75,20
0080A:  DATA 20,20
0080C:  DATA 20,20
0080E:  DATA 20,00
00810:  DATA 56,4F
00812:  DATA 4C,54
00814:  DATA 20,4D
00816:  DATA 45,4E
00818:  DATA 55,20
0081A:  DATA 44,4F
0081C:  DATA 4E,45
0081E:  DATA 20,20
00820:  DATA 00,00
00822:  DATA 47,6F
00824:  DATA 69,6E
00826:  DATA 67,20
00828:  DATA 74,6F
0082A:  DATA 20,6E
0082C:  DATA 65,78
0082E:  DATA 74,2E
00830:  DATA 2E,2E
00832:  DATA 00,00
00834:  DATA 37,2E
00836:  DATA 44,52
00838:  DATA 59,52
0083A:  DATA 55,4E
0083C:  DATA 20,44
0083E:  DATA 4C,59
00840:  DATA 20,4E
00842:  DATA 4F,52
00844:  DATA 4D,00
00846:  DATA 37,2E
00848:  DATA 44,52
0084A:  DATA 59,52
0084C:  DATA 55,4E
0084E:  DATA 20,44
00850:  DATA 4C,59
00852:  DATA 20,46
00854:  DATA 41,53
00856:  DATA 54,00
00858:  DATA 37,2E
0085A:  DATA 44,52
0085C:  DATA 59,52
0085E:  DATA 55,4E
00860:  DATA 20,44
00862:  DATA 4C,59
00864:  DATA 20,53
00866:  DATA 55,46
00868:  DATA 41,00
0086A:  DATA 20,20
0086C:  DATA 20,25
0086E:  DATA 6C,64
00870:  DATA 20,73
00872:  DATA 65,63
00874:  DATA 20,20
00876:  DATA 20,00
00878:  DATA 20,44
0087A:  DATA 45,4C
0087C:  DATA 41,59
0087E:  DATA 20,53
00880:  DATA 41,56
00882:  DATA 45,44
00884:  DATA 21,00
00886:  DATA 20,20
00888:  DATA 20,25
0088A:  DATA 6C,64
0088C:  DATA 20,73
0088E:  DATA 65,63
00890:  DATA 20,20
00892:  DATA 20,00
00894:  DATA 50,72
00896:  DATA 65,73
00898:  DATA 73,20
0089A:  DATA 45,4E
0089C:  DATA 54,45
0089E:  DATA 52,20
008A0:  DATA 20,20
008A2:  DATA 20,20
008A4:  DATA 00,00
008A6:  DATA 4E,6F
008A8:  DATA 20,43
008AA:  DATA 68,61
008AC:  DATA 6E,67
008AE:  DATA 65,00
008B0:  DATA 50,72
008B2:  DATA 65,73
008B4:  DATA 73,20
008B6:  DATA 45,4E
008B8:  DATA 54,45
008BA:  DATA 52,00
008BC:  DATA 38,2E
008BE:  DATA 44,52
008C0:  DATA 59,52
008C2:  DATA 55,4E
008C4:  DATA 20,52
008C6:  DATA 53,54
008C8:  DATA 20,4E
008CA:  DATA 4F,52
008CC:  DATA 4D,00
008CE:  DATA 38,2E
008D0:  DATA 44,52
008D2:  DATA 59,52
008D4:  DATA 55,4E
008D6:  DATA 20,52
008D8:  DATA 53,54
008DA:  DATA 20,46
008DC:  DATA 41,53
008DE:  DATA 54,00
008E0:  DATA 38,2E
008E2:  DATA 44,52
008E4:  DATA 59,52
008E6:  DATA 55,4E
008E8:  DATA 20,52
008EA:  DATA 53,54
008EC:  DATA 20,53
008EE:  DATA 55,46
008F0:  DATA 41,00
008F2:  DATA 20,20
008F4:  DATA 20,25
008F6:  DATA 6C,64
008F8:  DATA 20,73
008FA:  DATA 65,63
008FC:  DATA 20,20
008FE:  DATA 20,00
00900:  DATA 20,44
00902:  DATA 45,4C
00904:  DATA 41,59
00906:  DATA 20,53
00908:  DATA 41,56
0090A:  DATA 45,44
0090C:  DATA 21,20
0090E:  DATA 20,20
00910:  DATA 00,00
00912:  DATA 20,20
00914:  DATA 20,25
00916:  DATA 6C,64
00918:  DATA 20,73
0091A:  DATA 65,63
0091C:  DATA 20,20
0091E:  DATA 20,00
00920:  DATA 50,72
00922:  DATA 65,73
00924:  DATA 73,20
00926:  DATA 45,4E
00928:  DATA 54,45
0092A:  DATA 52,20
0092C:  DATA 20,20
0092E:  DATA 20,20
00930:  DATA 00,00
00932:  DATA 4E,6F
00934:  DATA 20,43
00936:  DATA 68,61
00938:  DATA 6E,67
0093A:  DATA 65,00
0093C:  DATA 50,72
0093E:  DATA 65,73
00940:  DATA 73,20
00942:  DATA 45,4E
00944:  DATA 54,45
00946:  DATA 52,00
00948:  DATA 39,2E
0094A:  DATA 44,52
0094C:  DATA 59,52
0094E:  DATA 55,4E
00950:  DATA 20,54
00952:  DATA 52,50
00954:  DATA 20,4E
00956:  DATA 52,4D
00958:  DATA 00,00
0095A:  DATA 39,2E
0095C:  DATA 44,52
0095E:  DATA 59,52
00960:  DATA 55,4E
00962:  DATA 20,54
00964:  DATA 52,50
00966:  DATA 20,46
00968:  DATA 53,54
0096A:  DATA 00,00
0096C:  DATA 20,20
0096E:  DATA 20,25
00970:  DATA 6C,64
00972:  DATA 20,41
00974:  DATA 6D,70
00976:  DATA 73,20
00978:  DATA 20,20
0097A:  DATA 00,00
0097C:  DATA 20,56
0097E:  DATA 41,4C
00980:  DATA 55,45
00982:  DATA 20,53
00984:  DATA 41,56
00986:  DATA 45,44
00988:  DATA 21,20
0098A:  DATA 20,00
0098C:  DATA 20,25
0098E:  DATA 6C,64
00990:  DATA 20,41
00992:  DATA 6D,70
00994:  DATA 73,20
00996:  DATA 20,20
00998:  DATA 00,00
0099A:  DATA 50,72
0099C:  DATA 65,73
0099E:  DATA 73,20
009A0:  DATA 45,4E
009A2:  DATA 54,45
009A4:  DATA 52,20
009A6:  DATA 20,20
009A8:  DATA 20,20
009AA:  DATA 00,00
009AC:  DATA 4E,6F
009AE:  DATA 20,43
009B0:  DATA 68,61
009B2:  DATA 6E,67
009B4:  DATA 65,00
009B6:  DATA 50,72
009B8:  DATA 65,73
009BA:  DATA 73,20
009BC:  DATA 45,4E
009BE:  DATA 54,45
009C0:  DATA 52,00
009C2:  DATA 34,2E
009C4:  DATA 53,45
009C6:  DATA 54,20
009C8:  DATA 4F,4E
009CA:  DATA 20,54
009CC:  DATA 49,4D
009CE:  DATA 45,20
009D0:  DATA 4E,52
009D2:  DATA 4D,00
009D4:  DATA 34,2E
009D6:  DATA 53,45
009D8:  DATA 54,20
009DA:  DATA 4F,4E
009DC:  DATA 20,54
009DE:  DATA 49,4D
009E0:  DATA 45,20
009E2:  DATA 46,53
009E4:  DATA 54,00
009E6:  DATA 34,2E
009E8:  DATA 53,45
009EA:  DATA 54,20
009EC:  DATA 4F,4E
009EE:  DATA 20,54
009F0:  DATA 49,4D
009F2:  DATA 45,20
009F4:  DATA 53,55
009F6:  DATA 46,00
009F8:  DATA 20,20
009FA:  DATA 20,25
009FC:  DATA 6C,64
009FE:  DATA 20,73
00A00:  DATA 65,63
00A02:  DATA 20,20
00A04:  DATA 20,00
00A06:  DATA 20,54
00A08:  DATA 49,4D
00A0A:  DATA 45,20
00A0C:  DATA 53,41
00A0E:  DATA 56,45
00A10:  DATA 44,21
00A12:  DATA 20,20
00A14:  DATA 20,00
00A16:  DATA 20,20
00A18:  DATA 20,25
00A1A:  DATA 6C,64
00A1C:  DATA 20,73
00A1E:  DATA 65,63
00A20:  DATA 20,20
00A22:  DATA 20,00
00A24:  DATA 50,72
00A26:  DATA 65,73
00A28:  DATA 73,20
00A2A:  DATA 45,4E
00A2C:  DATA 54,45
00A2E:  DATA 52,20
00A30:  DATA 20,20
00A32:  DATA 20,20
00A34:  DATA 00,00
00A36:  DATA 4E,6F
00A38:  DATA 20,43
00A3A:  DATA 68,61
00A3C:  DATA 6E,67
00A3E:  DATA 65,00
00A40:  DATA 50,72
00A42:  DATA 65,73
00A44:  DATA 73,20
00A46:  DATA 45,4E
00A48:  DATA 54,45
00A4A:  DATA 52,00
00A4C:  DATA 31,30
00A4E:  DATA 2E,43
00A50:  DATA 59,43
00A52:  DATA 4C,49
00A54:  DATA 43,20
00A56:  DATA 54,49
00A58:  DATA 4D,45
00A5A:  DATA 52,00
00A5C:  DATA 43,59
00A5E:  DATA 43,4C
00A60:  DATA 49,43
00A62:  DATA 20,54
00A64:  DATA 49,4D
00A66:  DATA 45,52
00A68:  DATA 20,25
00A6A:  DATA 64,00
00A6C:  DATA 50,72
00A6E:  DATA 65,73
00A70:  DATA 73,20
00A72:  DATA 74,6F
00A74:  DATA 20,45
00A76:  DATA 4E,54
00A78:  DATA 45,52
00A7A:  DATA 00,00
00A7C:  DATA 4F,4E
00A7E:  DATA 20,3A
00A80:  DATA 00,00
00A82:  DATA 4F,46
00A84:  DATA 46,3A
00A86:  DATA 00,00
00A88:  DATA 4F,4E
00A8A:  DATA 20,20
00A8C:  DATA 54,49
00A8E:  DATA 4D,45
00A90:  DATA 52,20
00A92:  DATA 25,64
00A94:  DATA 20,20
00A96:  DATA 4F,46
00A98:  DATA 46,00
00A9A:  DATA 25,30
00A9C:  DATA 32,75
00A9E:  DATA 3A,25
00AA0:  DATA 30,32
00AA2:  DATA 75,20
00AA4:  DATA 20,20
00AA6:  DATA 20,20
00AA8:  DATA 20,25
00AAA:  DATA 30,32
00AAC:  DATA 75,3A
00AAE:  DATA 25,30
00AB0:  DATA 32,75
00AB2:  DATA 00,00
00AB4:  DATA 39,2E
00AB6:  DATA 41,55
00AB8:  DATA 54,4F
00ABA:  DATA 20,52
00ABC:  DATA 45,53
00ABE:  DATA 54,41
00AC0:  DATA 52,54
00AC2:  DATA 00,00
00AC4:  DATA 3E,3E
00AC6:  DATA 20,4D
00AC8:  DATA 4F,44
00ACA:  DATA 45,3A
00ACC:  DATA 20,41
00ACE:  DATA 55,54
00AD0:  DATA 4F,20
00AD2:  DATA 20,20
00AD4:  DATA 20,20
00AD6:  DATA 00,00
00AD8:  DATA 3E,3E
00ADA:  DATA 20,4D
00ADC:  DATA 4F,44
00ADE:  DATA 45,3A
00AE0:  DATA 20,4D
00AE2:  DATA 41,4E
00AE4:  DATA 55,41
00AE6:  DATA 4C,20
00AE8:  DATA 20,20
00AEA:  DATA 00,00
00AEC:  DATA 3E,3E
00AEE:  DATA 20,4D
00AF0:  DATA 4F,44
00AF2:  DATA 45,3A
00AF4:  DATA 20,41
00AF6:  DATA 55,54
00AF8:  DATA 4F,20
00AFA:  DATA 20,20
00AFC:  DATA 20,20
00AFE:  DATA 00,00
00B00:  DATA 3E,3E
00B02:  DATA 20,4D
00B04:  DATA 4F,44
00B06:  DATA 45,3A
00B08:  DATA 20,4D
00B0A:  DATA 41,4E
00B0C:  DATA 55,41
00B0E:  DATA 4C,20
00B10:  DATA 20,20
00B12:  DATA 00,00
00B14:  DATA 4D,4F
00B16:  DATA 44,45
00B18:  DATA 20,53
00B1A:  DATA 41,56
00B1C:  DATA 45,44
00B1E:  DATA 21,00
00B20:  DATA 4D,4F
00B22:  DATA 44,45
00B24:  DATA 3A,20
00B26:  DATA 41,55
00B28:  DATA 54,4F
00B2A:  DATA 20,20
00B2C:  DATA 20,00
00B2E:  DATA 4D,4F
00B30:  DATA 44,45
00B32:  DATA 3A,20
00B34:  DATA 4D,41
00B36:  DATA 4E,55
00B38:  DATA 41,4C
00B3A:  DATA 20,00
00B3C:  DATA 50,72
00B3E:  DATA 65,73
00B40:  DATA 73,20
00B42:  DATA 45,4E
00B44:  DATA 54,45
00B46:  DATA 52,20
00B48:  DATA 20,20
00B4A:  DATA 20,20
00B4C:  DATA 00,00
00B4E:  DATA 4E,6F
00B50:  DATA 20,43
00B52:  DATA 68,61
00B54:  DATA 6E,67
00B56:  DATA 65,00
00B58:  DATA 50,72
00B5A:  DATA 65,73
00B5C:  DATA 73,20
00B5E:  DATA 45,4E
00B60:  DATA 54,45
00B62:  DATA 52,00
00B64:  DATA 31,30
00B66:  DATA 2E,55
00B68:  DATA 4E,42
00B6A:  DATA 41,4C
00B6C:  DATA 41,4E
00B6E:  DATA 43,45
00B70:  DATA 44,20
00B72:  DATA 54,52
00B74:  DATA 49,50
00B76:  DATA 00,00
00B78:  DATA 4C,69
00B7A:  DATA 6D,69
00B7C:  DATA 74,3A
00B7E:  DATA 20,25
00B80:  DATA 33,4C
00B82:  DATA 75,25
00B84:  DATA 25,00
00B86:  DATA 4C,49
00B88:  DATA 4D,49
00B8A:  DATA 54,20
00B8C:  DATA 53,41
00B8E:  DATA 56,45
00B90:  DATA 44,21
00B92:  DATA 00,00
00B94:  DATA 4C,69
00B96:  DATA 6D,69
00B98:  DATA 74,3A
00B9A:  DATA 20,25
00B9C:  DATA 33,4C
00B9E:  DATA 75,25
00BA0:  DATA 25,00
00BA2:  DATA 50,72
00BA4:  DATA 65,73
00BA6:  DATA 73,20
00BA8:  DATA 45,4E
00BAA:  DATA 54,45
00BAC:  DATA 52,20
00BAE:  DATA 20,20
00BB0:  DATA 20,20
00BB2:  DATA 00,00
00BB4:  DATA 4E,6F
00BB6:  DATA 20,43
00BB8:  DATA 68,61
00BBA:  DATA 6E,67
00BBC:  DATA 65,00
00BBE:  DATA 50,72
00BC0:  DATA 65,73
00BC2:  DATA 73,20
00BC4:  DATA 45,4E
00BC6:  DATA 54,45
00BC8:  DATA 52,00
00BCA:  DATA 31,31
00BCC:  DATA 2E,53
00BCE:  DATA 45,4C
00BD0:  DATA 45,43
00BD2:  DATA 54,20
00BD4:  DATA 43,54
00BD6:  DATA 20,54
00BD8:  DATA 59,50
00BDA:  DATA 45,00
00BDC:  DATA 3E,20
00BDE:  DATA 25,33
00BE0:  DATA 6C,75
00BE2:  DATA 41,20
00BE4:  DATA 28,25
00BE6:  DATA 32,75
00BE8:  DATA 3A,31
00BEA:  DATA 29,20
00BEC:  DATA 20,00
00BEE:  DATA 43,54
00BF0:  DATA 20,53
00BF2:  DATA 41,56
00BF4:  DATA 45,44
00BF6:  DATA 21,00
00BF8:  DATA 43,54
00BFA:  DATA 3A,20
00BFC:  DATA 25,6C
00BFE:  DATA 75,41
00C00:  DATA 20,28
00C02:  DATA 25,75
00C04:  DATA 3A,31
00C06:  DATA 29,00
00C08:  DATA 50,72
00C0A:  DATA 65,73
00C0C:  DATA 73,20
00C0E:  DATA 45,4E
00C10:  DATA 54,45
00C12:  DATA 52,20
00C14:  DATA 20,20
00C16:  DATA 20,20
00C18:  DATA 00,00
00C1A:  DATA 4E,6F
00C1C:  DATA 20,43
00C1E:  DATA 68,61
00C20:  DATA 6E,67
00C22:  DATA 65,00
00C24:  DATA 50,72
00C26:  DATA 65,73
00C28:  DATA 73,20
00C2A:  DATA 45,4E
00C2C:  DATA 54,45
00C2E:  DATA 52,00
00C30:  DATA 31,32
00C32:  DATA 2E,50
00C34:  DATA 49,20
00C36:  DATA 54,45
00C38:  DATA 53,54
00C3A:  DATA 2D,49
00C3C:  DATA 52,40
00C3E:  DATA 31,6D
00C40:  DATA 00,00
00C42:  DATA 20,3A
00C44:  DATA 20,25
00C46:  DATA 33,2E
00C48:  DATA 31,66
00C4A:  DATA 20,4D
00C4C:  DATA 4F,68
00C4E:  DATA 6D,20
00C50:  DATA 20,20
00C52:  DATA 00,00
00C54:  DATA 49,52
00C56:  DATA 40,31
00C58:  DATA 6D,20
00C5A:  DATA 53,41
00C5C:  DATA 56,45
00C5E:  DATA 44,21
00C60:  DATA 00,00
00C62:  DATA 56,61
00C64:  DATA 6C,75
00C66:  DATA 65,3A
00C68:  DATA 20,25
00C6A:  DATA 33,2E
00C6C:  DATA 31,66
00C6E:  DATA 20,4D
00C70:  DATA 4F,68
00C72:  DATA 6D,00
00C74:  DATA 50,72
00C76:  DATA 65,73
00C78:  DATA 73,20
00C7A:  DATA 45,4E
00C7C:  DATA 54,45
00C7E:  DATA 52,20
00C80:  DATA 20,20
00C82:  DATA 20,20
00C84:  DATA 00,00
00C86:  DATA 45,6E
00C88:  DATA 74,65
00C8A:  DATA 72,20
00C8C:  DATA 49,52
00C8E:  DATA 40,31
00C90:  DATA 30,6D
00C92:  DATA 69,6E
00C94:  DATA 20,20
00C96:  DATA 00,00
00C98:  DATA 20,3A
00C9A:  DATA 20,25
00C9C:  DATA 33,2E
00C9E:  DATA 31,66
00CA0:  DATA 20,4D
00CA2:  DATA 4F,68
00CA4:  DATA 6D,20
00CA6:  DATA 20,20
00CA8:  DATA 00,00
00CAA:  DATA 50,49
00CAC:  DATA 20,56
00CAE:  DATA 41,4C
00CB0:  DATA 55,45
00CB2:  DATA 53,20
00CB4:  DATA 53,41
00CB6:  DATA 56,45
00CB8:  DATA 44,21
00CBA:  DATA 00,00
00CBC:  DATA 31,6D
00CBE:  DATA 3A,25
00CC0:  DATA 33,2E
00CC2:  DATA 31,66
00CC4:  DATA 20,31
00CC6:  DATA 30,6D
00CC8:  DATA 3A,25
00CCA:  DATA 33,2E
00CCC:  DATA 31,66
00CCE:  DATA 00,00
00CD0:  DATA 50,72
00CD2:  DATA 65,73
00CD4:  DATA 73,20
00CD6:  DATA 45,4E
00CD8:  DATA 54,45
00CDA:  DATA 52,20
00CDC:  DATA 20,20
00CDE:  DATA 20,20
00CE0:  DATA 00,00
00CE2:  DATA 50,49
00CE4:  DATA 3D,25
00CE6:  DATA 33,2E
00CE8:  DATA 32,66
00CEA:  DATA 20,52
00CEC:  DATA 45,53
00CEE:  DATA 55,4C
00CF0:  DATA 54,20
00CF2:  DATA 00,00
00CF4:  DATA 47,4F
00CF6:  DATA 4F,44
00CF8:  DATA 20,49
00CFA:  DATA 4E,53
00CFC:  DATA 55,4C
00CFE:  DATA 41,54
00D00:  DATA 49,4F
00D02:  DATA 4E,20
00D04:  DATA 00,00
00D06:  DATA 50,4F
00D08:  DATA 4F,52
00D0A:  DATA 20,49
00D0C:  DATA 4E,53
00D0E:  DATA 55,4C
00D10:  DATA 41,54
00D12:  DATA 49,4F
00D14:  DATA 4E,20
00D16:  DATA 00,00
00D18:  DATA 42,41
00D1A:  DATA 44,20
00D1C:  DATA 49,4E
00D1E:  DATA 53,55
00D20:  DATA 4C,41
00D22:  DATA 54,49
00D24:  DATA 4F,4E
00D26:  DATA 20,20
00D28:  DATA 00,00
00D2A:  DATA 4E,45
00D2C:  DATA 57,20
00D2E:  DATA 51,42
00D30:  DATA 49,54
00D32:  DATA 52,4F
00D34:  DATA 4E,49
00D36:  DATA 43,53
00D38:  DATA 00,00
00D3A:  DATA 44,49
00D3C:  DATA 47,49
00D3E:  DATA 54,41
00D40:  DATA 4C,20
00D42:  DATA 53,54
00D44:  DATA 41,52
00D46:  DATA 54,45
00D48:  DATA 52,00
00D4A:  DATA 44,49
00D4C:  DATA 47,49
00D4E:  DATA 54,41
00D50:  DATA 4C,20
00D52:  DATA 53,54
00D54:  DATA 41,52
00D56:  DATA 54,45
00D58:  DATA 52,00
00D5A:  DATA 53,65
00D5C:  DATA 71,2E
00D5E:  DATA 20,43
00D60:  DATA 68,65
00D62:  DATA 63,6B
00D64:  DATA 69,6E
00D66:  DATA 67,2E
00D68:  DATA 2E,2E
00D6A:  DATA 00,00
00D6C:  DATA 50,4F
00D6E:  DATA 57,45
00D70:  DATA 52,20
00D72:  DATA 4F,4E
00D74:  DATA 20,44
00D76:  DATA 4C,59
00D78:  DATA 2E,2E
00D7A:  DATA 2E,00
00D7C:  DATA 20,20
00D7E:  DATA 20,25
00D80:  DATA 6C,64
00D82:  DATA 20,73
00D84:  DATA 65,63
00D86:  DATA 20,20
00D88:  DATA 20,00
00D8A:  DATA 45,4E
00D8C:  DATA 54,45
00D8E:  DATA 52,49
00D90:  DATA 4E,47
00D92:  DATA 20,4D
00D94:  DATA 45,4E
00D96:  DATA 55,2E
00D98:  DATA 2E,2E
00D9A:  DATA 00,00
00D9C:  DATA 4F,4E
00D9E:  DATA 20,00
00DA0:  DATA 4F,46
00DA2:  DATA 46,00
*
00F8C:  MOVLW  8E
00F8E:  MOVWF  00
00F90:  MOVFF  318,01
00F94:  MOVFF  317,02
00F98:  CLRF   03
00F9A:  MOVF   01,F
00F9C:  BNZ   0FB0
00F9E:  MOVFF  02,01
00FA2:  CLRF   02
00FA4:  MOVLW  08
00FA6:  SUBWF  00,F
00FA8:  MOVF   01,F
00FAA:  BNZ   0FB0
00FAC:  CLRF   00
00FAE:  BRA    0FC0
00FB0:  BCF    FD8.0
00FB2:  BTFSC  01.7
00FB4:  BRA    0FBE
00FB6:  RLCF   02,F
00FB8:  RLCF   01,F
00FBA:  DECF   00,F
00FBC:  BRA    0FB0
00FBE:  BCF    01.7
00FC0:  RETURN 0
00FC2:  MOVLB  3
00FC4:  MOVF   x1B,W
00FC6:  BTFSC  FD8.2
00FC8:  BRA    1114
00FCA:  MOVWF  x27
00FCC:  MOVF   x1F,W
00FCE:  BTFSC  FD8.2
00FD0:  BRA    1114
00FD2:  SUBWF  x27,F
00FD4:  BNC   0FE0
00FD6:  MOVLW  7F
00FD8:  ADDWF  x27,F
00FDA:  BTFSC  FD8.0
00FDC:  BRA    1114
00FDE:  BRA    0FEC
00FE0:  MOVLW  81
00FE2:  SUBWF  x27,F
00FE4:  BTFSS  FD8.0
00FE6:  BRA    1114
00FE8:  BTFSC  FD8.2
00FEA:  BRA    1114
00FEC:  MOVFF  327,00
00FF0:  CLRF   01
00FF2:  CLRF   02
00FF4:  CLRF   03
00FF6:  CLRF   x26
00FF8:  MOVFF  31C,325
00FFC:  BSF    x25.7
00FFE:  MOVFF  31D,324
01002:  MOVFF  31E,323
01006:  MOVLW  19
01008:  MOVWF  x27
0100A:  MOVF   x22,W
0100C:  SUBWF  x23,F
0100E:  BC    102A
01010:  MOVLW  01
01012:  SUBWF  x24,F
01014:  BC    102A
01016:  SUBWF  x25,F
01018:  BC    102A
0101A:  SUBWF  x26,F
0101C:  BC    102A
0101E:  INCF   x26,F
01020:  INCF   x25,F
01022:  INCF   x24,F
01024:  MOVF   x22,W
01026:  ADDWF  x23,F
01028:  BRA    107A
0102A:  MOVF   x21,W
0102C:  SUBWF  x24,F
0102E:  BC    1054
01030:  MOVLW  01
01032:  SUBWF  x25,F
01034:  BC    1054
01036:  SUBWF  x26,F
01038:  BC    1054
0103A:  INCF   x26,F
0103C:  INCF   x25,F
0103E:  MOVF   x21,W
01040:  ADDWF  x24,F
01042:  MOVF   x22,W
01044:  ADDWF  x23,F
01046:  BNC   107A
01048:  INCF   x24,F
0104A:  BNZ   107A
0104C:  INCF   x25,F
0104E:  BNZ   107A
01050:  INCF   x26,F
01052:  BRA    107A
01054:  MOVF   x20,W
01056:  IORLW  80
01058:  SUBWF  x25,F
0105A:  BC    1078
0105C:  MOVLW  01
0105E:  SUBWF  x26,F
01060:  BC    1078
01062:  INCF   x26,F
01064:  MOVF   x20,W
01066:  IORLW  80
01068:  ADDWF  x25,F
0106A:  MOVF   x21,W
0106C:  ADDWF  x24,F
0106E:  BNC   1042
01070:  INCF   x25,F
01072:  BNZ   1042
01074:  INCF   x26,F
01076:  BRA    1042
01078:  BSF    03.0
0107A:  DECFSZ x27,F
0107C:  BRA    1080
0107E:  BRA    1096
01080:  BCF    FD8.0
01082:  RLCF   x23,F
01084:  RLCF   x24,F
01086:  RLCF   x25,F
01088:  RLCF   x26,F
0108A:  BCF    FD8.0
0108C:  RLCF   03,F
0108E:  RLCF   02,F
01090:  RLCF   01,F
01092:  RLCF   x28,F
01094:  BRA    100A
01096:  BTFSS  x28.0
01098:  BRA    10A6
0109A:  BCF    FD8.0
0109C:  RRCF   01,F
0109E:  RRCF   02,F
010A0:  RRCF   03,F
010A2:  RRCF   x28,F
010A4:  BRA    10AA
010A6:  DECF   00,F
010A8:  BZ    1114
010AA:  BTFSC  x28.7
010AC:  BRA    10EA
010AE:  BCF    FD8.0
010B0:  RLCF   x23,F
010B2:  RLCF   x24,F
010B4:  RLCF   x25,F
010B6:  RLCF   x26,F
010B8:  MOVF   x22,W
010BA:  SUBWF  x23,F
010BC:  BC    10CC
010BE:  MOVLW  01
010C0:  SUBWF  x24,F
010C2:  BC    10CC
010C4:  SUBWF  x25,F
010C6:  BC    10CC
010C8:  SUBWF  x26,F
010CA:  BNC   1100
010CC:  MOVF   x21,W
010CE:  SUBWF  x24,F
010D0:  BC    10DC
010D2:  MOVLW  01
010D4:  SUBWF  x25,F
010D6:  BC    10DC
010D8:  SUBWF  x26,F
010DA:  BNC   1100
010DC:  MOVF   x20,W
010DE:  IORLW  80
010E0:  SUBWF  x25,F
010E2:  BC    10EA
010E4:  MOVLW  01
010E6:  SUBWF  x26,F
010E8:  BNC   1100
010EA:  INCF   03,F
010EC:  BNZ   1100
010EE:  INCF   02,F
010F0:  BNZ   1100
010F2:  INCF   01,F
010F4:  BNZ   1100
010F6:  INCF   00,F
010F8:  BZ    1114
010FA:  RRCF   01,F
010FC:  RRCF   02,F
010FE:  RRCF   03,F
01100:  MOVFF  31C,327
01104:  MOVF   x20,W
01106:  XORWF  x27,F
01108:  BTFSS  x27.7
0110A:  BRA    1110
0110C:  BSF    01.7
0110E:  BRA    111C
01110:  BCF    01.7
01112:  BRA    111C
01114:  CLRF   00
01116:  CLRF   01
01118:  CLRF   02
0111A:  CLRF   03
0111C:  MOVLB  0
0111E:  RETURN 0
01120:  MOVFF  318,31F
01124:  MOVLB  3
01126:  MOVF   x1C,W
01128:  XORWF  x1F,F
0112A:  BTFSS  x1F.7
0112C:  BRA    1138
0112E:  BCF    FD8.2
01130:  BCF    FD8.0
01132:  BTFSC  x18.7
01134:  BSF    FD8.0
01136:  BRA    1196
01138:  MOVFF  318,31F
0113C:  MOVFF  31B,320
01140:  MOVF   x17,W
01142:  SUBWF  x20,F
01144:  BZ    1152
01146:  BTFSS  x1F.7
01148:  BRA    1196
0114A:  MOVF   FD8,W
0114C:  XORLW  01
0114E:  MOVWF  FD8
01150:  BRA    1196
01152:  MOVFF  31C,320
01156:  MOVF   x18,W
01158:  SUBWF  x20,F
0115A:  BZ    1168
0115C:  BTFSS  x1F.7
0115E:  BRA    1196
01160:  MOVF   FD8,W
01162:  XORLW  01
01164:  MOVWF  FD8
01166:  BRA    1196
01168:  MOVFF  31D,320
0116C:  MOVF   x19,W
0116E:  SUBWF  x20,F
01170:  BZ    117E
01172:  BTFSS  x1F.7
01174:  BRA    1196
01176:  MOVF   FD8,W
01178:  XORLW  01
0117A:  MOVWF  FD8
0117C:  BRA    1196
0117E:  MOVFF  31E,320
01182:  MOVF   x1A,W
01184:  SUBWF  x20,F
01186:  BZ    1194
01188:  BTFSS  x1F.7
0118A:  BRA    1196
0118C:  MOVF   FD8,W
0118E:  XORLW  01
01190:  MOVWF  FD8
01192:  BRA    1196
01194:  BCF    FD8.0
01196:  MOVLB  0
01198:  RETURN 0
*
01202:  MOVFF  FF2,0D
01206:  BCF    FF2.7
01208:  ADDWF  FE8,W
0120A:  CLRF   FF7
0120C:  RLCF   FF7,F
0120E:  ADDLW  27
01210:  MOVWF  FF6
01212:  MOVLW  12
01214:  ADDWFC FF7,F
01216:  TBLRD*-
01218:  MOVF   FF5,W
0121A:  MOVWF  FFA
0121C:  TBLRD*
0121E:  MOVF   FF5,W
01220:  BTFSC  0D.7
01222:  BSF    FF2.7
01224:  MOVWF  FF9
01226:  DATA AC,11
01228:  DATA C0,11
0122A:  DATA D4,11
0122C:  DATA E8,11
*
0125C:  TBLRD*+
0125E:  MOVF   FF5,F
01260:  BZ    127A
01262:  MOVFF  FF6,397
01266:  MOVFF  FF7,398
0126A:  MOVFF  FF5,3AE
0126E:  RCALL  122E
01270:  MOVFF  397,FF6
01274:  MOVFF  398,FF7
01278:  BRA    125C
0127A:  RETURN 0
*
0130C:  MOVLB  3
0130E:  MOVF   x24,W
01310:  BTFSC  FD8.2
01312:  BRA    13F6
01314:  MOVWF  00
01316:  MOVF   x28,W
01318:  BTFSC  FD8.2
0131A:  BRA    13F6
0131C:  ADDWF  00,F
0131E:  BNC   1328
01320:  MOVLW  81
01322:  ADDWF  00,F
01324:  BC    13F6
01326:  BRA    1330
01328:  MOVLW  7F
0132A:  SUBWF  00,F
0132C:  BNC   13F6
0132E:  BZ    13F6
01330:  MOVFF  325,32C
01334:  MOVF   x29,W
01336:  XORWF  x2C,F
01338:  BSF    x25.7
0133A:  BSF    x29.7
0133C:  MOVF   x27,W
0133E:  MULWF  x2B
01340:  MOVFF  FF4,32E
01344:  MOVF   x26,W
01346:  MULWF  x2A
01348:  MOVFF  FF4,03
0134C:  MOVFF  FF3,32D
01350:  MULWF  x2B
01352:  MOVF   FF3,W
01354:  ADDWF  x2E,F
01356:  MOVF   FF4,W
01358:  ADDWFC x2D,F
0135A:  MOVLW  00
0135C:  ADDWFC 03,F
0135E:  MOVF   x27,W
01360:  MULWF  x2A
01362:  MOVF   FF3,W
01364:  ADDWF  x2E,F
01366:  MOVF   FF4,W
01368:  ADDWFC x2D,F
0136A:  MOVLW  00
0136C:  CLRF   02
0136E:  ADDWFC 03,F
01370:  ADDWFC 02,F
01372:  MOVF   x25,W
01374:  MULWF  x2B
01376:  MOVF   FF3,W
01378:  ADDWF  x2D,F
0137A:  MOVF   FF4,W
0137C:  ADDWFC 03,F
0137E:  MOVLW  00
01380:  ADDWFC 02,F
01382:  MOVF   x25,W
01384:  MULWF  x2A
01386:  MOVF   FF3,W
01388:  ADDWF  03,F
0138A:  MOVF   FF4,W
0138C:  ADDWFC 02,F
0138E:  MOVLW  00
01390:  CLRF   01
01392:  ADDWFC 01,F
01394:  MOVF   x27,W
01396:  MULWF  x29
01398:  MOVF   FF3,W
0139A:  ADDWF  x2D,F
0139C:  MOVF   FF4,W
0139E:  ADDWFC 03,F
013A0:  MOVLW  00
013A2:  ADDWFC 02,F
013A4:  ADDWFC 01,F
013A6:  MOVF   x26,W
013A8:  MULWF  x29
013AA:  MOVF   FF3,W
013AC:  ADDWF  03,F
013AE:  MOVF   FF4,W
013B0:  ADDWFC 02,F
013B2:  MOVLW  00
013B4:  ADDWFC 01,F
013B6:  MOVF   x25,W
013B8:  MULWF  x29
013BA:  MOVF   FF3,W
013BC:  ADDWF  02,F
013BE:  MOVF   FF4,W
013C0:  ADDWFC 01,F
013C2:  INCF   00,F
013C4:  BTFSC  01.7
013C6:  BRA    13D2
013C8:  RLCF   x2D,F
013CA:  RLCF   03,F
013CC:  RLCF   02,F
013CE:  RLCF   01,F
013D0:  DECF   00,F
013D2:  MOVLW  00
013D4:  BTFSS  x2D.7
013D6:  BRA    13EC
013D8:  INCF   03,F
013DA:  ADDWFC 02,F
013DC:  ADDWFC 01,F
013DE:  MOVF   01,W
013E0:  BNZ   13EC
013E2:  MOVF   02,W
013E4:  BNZ   13EC
013E6:  MOVF   03,W
013E8:  BNZ   13EC
013EA:  INCF   00,F
013EC:  BTFSC  x2C.7
013EE:  BSF    01.7
013F0:  BTFSS  x2C.7
013F2:  BCF    01.7
013F4:  BRA    13FE
013F6:  CLRF   00
013F8:  CLRF   01
013FA:  CLRF   02
013FC:  CLRF   03
013FE:  MOVLB  0
01400:  RETURN 0
01402:  MOVLW  8E
01404:  MOVWF  00
01406:  MOVLB  3
01408:  MOVF   x0B,W
0140A:  SUBWF  00,F
0140C:  MOVFF  30C,02
01410:  MOVFF  30D,01
01414:  BSF    02.7
01416:  MOVF   00,F
01418:  BZ    142C
0141A:  BCF    FD8.0
0141C:  MOVF   02,F
0141E:  BNZ   1424
01420:  MOVF   01,F
01422:  BZ    142C
01424:  RRCF   02,F
01426:  RRCF   01,F
01428:  DECFSZ 00,F
0142A:  BRA    141A
0142C:  BTFSS  x0C.7
0142E:  BRA    143A
01430:  COMF   01,F
01432:  COMF   02,F
01434:  INCF   01,F
01436:  BTFSC  FD8.2
01438:  INCF   02,F
0143A:  MOVLB  0
0143C:  GOTO   15D2 (RETURN)
*
018B8:  TBLRD*+
018BA:  MOVFF  FF6,3A6
018BE:  MOVFF  FF7,3A7
018C2:  MOVFF  FF5,3AE
018C6:  RCALL  122E
018C8:  MOVFF  3A6,FF6
018CC:  MOVFF  3A7,FF7
018D0:  MOVLB  3
018D2:  DECFSZ xA5,F
018D4:  BRA    18D8
018D6:  BRA    18DC
018D8:  MOVLB  0
018DA:  BRA    18B8
018DC:  MOVLB  0
018DE:  RETURN 0
018E0:  MOVFF  FEA,3AD
018E4:  MOVFF  FE9,3AC
018E8:  MOVLB  3
018EA:  BTFSS  xA6.7
018EC:  BRA    18FE
018EE:  BSF    xAC.7
018F0:  BTFSS  xAC.4
018F2:  INCF   xAC,F
018F4:  COMF   xA5,F
018F6:  COMF   xA6,F
018F8:  INCF   xA5,F
018FA:  BTFSC  FD8.2
018FC:  INCF   xA6,F
018FE:  SWAPF  xA6,W
01900:  IORLW  F0
01902:  MOVWF  xA8
01904:  ADDWF  xA8,F
01906:  ADDLW  E2
01908:  MOVWF  xA9
0190A:  ADDLW  32
0190C:  MOVWF  xAB
0190E:  MOVF   xA6,W
01910:  ANDLW  0F
01912:  ADDWF  xA9,F
01914:  ADDWF  xA9,F
01916:  ADDWF  xAB,F
01918:  ADDLW  E9
0191A:  MOVWF  xAA
0191C:  ADDWF  xAA,F
0191E:  ADDWF  xAA,F
01920:  SWAPF  xA5,W
01922:  ANDLW  0F
01924:  ADDWF  xAA,F
01926:  ADDWF  xAB,F
01928:  RLCF   xAA,F
0192A:  RLCF   xAB,F
0192C:  COMF   xAB,F
0192E:  RLCF   xAB,F
01930:  MOVF   xA5,W
01932:  ANDLW  0F
01934:  ADDWF  xAB,F
01936:  RLCF   xA8,F
01938:  MOVLW  07
0193A:  MOVWF  xA7
0193C:  MOVLW  0A
0193E:  DECF   xAA,F
01940:  ADDWF  xAB,F
01942:  BNC   193E
01944:  DECF   xA9,F
01946:  ADDWF  xAA,F
01948:  BNC   1944
0194A:  DECF   xA8,F
0194C:  ADDWF  xA9,F
0194E:  BNC   194A
01950:  DECF   xA7,F
01952:  ADDWF  xA8,F
01954:  BNC   1950
01956:  MOVLW  03
01958:  MOVWF  FEA
0195A:  MOVLW  A7
0195C:  MOVWF  FE9
0195E:  MOVLW  07
01960:  ANDWF  xAC,W
01962:  BCF    xAC.6
01964:  MOVF   FED,F
01966:  ANDWF  xAC,W
01968:  BNZ   1978
0196A:  BTFSC  xAC.4
0196C:  MOVF   FEE,F
0196E:  BTFSC  xAC.4
01970:  BRA    1978
01972:  MOVLW  20
01974:  MOVWF  00
01976:  BRA    19BA
01978:  ADDWF  FE9,F
0197A:  MOVLW  00
0197C:  ADDWFC FEA,F
0197E:  MOVF   FE9,W
01980:  SUBLW  AB
01982:  BNZ   198C
01984:  MOVF   FEA,W
01986:  SUBLW  03
01988:  BNZ   198C
0198A:  BSF    xAC.6
0198C:  MOVF   FEF,W
0198E:  MOVWF  00
01990:  BNZ   19A2
01992:  BTFSC  xAC.6
01994:  BRA    19A2
01996:  BTFSC  xAC.4
01998:  BRA    19D4
0199A:  BTFSC  xAC.3
0199C:  BRA    19A2
0199E:  MOVLW  20
019A0:  BRA    19B8
019A2:  BTFSS  xAC.7
019A4:  BRA    19B2
019A6:  MOVLW  2D
019A8:  MOVWF  00
019AA:  MOVF   FED,W
019AC:  BCF    xAC.6
019AE:  BCF    xAC.7
019B0:  BRA    19BA
019B2:  BSF    xAC.3
019B4:  BCF    xAC.4
019B6:  MOVLW  30
019B8:  ADDWF  00,F
019BA:  MOVFF  FEA,3A6
019BE:  MOVFF  FE9,3A5
019C2:  MOVFF  00,3AE
019C6:  MOVLB  0
019C8:  RCALL  122E
019CA:  MOVFF  3A6,FEA
019CE:  MOVFF  3A5,FE9
019D2:  MOVLB  3
019D4:  MOVF   FEE,W
019D6:  BTFSS  xAC.6
019D8:  BRA    197E
019DA:  MOVLB  0
019DC:  RETURN 0
*
01C82:  MOVLB  3
01C84:  MOVF   x24,W
01C86:  SUBLW  B6
01C88:  MOVWF  x24
01C8A:  CLRF   03
01C8C:  MOVFF  325,328
01C90:  BSF    x25.7
01C92:  BCF    FD8.0
01C94:  RRCF   x25,F
01C96:  RRCF   x26,F
01C98:  RRCF   x27,F
01C9A:  RRCF   03,F
01C9C:  RRCF   02,F
01C9E:  RRCF   01,F
01CA0:  RRCF   00,F
01CA2:  DECFSZ x24,F
01CA4:  BRA    1C92
01CA6:  BTFSS  x28.7
01CA8:  BRA    1CC0
01CAA:  COMF   00,F
01CAC:  COMF   01,F
01CAE:  COMF   02,F
01CB0:  COMF   03,F
01CB2:  INCF   00,F
01CB4:  BTFSC  FD8.2
01CB6:  INCF   01,F
01CB8:  BTFSC  FD8.2
01CBA:  INCF   02,F
01CBC:  BTFSC  FD8.2
01CBE:  INCF   03,F
01CC0:  MOVLB  0
01CC2:  GOTO   1DB2 (RETURN)
01CC6:  BTFSC  FD8.1
01CC8:  BRA    1CD2
01CCA:  MOVLW  03
01CCC:  MOVWF  FEA
01CCE:  MOVLW  2C
01CD0:  MOVWF  FE9
01CD2:  CLRF   00
01CD4:  CLRF   01
01CD6:  CLRF   02
01CD8:  CLRF   03
01CDA:  MOVLB  3
01CDC:  CLRF   x2C
01CDE:  CLRF   x2D
01CE0:  CLRF   x2E
01CE2:  CLRF   x2F
01CE4:  MOVF   x2B,W
01CE6:  IORWF  x2A,W
01CE8:  IORWF  x29,W
01CEA:  IORWF  x28,W
01CEC:  BZ    1D46
01CEE:  MOVLW  20
01CF0:  MOVWF  x30
01CF2:  BCF    FD8.0
01CF4:  RLCF   x24,F
01CF6:  RLCF   x25,F
01CF8:  RLCF   x26,F
01CFA:  RLCF   x27,F
01CFC:  RLCF   x2C,F
01CFE:  RLCF   x2D,F
01D00:  RLCF   x2E,F
01D02:  RLCF   x2F,F
01D04:  MOVF   x2B,W
01D06:  SUBWF  x2F,W
01D08:  BNZ   1D1A
01D0A:  MOVF   x2A,W
01D0C:  SUBWF  x2E,W
01D0E:  BNZ   1D1A
01D10:  MOVF   x29,W
01D12:  SUBWF  x2D,W
01D14:  BNZ   1D1A
01D16:  MOVF   x28,W
01D18:  SUBWF  x2C,W
01D1A:  BNC   1D3A
01D1C:  MOVF   x28,W
01D1E:  SUBWF  x2C,F
01D20:  MOVF   x29,W
01D22:  BTFSS  FD8.0
01D24:  INCFSZ x29,W
01D26:  SUBWF  x2D,F
01D28:  MOVF   x2A,W
01D2A:  BTFSS  FD8.0
01D2C:  INCFSZ x2A,W
01D2E:  SUBWF  x2E,F
01D30:  MOVF   x2B,W
01D32:  BTFSS  FD8.0
01D34:  INCFSZ x2B,W
01D36:  SUBWF  x2F,F
01D38:  BSF    FD8.0
01D3A:  RLCF   00,F
01D3C:  RLCF   01,F
01D3E:  RLCF   02,F
01D40:  RLCF   03,F
01D42:  DECFSZ x30,F
01D44:  BRA    1CF2
01D46:  MOVFF  32C,FEF
01D4A:  MOVFF  32D,FEC
01D4E:  MOVFF  32E,FEC
01D52:  MOVFF  32F,FEC
01D56:  MOVLB  0
01D58:  RETURN 0
01D5A:  MOVF   FE9,W
01D5C:  MOVLB  3
01D5E:  MOVWF  x1C
01D60:  MOVF   x1B,W
01D62:  MOVWF  x1E
01D64:  BZ    1D9E
01D66:  MOVFF  31A,327
01D6A:  MOVFF  319,326
01D6E:  MOVFF  318,325
01D72:  MOVFF  317,324
01D76:  CLRF   x2B
01D78:  CLRF   x2A
01D7A:  MOVLW  20
01D7C:  MOVWF  x29
01D7E:  MOVLW  82
01D80:  MOVWF  x28
01D82:  MOVLB  0
01D84:  CALL   130C
01D88:  MOVFF  03,31A
01D8C:  MOVFF  02,319
01D90:  MOVFF  01,318
01D94:  MOVFF  00,317
01D98:  MOVLB  3
01D9A:  DECFSZ x1E,F
01D9C:  BRA    1D66
01D9E:  MOVFF  31A,327
01DA2:  MOVFF  319,326
01DA6:  MOVFF  318,325
01DAA:  MOVFF  317,324
01DAE:  MOVLB  0
01DB0:  BRA    1C82
01DB2:  MOVFF  03,31A
01DB6:  MOVFF  02,319
01DBA:  MOVFF  01,318
01DBE:  MOVFF  00,317
01DC2:  MOVLB  3
01DC4:  BTFSS  x1A.7
01DC6:  BRA    1DE2
01DC8:  DECF   x1C,F
01DCA:  BSF    x1C.5
01DCC:  COMF   x17,F
01DCE:  COMF   x18,F
01DD0:  COMF   x19,F
01DD2:  COMF   x1A,F
01DD4:  INCF   x17,F
01DD6:  BTFSC  FD8.2
01DD8:  INCF   x18,F
01DDA:  BTFSC  FD8.2
01DDC:  INCF   x19,F
01DDE:  BTFSC  FD8.2
01DE0:  INCF   x1A,F
01DE2:  MOVLW  3B
01DE4:  MOVWF  x23
01DE6:  MOVLW  9A
01DE8:  MOVWF  x22
01DEA:  MOVLW  CA
01DEC:  MOVWF  x21
01DEE:  CLRF   x20
01DF0:  MOVLW  0A
01DF2:  MOVWF  x1E
01DF4:  MOVF   x1B,W
01DF6:  BTFSC  FD8.2
01DF8:  INCF   x1C,F
01DFA:  BSF    FD8.1
01DFC:  MOVLW  03
01DFE:  MOVWF  FEA
01E00:  MOVLW  17
01E02:  MOVWF  FE9
01E04:  MOVFF  31A,327
01E08:  MOVFF  319,326
01E0C:  MOVFF  318,325
01E10:  MOVFF  317,324
01E14:  MOVFF  323,32B
01E18:  MOVFF  322,32A
01E1C:  MOVFF  321,329
01E20:  MOVFF  320,328
01E24:  MOVLB  0
01E26:  RCALL  1CC6
01E28:  MOVF   01,W
01E2A:  MOVF   00,F
01E2C:  BNZ   1E54
01E2E:  MOVLB  3
01E30:  INCF   x1B,W
01E32:  SUBWF  x1E,W
01E34:  BTFSS  FD8.2
01E36:  BRA    1E3C
01E38:  MOVLB  0
01E3A:  BRA    1E54
01E3C:  MOVF   x1C,W
01E3E:  BZ    1E5A
01E40:  ANDLW  0F
01E42:  SUBWF  x1E,W
01E44:  BZ    1E48
01E46:  BC    1ED0
01E48:  BTFSC  x1C.7
01E4A:  BRA    1ED0
01E4C:  BTFSC  x1C.6
01E4E:  BRA    1E5A
01E50:  MOVLW  20
01E52:  BRA    1EC2
01E54:  MOVLW  20
01E56:  MOVLB  3
01E58:  ANDWF  x1C,F
01E5A:  BTFSS  x1C.5
01E5C:  BRA    1E7C
01E5E:  BCF    x1C.5
01E60:  MOVF   x1B,W
01E62:  BTFSS  FD8.2
01E64:  DECF   x1C,F
01E66:  MOVF   00,W
01E68:  MOVWF  x1C
01E6A:  MOVLW  2D
01E6C:  MOVWF  xAE
01E6E:  MOVLB  0
01E70:  CALL   122E
01E74:  MOVLB  3
01E76:  MOVF   x1C,W
01E78:  MOVWF  00
01E7A:  CLRF   x1C
01E7C:  MOVF   x1B,W
01E7E:  SUBWF  x1E,W
01E80:  BNZ   1E9C
01E82:  MOVF   00,W
01E84:  MOVWF  x1C
01E86:  MOVLW  2E
01E88:  MOVWF  xAE
01E8A:  MOVLB  0
01E8C:  CALL   122E
01E90:  MOVLB  3
01E92:  MOVF   x1C,W
01E94:  MOVWF  00
01E96:  MOVLW  20
01E98:  ANDWF  x1C,F
01E9A:  MOVLW  00
01E9C:  MOVLW  30
01E9E:  BTFSS  x1C.5
01EA0:  BRA    1EC2
01EA2:  BCF    x1C.5
01EA4:  MOVF   x1B,W
01EA6:  BTFSS  FD8.2
01EA8:  DECF   x1C,F
01EAA:  MOVF   00,W
01EAC:  MOVWF  x1C
01EAE:  MOVLW  2D
01EB0:  MOVWF  xAE
01EB2:  MOVLB  0
01EB4:  CALL   122E
01EB8:  MOVLB  3
01EBA:  MOVF   x1C,W
01EBC:  MOVWF  00
01EBE:  CLRF   x1C
01EC0:  MOVLW  30
01EC2:  ADDWF  00,F
01EC4:  MOVFF  00,3AE
01EC8:  MOVLB  0
01ECA:  CALL   122E
01ECE:  MOVLB  3
01ED0:  BCF    FD8.1
01ED2:  MOVFF  323,327
01ED6:  MOVFF  322,326
01EDA:  MOVFF  321,325
01EDE:  MOVFF  320,324
01EE2:  CLRF   x2B
01EE4:  CLRF   x2A
01EE6:  CLRF   x29
01EE8:  MOVLW  0A
01EEA:  MOVWF  x28
01EEC:  MOVLB  0
01EEE:  RCALL  1CC6
01EF0:  MOVFF  03,323
01EF4:  MOVFF  02,322
01EF8:  MOVFF  01,321
01EFC:  MOVFF  00,320
01F00:  MOVLB  3
01F02:  DECFSZ x1E,F
01F04:  BRA    1DFA
01F06:  MOVLB  0
01F08:  RETURN 0
01F0A:  CLRF   01
01F0C:  CLRF   02
01F0E:  CLRF   00
01F10:  CLRF   03
01F12:  MOVLB  3
01F14:  MOVF   x04,W
01F16:  BNZ   1F1C
01F18:  MOVF   x03,W
01F1A:  BZ    1F4C
01F1C:  MOVLW  10
01F1E:  MOVWF  x05
01F20:  BCF    FD8.0
01F22:  RLCF   x01,F
01F24:  RLCF   x02,F
01F26:  RLCF   00,F
01F28:  RLCF   03,F
01F2A:  MOVF   x04,W
01F2C:  SUBWF  03,W
01F2E:  BNZ   1F34
01F30:  MOVF   x03,W
01F32:  SUBWF  00,W
01F34:  BNC   1F44
01F36:  MOVF   x03,W
01F38:  SUBWF  00,F
01F3A:  BTFSS  FD8.0
01F3C:  DECF   03,F
01F3E:  MOVF   x04,W
01F40:  SUBWF  03,F
01F42:  BSF    FD8.0
01F44:  RLCF   01,F
01F46:  RLCF   02,F
01F48:  DECFSZ x05,F
01F4A:  BRA    1F20
01F4C:  MOVLB  0
01F4E:  RETURN 0
01F50:  MOVLB  3
01F52:  MOVF   x8E,W
01F54:  CLRF   01
01F56:  SUBWF  x8D,W
01F58:  BC    1F60
01F5A:  MOVFF  38D,00
01F5E:  BRA    1F78
01F60:  CLRF   00
01F62:  MOVLW  08
01F64:  MOVWF  x8F
01F66:  RLCF   x8D,F
01F68:  RLCF   00,F
01F6A:  MOVF   x8E,W
01F6C:  SUBWF  00,W
01F6E:  BTFSC  FD8.0
01F70:  MOVWF  00
01F72:  RLCF   01,F
01F74:  DECFSZ x8F,F
01F76:  BRA    1F66
01F78:  MOVLB  0
01F7A:  RETURN 0
01F7C:  MOVLW  20
01F7E:  MOVLB  3
01F80:  BTFSS  x88.4
01F82:  MOVLW  30
01F84:  MOVWF  x89
01F86:  MOVFF  387,00
01F8A:  BTFSS  x87.7
01F8C:  BRA    1F9E
01F8E:  COMF   00,F
01F90:  INCF   00,F
01F92:  MOVFF  00,387
01F96:  MOVLW  2D
01F98:  MOVWF  x89
01F9A:  BSF    x88.7
01F9C:  BSF    x88.0
01F9E:  MOVF   01,W
01FA0:  MOVFF  387,38D
01FA4:  MOVLW  64
01FA6:  MOVWF  x8E
01FA8:  MOVLB  0
01FAA:  RCALL  1F50
01FAC:  MOVFF  00,387
01FB0:  MOVLW  30
01FB2:  ADDWF  01,W
01FB4:  MOVLB  3
01FB6:  MOVWF  x8A
01FB8:  MOVFF  387,38D
01FBC:  MOVLW  0A
01FBE:  MOVWF  x8E
01FC0:  MOVLB  0
01FC2:  RCALL  1F50
01FC4:  MOVLW  30
01FC6:  ADDWF  00,W
01FC8:  MOVLB  3
01FCA:  MOVWF  x8C
01FCC:  MOVLW  30
01FCE:  ADDWF  01,W
01FD0:  MOVWF  x8B
01FD2:  MOVFF  389,00
01FD6:  MOVLW  30
01FD8:  SUBWF  x8A,W
01FDA:  BZ    1FE4
01FDC:  BSF    x88.1
01FDE:  BTFSC  x88.7
01FE0:  BSF    x88.2
01FE2:  BRA    2008
01FE4:  MOVFF  389,38A
01FE8:  MOVLW  20
01FEA:  MOVWF  x89
01FEC:  MOVLW  30
01FEE:  SUBWF  x8B,W
01FF0:  BZ    1FFA
01FF2:  BSF    x88.0
01FF4:  BTFSC  x88.7
01FF6:  BSF    x88.1
01FF8:  BRA    2008
01FFA:  BTFSS  FD8.2
01FFC:  BSF    x88.0
01FFE:  BNZ   2008
02000:  MOVFF  38A,38B
02004:  MOVLW  20
02006:  MOVWF  x8A
02008:  BTFSC  x88.2
0200A:  BRA    2016
0200C:  BTFSC  x88.1
0200E:  BRA    2020
02010:  BTFSC  x88.0
02012:  BRA    202A
02014:  BRA    2034
02016:  MOVFF  389,3AE
0201A:  MOVLB  0
0201C:  CALL   122E
02020:  MOVFF  38A,3AE
02024:  MOVLB  0
02026:  CALL   122E
0202A:  MOVFF  38B,3AE
0202E:  MOVLB  0
02030:  CALL   122E
02034:  MOVFF  38C,3AE
02038:  MOVLB  0
0203A:  CALL   122E
0203E:  RETURN 0
*
020B4:  MOVF   FEF,F
020B6:  BZ    20D8
020B8:  MOVFF  FEA,3A6
020BC:  MOVFF  FE9,3A5
020C0:  MOVFF  FEF,3AE
020C4:  CALL   122E
020C8:  MOVFF  3A6,FEA
020CC:  MOVFF  3A5,FE9
020D0:  INCF   FE9,F
020D2:  BTFSC  FD8.2
020D4:  INCF   FEA,F
020D6:  BRA    20B4
020D8:  RETURN 0
*
037FE:  MOVFF  FEA,39F
03802:  MOVFF  FE9,39E
03806:  MOVLB  3
03808:  SWAPF  x98,W
0380A:  IORLW  F0
0380C:  MOVWF  x9A
0380E:  ADDWF  x9A,F
03810:  ADDLW  E2
03812:  MOVWF  x9B
03814:  ADDLW  32
03816:  MOVWF  x9D
03818:  MOVF   x98,W
0381A:  ANDLW  0F
0381C:  ADDWF  x9B,F
0381E:  ADDWF  x9B,F
03820:  ADDWF  x9D,F
03822:  ADDLW  E9
03824:  MOVWF  x9C
03826:  ADDWF  x9C,F
03828:  ADDWF  x9C,F
0382A:  SWAPF  x97,W
0382C:  ANDLW  0F
0382E:  ADDWF  x9C,F
03830:  ADDWF  x9D,F
03832:  RLCF   x9C,F
03834:  RLCF   x9D,F
03836:  COMF   x9D,F
03838:  RLCF   x9D,F
0383A:  MOVF   x97,W
0383C:  ANDLW  0F
0383E:  ADDWF  x9D,F
03840:  RLCF   x9A,F
03842:  MOVLW  07
03844:  MOVWF  x99
03846:  MOVLW  0A
03848:  DECF   x9C,F
0384A:  ADDWF  x9D,F
0384C:  BNC   3848
0384E:  DECF   x9B,F
03850:  ADDWF  x9C,F
03852:  BNC   384E
03854:  DECF   x9A,F
03856:  ADDWF  x9B,F
03858:  BNC   3854
0385A:  DECF   x99,F
0385C:  ADDWF  x9A,F
0385E:  BNC   385A
03860:  MOVLW  03
03862:  MOVWF  FEA
03864:  MOVLW  99
03866:  MOVWF  FE9
03868:  MOVLW  07
0386A:  ANDWF  x9E,W
0386C:  BCF    x9E.6
0386E:  ADDWF  FE9,F
03870:  MOVLW  00
03872:  ADDWFC FEA,F
03874:  MOVF   FE9,W
03876:  SUBLW  9D
03878:  BNZ   3882
0387A:  MOVF   FEA,W
0387C:  SUBLW  03
0387E:  BNZ   3882
03880:  BSF    x9E.6
03882:  MOVF   FEF,W
03884:  MOVWF  00
03886:  BNZ   3898
03888:  BTFSC  x9E.6
0388A:  BRA    3898
0388C:  BTFSC  x9E.4
0388E:  BRA    38BC
03890:  BTFSC  x9E.3
03892:  BRA    3898
03894:  MOVLW  20
03896:  BRA    389E
03898:  BSF    x9E.3
0389A:  BCF    x9E.4
0389C:  MOVLW  30
0389E:  ADDWF  00,F
038A0:  MOVFF  FEA,398
038A4:  MOVFF  FE9,397
038A8:  MOVFF  00,3AE
038AC:  MOVLB  0
038AE:  CALL   122E
038B2:  MOVFF  398,FEA
038B6:  MOVFF  397,FE9
038BA:  MOVLB  3
038BC:  MOVF   FEE,W
038BE:  BTFSS  x9E.6
038C0:  BRA    3874
038C2:  MOVLB  0
038C4:  RETURN 0
*
05616:  MOVF   01,W
05618:  MOVFF  386,38D
0561C:  MOVLW  64
0561E:  MOVLB  3
05620:  MOVWF  x8E
05622:  MOVLB  0
05624:  CALL   1F50
05628:  MOVFF  00,386
0562C:  MOVF   01,W
0562E:  MOVLW  30
05630:  BNZ   5642
05632:  MOVLB  3
05634:  BTFSS  x87.1
05636:  BRA    5658
05638:  BTFSC  x87.3
0563A:  BRA    5658
0563C:  BTFSC  x87.4
0563E:  MOVLW  20
05640:  BRA    564A
05642:  MOVLB  3
05644:  BCF    x87.3
05646:  BCF    x87.4
05648:  BSF    x87.0
0564A:  ADDWF  01,F
0564C:  MOVFF  01,3AE
05650:  MOVLB  0
05652:  CALL   122E
05656:  MOVLB  3
05658:  MOVFF  386,38D
0565C:  MOVLW  0A
0565E:  MOVWF  x8E
05660:  MOVLB  0
05662:  CALL   1F50
05666:  MOVFF  00,386
0566A:  MOVF   01,W
0566C:  MOVLW  30
0566E:  BNZ   5680
05670:  MOVLB  3
05672:  BTFSC  x87.3
05674:  BRA    568C
05676:  BTFSS  x87.0
05678:  BRA    568C
0567A:  BTFSC  x87.4
0567C:  MOVLW  20
0567E:  MOVLB  0
05680:  ADDWF  01,F
05682:  MOVFF  01,3AE
05686:  CALL   122E
0568A:  MOVLB  3
0568C:  MOVLW  30
0568E:  ADDWF  x86,F
05690:  MOVFF  386,3AE
05694:  MOVLB  0
05696:  CALL   122E
0569A:  RETURN 0
*
05FBE:  MOVFF  FF2,0D
05FC2:  BCF    FF2.7
05FC4:  ADDWF  FE8,W
05FC6:  CLRF   FF7
05FC8:  RLCF   FF7,F
05FCA:  ADDLW  E3
05FCC:  MOVWF  FF6
05FCE:  MOVLW  5F
05FD0:  ADDWFC FF7,F
05FD2:  TBLRD*-
05FD4:  MOVF   FF5,W
05FD6:  MOVWF  FFA
05FD8:  TBLRD*
05FDA:  MOVF   FF5,W
05FDC:  BTFSC  0D.7
05FDE:  BSF    FF2.7
05FE0:  MOVWF  FF9
05FE2:  DATA B6,5C
05FE4:  DATA C2,5C
05FE6:  DATA CE,5C
05FE8:  DATA DA,5C
05FEA:  MOVFF  FF2,0D
05FEE:  BCF    FF2.7
05FF0:  ADDWF  FE8,W
05FF2:  CLRF   FF7
05FF4:  RLCF   FF7,F
05FF6:  ADDLW  0F
05FF8:  MOVWF  FF6
05FFA:  MOVLW  60
05FFC:  ADDWFC FF7,F
05FFE:  TBLRD*-
06000:  MOVF   FF5,W
06002:  MOVWF  FFA
06004:  TBLRD*
06006:  MOVF   FF5,W
06008:  BTFSC  0D.7
0600A:  BSF    FF2.7
0600C:  MOVWF  FF9
0600E:  DATA 1E,5D
06010:  DATA 28,5D
06012:  DATA 32,5D
06014:  DATA 3C,5D
....................  
.................... #list 
....................  
.................... #device ADC=10 
.................... #INCLUDE <stdlib.h> 
.................... /////////////////////////////////////////////////////////////////////////// 
.................... ////        (C) Copyright 1996,2007 Custom Computer Services           //// 
.................... //// This source code may only be used by licensed users of the CCS C  //// 
.................... //// compiler.  This source code may only be distributed to other      //// 
.................... //// licensed users of the CCS C compiler.  No other use, reproduction //// 
.................... //// or distribution is permitted without written permission.          //// 
.................... //// Derivative programs created using this software in object code    //// 
.................... //// form are not restricted in any way.                               //// 
.................... /////////////////////////////////////////////////////////////////////////// 
....................  
.................... #ifndef _STDLIB 
.................... #define _STDLIB 
....................  
.................... //--------------------------------------------------------------------------- 
.................... // Definitions and types 
.................... //--------------------------------------------------------------------------- 
....................  
.................... #ifndef RAND_MAX 
.................... #define RAND_MAX  32767    // The value of which is the maximum value 
....................                            // ... returned by the rand function 
.................... #endif 
....................  
....................  
.................... #IF (sizeof(int16*)>1) 
.................... #DEFINE LONG_POINTERS 1 
.................... #ELSE  
.................... #DEFINE LONG_POINTERS 0 
.................... #ENDIF 
....................  
.................... typedef struct { 
....................    signed int quot; 
....................    signed int rem; 
.................... } div_t; 
....................  
.................... typedef struct { 
....................    signed long quot; 
....................    signed long rem; 
.................... } ldiv_t; 
....................  
.................... #include <stddef.h> 
.................... /////////////////////////////////////////////////////////////////////////// 
.................... ////        (C) Copyright 1996,2003 Custom Computer Services           //// 
.................... //// This source code may only be used by licensed users of the CCS C  //// 
.................... //// compiler.  This source code may only be distributed to other      //// 
.................... //// licensed users of the CCS C compiler.  No other use, reproduction //// 
.................... //// or distribution is permitted without written permission.          //// 
.................... //// Derivative programs created using this software in object code    //// 
.................... //// form are not restricted in any way.                               //// 
.................... /////////////////////////////////////////////////////////////////////////// 
....................  
.................... #ifndef _STDDEF 
....................  
.................... #define _STDDEF 
....................  
.................... #if sizeof(unsigned int8 *)==1 
.................... #define ptrdiff_t unsigned int8 
.................... #else 
.................... #define ptrdiff_t unsigned int16 
.................... #endif 
....................  
.................... #if defined(__PCB__) 
.................... #define size_t unsigned int8 
.................... #else 
.................... #define size_t unsigned int16 
.................... #endif 
.................... #define wchar_t char 
.................... #define NULL 0 
....................  
.................... #define offsetof(s,f) (offsetofbit(s,f)/8) 
....................  
.................... #endif 
....................  
....................  
.................... //--------------------------------------------------------------------------- 
.................... // String conversion functions 
.................... //--------------------------------------------------------------------------- 
....................  
.................... /* Standard template: signed int  atoi(char * s) 
....................  * converts the initial portion of the string s to a signed int 
....................  * returns the converted value if any, 0 otherwise 
....................  */ 
.................... signed int atoi(char *s); 
....................  
.................... /* Syntax: signed int32  atoi32(char * s) 
....................    converts the initial portion of the string s to a signed int32 
....................    returns the converted value if any, 0 otherwise*/ 
.................... #if (sizeof(long)==4) 
....................  #define atoi32(s) atol(s) 
.................... #else  
....................  signed int32 atoi32(char *s); 
.................... #endif 
....................  
.................... #if defined(__PCD__) 
.................... // The following functions only work on the 24 bit compiler 
.................... // for the 30F, 33F, 24F and 24H parts 
.................... /* Syntax: signed int48  atoi48(char * s) 
....................    converts the initial portion of the string s to a signed int48 
....................    returns the converted value if any, 0 otherwise*/ 
....................     
.................... signed int48 atoi48(char *s); 
....................  
.................... /* Syntax: signed int64  atoi64(char * s) 
....................    converts the initial portion of the string s to a signed int64 
....................    returns the converted value if any, 0 otherwise*/ 
.................... signed int64 atoi64(char *s); 
.................... #endif 
....................  
.................... /* Syntax: char *  itoa(signed int32 num, int8 base, char * s) 
....................    converts the signed int32 to a string and 
....................    returns the converted value if any, 0 otherwise*/ 
.................... char * itoa(signed int32 num, unsigned int base, char * s); 
....................  
.................... /* Standard template: signed int16  atol(char * s) 
....................  * converts the initial portion of the string s to a signed int16 
....................  * returns the converted value if any, 0 otherwise 
....................  */ 
.................... signed long atol(char *s); 
....................  
.................... /* Standard template: int16 strtoul(char * s,char *endptr,signed int base) 
....................  * converts the initial portion of the string s, represented as an 
....................  * integral value of radix base  to a signed long. 
....................  * Returns the converted value if any, 0 otherwise 
....................  * the final string is returned in the endptr, if endptr is not null 
....................  */ 
.................... signed long strtol(char *s,char *endptr, signed int base); 
....................  
.................... /* Standard template: int16 strtoul(char * s,char *endptr,signed int base) 
....................  * converts the initial portion of the string s, represented as an 
....................  * integral value of radix base to a unsigned long. 
....................  * returns the converted value if any, 0 otherwise 
....................  * the final string is returned in the endptr, if endptr is not null 
....................  */ 
.................... unsigned long strtoul(char *s,char *endptr, signed int base); 
....................  
.................... /* Standart template: float strtof(char * s,char *endptr) 
....................                       float48 strtof48(char *s,char *endptr); 
....................                       float64 strtod(char *s,char *endptr); 
....................  * converts the initial portion of the string s to a float32, float48 or float64, 
....................  * returns the converted value if any, 0 otherwise 
....................  * the final string is returned in the endptr, if endptr is not null                    
.................... */ 
.................... float strtof(char *s,char *endptr); 
.................... #if defined(__PCD__) 
.................... float48 strtof48(char *s,char *endptr); 
.................... float64 strtod(char *s,char *endptr); 
.................... #else 
.................... //provided for compatibility 
.................... #define strtof48(s, e) strtof(s, e) 
.................... #define strtod(s, e) strtof(s, e) 
.................... #endif 
....................  
.................... /* Standard template: float32 atof(char * s) 
....................  * converts the initial portion of the string s to a float. 
....................  * returns the converted value if any, 0 otherwise 
....................  */ 
.................... #define atof(s)   strtof(s, 0) 
....................  
.................... #if defined(__PCD__) 
.................... // The following functions only work on the 24 bit compiler 
.................... // for the 30F, 33F, 24F and 24H parts 
....................  
.................... /* Standard template: float48 atof48(char * s) 
....................  * converts the initial portion of the string s to a float. 
....................  * returns the converted value if any, 0 otherwise 
....................  */ 
.................... #define atof48(s) strtof48(s, 0) 
....................  
.................... /* Standard template: float64 atof64(char * s) 
....................  * converts the initial portion of the string s to a float. 
....................  * returns the converted value if any, 0 otherwise 
....................  */ 
.................... #define atof64(s) strtod(s, 0) 
.................... #endif 
....................  
.................... /* Standard template: float32 atoe(char * s) 
....................  * converts the initial portion of the string s to a float. 
....................  * returns the converted value if any, 0 otherwise 
....................  * also handles E format numbers 
....................  */ 
.................... #if !defined(__PCD__) 
.................... float atoe(char * s); 
.................... #endif 
....................  
.................... #if defined(__PCD__) 
.................... float32 atoe(char * s); 
.................... #endif 
....................  
.................... //--------------------------------------------------------------------------- 
.................... // Pseudo-random sequence generation functions 
.................... //--------------------------------------------------------------------------- 
....................  
.................... /* The rand function computes a sequence of pseudo-random integers in 
....................  * the range 0 to RAND_MAX 
....................  * 
....................  * Parameters: 
....................  *       (none) 
....................  * 
....................  * Returns: 
....................  *       The pseudo-random integer 
....................  */ 
.................... unsigned int16 rand(void); 
....................  
.................... /* The srand function uses the argument as a seed for a new sequence of 
....................  * pseudo-random numbers to be returned by subsequent calls to rand. 
....................  * 
....................  * Parameters: 
....................  *       [in] seed: The seed value to start from. You might need to pass 
....................  * 
....................  * Returns: 
....................  *       (none) 
....................  * 
....................  * Remarks 
....................  *          The srand function sets the starting point for generating 
....................  *       a series of pseudorandom integers. To reinitialize the 
....................  *       generator, use 1 as the seed argument. Any other value for 
....................  *       seed sets the generator to a random starting point. rand 
....................  *       retrieves the pseudorandom numbers that are generated. 
....................  *       Calling rand before any call to srand generates the same 
....................  *       sequence as calling srand with seed passed as 1. 
....................  *          Usually, you need to pass a time here from outer source 
....................  *       so that the numbers will be different every time you run. 
....................  */ 
.................... void srand(unsigned int32 seed); 
....................  
.................... //--------------------------------------------------------------------------- 
.................... // Memory management functions 
.................... //--------------------------------------------------------------------------- 
....................  
.................... // Comming soon 
....................  
.................... //--------------------------------------------------------------------------- 
.................... // Communication with the environment 
.................... //--------------------------------------------------------------------------- 
....................  
.................... /* The function returns 0 always 
....................  */ 
.................... signed int8 system(char *string); 
....................  
.................... //--------------------------------------------------------------------------- 
.................... // Searching and sorting utilities 
.................... //--------------------------------------------------------------------------- 
....................  
.................... /* Performs a binary search of a sorted array.. 
....................  * 
....................  * Parameters: 
....................  *       [in] key: Object to search for 
....................  *       [in] base: Pointer to base of search data 
....................  *       [in] num: Number of elements 
....................  *       [in] width: Width of elements 
....................  *       [in] compare: Function that compares two elements 
....................  * 
....................  * Returns: 
....................  *       bsearch returns a pointer to an occurrence of key in the array pointed 
....................  *       to by base. If key is not found, the function returns NULL. If the 
....................  *       array is not in order or contains duplicate records with identical keys, 
....................  *       the result is unpredictable. 
....................  */ 
.................... //void *bsearch(const void *key, const void *base, size_t num, size_t width, 
.................... //              int (*compare)(const void *, const void *)); 
....................  
.................... /* Performs the shell-metzner sort (not the quick sort algorithm). The contents 
....................  * of the array are sorted into ascending order according to a comparison 
....................  * function pointed to by compar. 
....................  * 
....................  * Parameters: 
....................  *       [in] base: Pointer to base of search data 
....................  *       [in] num: Number of elements 
....................  *       [in] width: Width of elements 
....................  *       [in] compare: Function that compares two elements 
....................  * 
....................  * Returns: 
....................  *       (none) 
....................  */ 
.................... //void *qsort(const void *base, size_t num, size_t width, 
.................... //              int (*compare)(const void *, const void *)); 
....................  
.................... //--------------------------------------------------------------------------- 
.................... // Integer arithmetic functions 
.................... //--------------------------------------------------------------------------- 
....................  
.................... #define labs abs 
....................  
.................... div_t div(signed int numer, signed int denom); 
.................... ldiv_t ldiv(signed long numer, signed long denom); 
....................  
.................... //--------------------------------------------------------------------------- 
.................... // Multibyte character functions 
.................... //--------------------------------------------------------------------------- 
....................  
.................... // Not supported 
....................  
.................... //--------------------------------------------------------------------------- 
.................... // Multibyte string functions 
.................... //--------------------------------------------------------------------------- 
....................  
.................... // Not supported 
....................  
....................  
.................... //--------------------------------------------------------------------------- 
.................... // Internal implementation 
.................... //--------------------------------------------------------------------------- 
....................  
.................... #include <stddef.h> 
.................... /////////////////////////////////////////////////////////////////////////// 
.................... ////        (C) Copyright 1996,2003 Custom Computer Services           //// 
.................... //// This source code may only be used by licensed users of the CCS C  //// 
.................... //// compiler.  This source code may only be distributed to other      //// 
.................... //// licensed users of the CCS C compiler.  No other use, reproduction //// 
.................... //// or distribution is permitted without written permission.          //// 
.................... //// Derivative programs created using this software in object code    //// 
.................... //// form are not restricted in any way.                               //// 
.................... /////////////////////////////////////////////////////////////////////////// 
....................  
.................... #ifndef _STDDEF 
....................  
.................... #define _STDDEF 
....................  
.................... #if sizeof(unsigned int8 *)==1 
.................... #define ptrdiff_t unsigned int8 
.................... #else 
.................... #define ptrdiff_t unsigned int16 
.................... #endif 
....................  
.................... #if defined(__PCB__) 
.................... #define size_t unsigned int8 
.................... #else 
.................... #define size_t unsigned int16 
.................... #endif 
.................... #define wchar_t char 
.................... #define NULL 0 
....................  
.................... #define offsetof(s,f) (offsetofbit(s,f)/8) 
....................  
.................... #endif 
....................  
.................... #include <string.h> 
.................... //////////////////////////////////////////////////////////////////////////// 
.................... ////        (C) Copyright 1996,2008 Custom Computer Services            //// 
.................... //// This source code may only be used by licensed users of the CCS C   //// 
.................... //// compiler.  This source code may only be distributed to other       //// 
.................... //// licensed users of the CCS C compiler.  No other use, reproduction  //// 
.................... //// or distribution is permitted without written permission.           //// 
.................... //// Derivative programs created using this software in object code     //// 
.................... //// form are not restricted in any way.                                //// 
.................... //////////////////////////////////////////////////////////////////////////// 
....................  
.................... #ifndef _STRING 
.................... #define _STRING 
.................... #include <stddef.h> 
.................... /////////////////////////////////////////////////////////////////////////// 
.................... ////        (C) Copyright 1996,2003 Custom Computer Services           //// 
.................... //// This source code may only be used by licensed users of the CCS C  //// 
.................... //// compiler.  This source code may only be distributed to other      //// 
.................... //// licensed users of the CCS C compiler.  No other use, reproduction //// 
.................... //// or distribution is permitted without written permission.          //// 
.................... //// Derivative programs created using this software in object code    //// 
.................... //// form are not restricted in any way.                               //// 
.................... /////////////////////////////////////////////////////////////////////////// 
....................  
.................... #ifndef _STDDEF 
....................  
.................... #define _STDDEF 
....................  
.................... #if sizeof(unsigned int8 *)==1 
.................... #define ptrdiff_t unsigned int8 
.................... #else 
.................... #define ptrdiff_t unsigned int16 
.................... #endif 
....................  
.................... #if defined(__PCB__) 
.................... #define size_t unsigned int8 
.................... #else 
.................... #define size_t unsigned int16 
.................... #endif 
.................... #define wchar_t char 
.................... #define NULL 0 
....................  
.................... #define offsetof(s,f) (offsetofbit(s,f)/8) 
....................  
.................... #endif 
....................  
.................... #include <ctype.h> 
.................... //////////////////////////////////////////////////////////////////////////// 
.................... ////        (C) Copyright 1996,2003 Custom Computer Services            //// 
.................... //// This source code may only be used by licensed users of the CCS C   //// 
.................... //// compiler.  This source code may only be distributed to other       //// 
.................... //// licensed users of the CCS C compiler.  No other use, reproduction  //// 
.................... //// or distribution is permitted without written permission.           //// 
.................... //// Derivative programs created using this software in object code     //// 
.................... //// form are not restricted in any way.                                //// 
.................... //////////////////////////////////////////////////////////////////////////// 
....................  
.................... #ifndef _CTYPE 
.................... #define _CTYPE 
....................  
.................... #define islower(x)  isamong(x,"abcdefghijklmnopqrstuvwxyz") 
.................... #define isupper(x)  isamong(x,"ABCDEFGHIJKLMNOPQRSTUVWXYZ") 
.................... #define isalnum(x)  isamong(x,"0123456789ABCDEFGHIJKLMNOPQRSTUVWXYZabcdefghijklmnopqrstuvwxyz") 
.................... #define isalpha(x)  isamong(x,"ABCDEFGHIJKLMNOPQRSTUVWXYZabcdefghijklmnopqrstuvwxyz") 
.................... #define isdigit(x)  isamong(x,"0123456789") 
.................... #define isspace(x)  ((x)==' ') 
.................... #define isxdigit(x) isamong(x,"0123456789ABCDEFabcdef") 
.................... #define iscntrl(x)  ((x)<' ') 
.................... #define isprint(x)  ((x)>=' ') 
.................... #define isgraph(x)  ((x)>' ') 
.................... #define ispunct(x)  (((x)>' ')&&!isalnum(x)) 
....................  
.................... #endif 
....................  
....................  
....................  
....................  
....................  
.................... ////////////////////////////////////////////// 
.................... //// Uncomment the following define to    //// 
.................... //// allow some functions to use a        //// 
.................... //// quicker algorithm, but use more ROM  //// 
.................... ////                                      //// 
.................... //// #define FASTER_BUT_MORE_ROM          //// 
.................... ////////////////////////////////////////////// 
....................  
....................  
....................  
.................... /*Copying functions*/ 
.................... /* standard template: 
....................    void *memmove(void *s1, void *s2, size_t n). 
....................    Copies max of n characters safely (not following ending '\0') 
....................    from s2 in s1; if s2 has less than n characters, appends 0 */ 
....................  
.................... char *memmove(void *s1,char *s2,size_t n) 
.................... { 
....................    char *sc1; 
....................    char *sc2; 
....................    sc1=s1; 
....................    sc2=s2; 
....................    if(sc2<sc1 && sc1 <sc2 +n) 
....................       for(sc1+=n,sc2+=n;0<n;--n) 
....................          *--sc1=*--sc2; 
....................    else 
....................       for(;0<n;--n) 
....................          *sc1++=*sc2++; 
....................   return s1; 
....................   } 
....................  
.................... /* Standard template: char *strcpy(char *s1, const char *s2) 
....................    copies the string s2 including the null character to s1. 
....................    This is a compiler built in to handle the different address 
....................    spaces */ 
....................  
.................... #define strcopy strcpy 
....................  
.................... /* standard template: 
....................    char *strncpy(char *s1, const char *s2, size_t n). 
....................    Copies max of n characters (not following ending '\0') 
....................    from s2 in s1; if s2 has less than n characters, appends 0 */ 
....................  
.................... char *strncpy(char *s1, char *s2, size_t n) 
.................... { 
....................   char *s; 
....................  
....................   for (s = s1; n > 0 && *s2 != '\0'; n--) 
....................      *s++ = *s2++; 
....................   for (; n > 0; n--) 
....................      *s++ = '\0'; 
....................  
....................   return(s1); 
.................... } 
.................... /***********************************************************/ 
....................  
.................... /*concatenation functions*/ 
.................... /* standard template: char *strcat(char *s1, const char *s2) 
.................... appends s2 to s1*/ 
....................  
.................... char *strcat(char *s1, char *s2) 
.................... { 
....................    char *s; 
....................  
....................    for (s = s1; *s != '\0'; ++s); 
....................    while(*s2 != '\0') 
....................    { 
....................       *s = *s2; 
....................       ++s; 
....................       ++s2; 
....................    } 
....................  
....................    *s = '\0'; 
....................    return(s1); 
.................... } 
.................... /* standard template: char *strncat(char *s1, char *s2,size_t n) 
.................... appends not more than n characters from s2 to s1*/ 
....................  
.................... char *strncat(char *s1, char *s2, size_t n) 
.................... { 
....................    char *s; 
....................  
....................    for (s = s1; *s != '\0'; ++s); 
....................    while(*s2 != '\0' && 0<n) 
....................    { 
....................       *s = *s2; 
....................       ++s; 
....................       ++s2; 
....................       --n; 
....................    } 
....................  
....................    *s = '\0'; 
....................    return(s1); 
.................... } 
....................  
.................... /***********************************************************/ 
....................  
....................  
.................... /*comparison functions*/ 
.................... /* standard template: signed int memcmp(void *s1, void *s2). 
....................    Compares s1 & s2; returns -1 if s1<s2, 0 if s1=s2, 1 if s1>s2 */ 
....................  
.................... signed int8 memcmp(void * s1,char *s2,size_t n) 
.................... { 
.................... char *su1, *su2; 
.................... for(su1=s1, su2=s2; 0<n; ++su1, ++su2, --n) 
.................... { 
....................    if(*su1!=*su2) 
....................       return ((*su1<*su2)?-1:+1); 
.................... } 
.................... return 0; 
.................... } 
....................  
.................... /* standard template: int strcmp(const char *s1, const char *s2). 
....................    Compares s1 & s2; returns -1 if s1<s2, 0 if s1=s2, 1 if s1>s2 */ 
....................  
.................... signed int8 strcmp(char *s1, char *s2) 
.................... { 
....................    for (; *s1 == *s2; s1++, s2++) 
....................       if (*s1 == '\0') 
....................          return(0); 
....................    return((*s1 < *s2) ? -1: 1); 
.................... } 
.................... /* standard template: int strcoll(const char *s1, const char *s2). 
....................    Compares s1 & s2; returns -1 if s1<s2, 0 if s1=s2, 1 if s1>s2 */ 
....................  
.................... signed int8 strcoll(char *s1, char *s2) 
.................... { 
....................    for (; *s1 == *s2; s1++, s2++) 
....................       if (*s1 == '\0') 
....................          return(0); 
....................    return((*s1 < *s2) ? -1: 1); 
.................... } 
....................  
.................... /* standard template: 
....................    int strncmp(const char *s1, const char *s2, size_t n). 
....................    Compares max of n characters (not following 0) from s1 to s2; 
....................    returns same as strcmp */ 
....................  
.................... signed int8 strncmp(char *s1, char *s2, size_t n) 
.................... { 
....................    for (; n > 0; s1++, s2++, n--) 
....................       if (*s1 != *s2) 
....................          return((*s1 <*s2) ? -1: 1); 
....................       else if (*s1 == '\0') 
....................          return(0); 
....................    return(0); 
.................... } 
.................... /* standard template: 
....................    int strxfrm(const char *s1, const char *s2, size_t n). 
....................    transforms maximum of n characters from s2 and places them into s1*/ 
.................... size_t strxfrm(char *s1, char *s2, size_t n) 
.................... { 
....................   char *s; 
....................   unsigned int8 n1; 
....................   n1=n; 
....................   for (s = s1; n > 0 && *s2 != '\0'; n--) 
....................      *s++ = *s2++; 
....................   for (; n > 0; n--) 
....................      *s++ = '\0'; 
....................  
....................   return(n1); 
.................... } 
....................  
....................  
....................  
....................  
....................  
.................... /***********************************************************/ 
.................... /*Search functions*/ 
.................... /* standard template: void *memchr(const char *s, int c). 
....................    Finds first occurrence of c in n characters of s */ 
....................  
.................... char *memchr(void *s,unsigned int8 c,size_t n) 
.................... { 
....................    char uc; 
....................    char *su; 
....................    uc=c; 
....................    for(su=s;0<n;++su,--n) 
....................       if(*su==uc) 
....................       return su; 
....................    return NULL; 
.................... } 
....................  
.................... /* standard template: char *strchr(const char *s, int c). 
....................    Finds first occurrence of c in s */ 
....................  
.................... char *strchr(char *s, unsigned int8 c) 
.................... { 
....................    for (; *s != c; s++) 
....................       if (*s == '\0') 
....................          return(0); 
....................    return(s); 
.................... } 
.................... /* standard template: 
....................    size_t strcspn(const char *s1, const char *s2). 
....................    Computes length of max initial segment of s1 that 
....................    consists entirely of characters NOT from s2*/ 
....................  
.................... unsigned int8  strcspn(char *s1, char *s2) 
.................... { 
....................    char *sc1, *sc2; 
....................  
....................    for (sc1 = s1; *sc1 != 0; sc1++) 
....................       for (sc2 = s2; *sc2 != 0; sc2++) 
....................          if (*sc1 == *sc2) 
....................             return(sc1 - s1); 
....................    return(sc1 - s1); 
.................... } 
.................... /* standard template: 
....................    char *strpbrk(const char *s1, const char *s2). 
....................    Locates first occurence of any character from s2 in s1; 
....................    returns s1 if s2 is empty string */ 
....................  
.................... char *strpbrk(char *s1, char *s2) 
.................... { 
....................    char *sc1, *sc2; 
....................  
....................    for (sc1 = s1; *sc1 != 0; sc1++) 
....................       for (sc2 = s2; *sc2 != 0; sc2++) 
....................          if (*sc1 == *sc2) 
....................             return(sc1); 
....................    return(0); 
.................... } 
....................  
....................  
.................... /* standard template: char *strrchr(const char *s, int c). 
....................    Finds last occurrence of c in s */ 
....................  
.................... char *strrchr(char *s, unsigned int8 c) 
.................... { 
....................    char *p; 
....................  
....................    for (p = 0; ; s++) 
....................    { 
....................       if (*s == c) 
....................          p = s; 
....................       if (*s == '\0') 
....................          return(p); 
....................    } 
.................... } 
.................... /* computes length of max initial segment of s1 consisting 
....................    entirely of characters from s2 */ 
....................  
.................... unsigned int8  strspn(char *s1, char *s2) 
.................... { 
....................    char *sc1, *sc2; 
....................  
....................    for (sc1 = s1; *sc1 != 0; sc1++) 
....................       for (sc2 = s2; ; sc2++) 
....................     if (*sc2 == '\0') 
....................        return(sc1 - s1); 
....................          else if (*sc1 == *sc2) 
....................             break; 
....................    return(sc1 - s1); 
.................... } 
.................... /* standard template: 
....................    char *strstr(const char *s1, const char *s2); 
....................    Locates first occurence of character sequence s2 in s1; 
....................    returns 0 if s2 is empty string 
....................  
....................    Uncomment #define FASTER_BUT_MORE_ROM at the top of the 
....................    file to use the faster algorithm */ 
.................... char *strstr(char *s1, char *s2) 
.................... { 
....................    char *s, *t; 
....................  
....................    #ifdef FASTER_BUT_MORE_ROM 
....................    if (*s2 == '\0') 
....................          return(s1); 
....................    #endif 
....................  
....................    while (*s1) 
....................    { 
....................       for(s = s1, t = s2; *t && (*s == *t); ++s, ++t); 
....................  
....................       if (*t == '\0') 
....................          return s1; 
....................       ++s1; 
....................       #ifdef FASTER_BUT_MORE_ROM 
....................          while(*s1 != '\0' && *s1 != *s2) 
....................             ++s1; 
....................       #endif 
....................    } 
....................    return 0; 
.................... } 
....................  
.................... /* standard template: char *strtok(char *s1, const char *s2). 
....................  
....................    Finds next token in s1 delimited by a character from separator 
....................    string s2 (which can be different from call to call).  First call 
....................    starts at beginning of s1 searching for first character NOT 
....................    contained in s2; returns 0 if none is found. 
....................    If one is found, it is the start of first token (return value). 
....................    Function then searches from there for a character contained in s2. 
....................    If none is found, current token extends to end of s1, and subsequent 
....................    searches for a token will return 0.  If one is found, it is 
....................    overwritten by '\0', which terminates current token.  Function saves 
....................    pointer to following character from which next search will start. 
....................    Each subsequent call, with 0 as first argument, starts searching 
....................    from saved pointer */ 
....................  
.................... char *strtok(char *s1, char *s2) 
.................... { 
....................    char *beg, *end; 
....................    static char *save; 
....................  
....................    beg = (s1)? s1: save; 
....................    beg += strspn(beg, s2); 
....................    if (*beg == '\0') 
....................    { 
....................       *save = ' '; 
....................       return(0); 
....................    } 
....................    end = strpbrk(beg, s2); 
....................    if (*end != '\0') 
....................    { 
....................       *end = '\0'; 
....................       end++; 
....................    } 
....................    save = end; 
....................    return(beg); 
.................... } 
....................  
.................... /*****************************************************************/ 
.................... /*Miscellaneous functions*/ 
.................... /* standard template 
.................... maps error number in errnum to an error message string 
.................... Returns: Pointer to string 
.................... */ 
.................... #ifdef _ERRNO 
.................... char * strerror(unsigned int8 errnum) 
.................... { 
.................... static char s[13]; 
.................... switch( errnum) 
.................... { 
.................... case 0: 
....................    strcpy(s,"no errors"); 
....................    return s; 
.................... case EDOM : 
....................    strcpy(s,"domain error"); 
....................    return s; 
.................... case ERANGE: 
....................    strcpy(s,"range error"); 
....................    return s; 
.................... } 
.................... } 
.................... #ENDIF 
.................... /* standard template: size_t strlen(const char *s). 
....................    Computes length of s1 (preceding terminating 0) */ 
....................  
.................... unsigned int8 strlen(char *s) 
.................... { 
....................    char *sc; 
....................  
....................    for (sc = s; *sc != 0; sc++); 
....................    return(sc - s); 
.................... } 
....................  
.................... /* standard template: size_t stricmp(const char *s1, const char *s2). 
....................    Compares s1 to s2 ignoring case (upper vs. lower) */ 
....................  
.................... signed int8 stricmp(char *s1, char *s2) 
.................... { 
....................  for(; *s1==*s2||(isalpha(*s1)&&isalpha(*s2)&&(*s1==*s2+32||*s2==*s1+32)); 
....................     s1++, s2++) 
....................     if (*s1 == '\0') 
....................        return(0); 
....................  return((*s1 < *s2) ? -1: 1); 
.................... } 
....................  
....................  
.................... /* standard template: char *strlwr(char *s). 
....................    Replaces uppercase letters by lowercase; 
....................    returns pointer to new string s */ 
....................  
.................... char *strlwr(char *s) 
.................... { 
....................    char *p; 
....................  
....................    for (p = s; *p != '\0'; p++) 
....................       if (*p >= 'A' && *p <='Z') 
....................          *p += 'a' - 'A'; 
....................    return(s); 
.................... } 
....................  
.................... /* standard template: char *strupr(char *s). 
....................    Replaces lowercase letters by upercase; 
....................    returns pointer to new string s */ 
....................  
.................... char *strupr(char *s) 
.................... { 
....................    char *p; 
....................  
....................    for (p = s; *p != '\0'; p++) 
....................       if (*p >= 'a' && *p <='z') 
....................          *p -= 'a' - 'A'; 
....................    return(s); 
.................... } 
....................  
....................  
.................... /************************************************************/ 
....................  
....................  
.................... #endif 
....................  
....................  
.................... div_t div(signed int numer, signed int denom) 
.................... { 
....................    div_t val; 
....................    val.quot = numer / denom; 
....................    val.rem = numer - (denom * val.quot); 
....................    return (val); 
.................... } 
....................  
.................... ldiv_t ldiv(signed long numer, signed long denom) 
.................... { 
....................    ldiv_t val; 
....................  
....................    val.quot = numer / denom; 
....................    val.rem = numer - (denom * val.quot); 
....................    return (val); 
.................... } 
....................  
.................... #if defined(__PCD__) 
.................... float32 atoe(char * s) 
.................... { 
....................    float32 pow10 = 1.0; 
....................    float32 result = 0.0; 
....................    unsigned int8 sign = 0; 
....................    unsigned int8 expsign = 0; 
....................    char c; 
....................    unsigned int8 ptr = 0; 
....................    unsigned int8 i; 
....................    float32 exp = 1.0; 
....................    unsigned int8 expcnt = 0; 
....................  
....................    c = s[ptr++]; 
....................  
....................    if ((c>='0' && c<='9') || c=='+' || c=='-' || c=='.' || c=='E' || c=='e') { 
....................       if(c == '-') { 
....................          sign = 1; 
....................          c = s[ptr++]; 
....................       } 
....................       if(c == '+') 
....................          c = s[ptr++]; 
....................  
....................       while((c >= '0' && c <= '9')) { 
....................          result = 10*result + c - '0'; 
....................          c = s[ptr++]; 
....................       } 
....................  
....................       if (c == '.') { 
....................          c = s[ptr++]; 
....................          while((c >= '0' && c <= '9')) { 
....................              pow10 = pow10*10; 
....................              result += (c - '0')/pow10; 
....................              c = s[ptr++]; 
....................          } 
....................       } 
....................  
....................       // Handling the exponent 
....................       if (c=='e' || c=='E') { 
....................          c = s[ptr++]; 
....................  
....................          if(c == '-') { 
....................             expsign = 1; 
....................             c = s[ptr++]; 
....................          } 
....................          if(c == '+') 
....................             c = s[ptr++]; 
....................  
....................          while((c >= '0' && c <= '9')) { 
....................             expcnt = 10*expcnt + c - '0'; 
....................             c = s[ptr++]; 
....................          } 
....................  
....................          for(i=0;i<expcnt;i++) 
....................             exp*=10; 
....................  
....................          if(expsign==1) 
....................             result/=exp; 
....................          else 
....................             result*=exp; 
....................       } 
....................    } 
....................  
....................    if (sign == 1) 
....................       result = -1*result; 
....................    return(result); 
.................... } 
.................... #endif 
....................  
.................... #if !defined(__PCD__) 
.................... float atoe(char * s) 
.................... { 
....................    float pow10 = 1.0; 
....................    float result = 0.0; 
....................    unsigned int8 sign = 0; 
....................    unsigned int8 expsign = 0; 
....................    char c; 
....................    unsigned int8 ptr = 0; 
....................    unsigned int8 i; 
....................    float exp = 1.0; 
....................    unsigned int8 expcnt = 0; 
....................  
....................    c = s[ptr++]; 
....................  
....................    if ((c>='0' && c<='9') || c=='+' || c=='-' || c=='.' || c=='E' || c=='e') { 
....................       if(c == '-') { 
....................          sign = 1; 
....................          c = s[ptr++]; 
....................       } 
....................       if(c == '+') 
....................          c = s[ptr++]; 
....................  
....................       while((c >= '0' && c <= '9')) { 
....................          result = 10*result + c - '0'; 
....................          c = s[ptr++]; 
....................       } 
....................  
....................       if (c == '.') { 
....................          c = s[ptr++]; 
....................          while((c >= '0' && c <= '9')) { 
....................              pow10 = pow10*10; 
....................              result += (c - '0')/pow10; 
....................              c = s[ptr++]; 
....................          } 
....................       } 
....................  
....................       // Handling the exponent 
....................       if (c=='e' || c=='E') { 
....................          c = s[ptr++]; 
....................  
....................          if(c == '-') { 
....................             expsign = 1; 
....................             c = s[ptr++]; 
....................          } 
....................          if(c == '+') 
....................             c = s[ptr++]; 
....................  
....................          while((c >= '0' && c <= '9')) { 
....................             expcnt = 10*expcnt + c - '0'; 
....................             c = s[ptr++]; 
....................          } 
....................  
....................          for(i=0;i<expcnt;i++) 
....................             exp*=10; 
....................  
....................          if(expsign==1) 
....................             result/=exp; 
....................          else 
....................             result*=exp; 
....................       } 
....................    } 
....................  
....................    if (sign == 1) 
....................       result = -1*result; 
....................    return(result); 
.................... } 
.................... #endif 
....................  
.................... signed int atoi(char *s) 
.................... { 
....................    signed int result; 
....................    unsigned int sign, base, index; 
....................    char c; 
....................  
....................    index = 0; 
....................    sign = 0; 
....................    base = 10; 
....................    result = 0; 
....................  
....................    if (!s) 
....................       return 0; 
....................    // Omit all preceeding alpha characters 
....................    c = s[index++]; 
....................  
....................    // increase index if either positive or negative sign is detected 
....................    if (c == '-') 
....................    { 
....................       sign = 1;         // Set the sign to negative 
....................       c = s[index++]; 
....................    } 
....................    else if (c == '+') 
....................    { 
....................       c = s[index++]; 
....................    } 
....................  
....................    if (c >= '0' && c <= '9') 
....................    { 
....................  
....................       // Check for hexa number 
....................       if (c == '0' && (s[index] == 'x' || s[index] == 'X')) 
....................       { 
....................          base = 16; 
....................          index++; 
....................          c = s[index++]; 
....................       } 
....................  
....................       // The number is a decimal number 
....................       if (base == 10) 
....................       { 
....................          while (c >= '0' && c <= '9') 
....................          { 
....................             result = 10*result + (c - '0'); 
....................             c = s[index++]; 
....................          } 
....................       } 
....................       else if (base == 16)    // The number is a hexa number 
....................       { 
....................          c = toupper(c); 
....................          while ( (c >= '0' && c <= '9') || (c >= 'A' && c<='F')) 
....................          { 
....................             if (c >= '0' && c <= '9') 
....................                result = (result << 4) + (c - '0'); 
....................             else 
....................                result = (result << 4) + (c - 'A' + 10); 
....................  
....................             c = s[index++]; 
....................             c = toupper(c); 
....................          } 
....................       } 
....................    } 
....................  
....................    if (sign == 1 && base == 10) 
....................        result = -result; 
....................  
....................    return(result); 
.................... } 
....................  
.................... signed long atol(char *s) 
.................... { 
....................    signed long result; 
....................    unsigned int sign, base, index; 
....................    char c; 
....................  
....................    index = 0; 
....................    sign = 0; 
....................    base = 10; 
....................    result = 0; 
....................  
....................    if (!s) 
....................       return 0; 
....................    c = s[index++]; 
....................  
....................    // increase index if either positive or negative sign is detected 
....................    if (c == '-') 
....................    { 
....................       sign = 1;         // Set the sign to negative 
....................       c = s[index++]; 
....................    } 
....................    else if (c == '+') 
....................    { 
....................       c = s[index++]; 
....................    } 
....................  
....................    if (c >= '0' && c <= '9') 
....................    { 
....................       if (c == '0' && (s[index] == 'x' || s[index] == 'X')) 
....................       { 
....................          base = 16; 
....................          index++; 
....................          c = s[index++]; 
....................       } 
....................  
....................       // The number is a decimal number 
....................       if (base == 10) 
....................       { 
....................          while (c >= '0' && c <= '9') 
....................          { 
....................             result = 10*result + (c - '0'); 
....................             c = s[index++]; 
....................          } 
....................       } 
....................       else if (base == 16)    // The number is a hexa number 
....................       { 
....................          c = toupper(c); 
....................          while ( (c >= '0' && c <= '9') || (c >= 'A' && c <='F')) 
....................          { 
....................             if (c >= '0' && c <= '9') 
....................                result = (result << 4) + (c - '0'); 
....................             else 
....................                result = (result << 4) + (c - 'A' + 10); 
....................  
....................             c = s[index++];c = toupper(c); 
....................          } 
....................       } 
....................    } 
....................  
....................    if (base == 10 && sign == 1) 
....................       result = -result; 
....................  
....................    return(result); 
.................... } 
....................  
.................... /* A fast routine to multiply by 10 
....................  */ 
.................... signed int32 mult_with10(int32 num) 
.................... { 
....................    return ( (num << 1) + (num << 3) ); 
.................... } 
....................  
.................... #if sizeof(long)==2 
.................... signed int32 atoi32(char *s) 
.................... { 
....................    signed int32 result; 
....................    int8 sign, base, index; 
....................    char c; 
....................  
....................    index = 0; 
....................    sign = 0; 
....................    base = 10; 
....................    result = 0; 
....................  
....................    if (!s) 
....................       return 0; 
....................    c = s[index++]; 
....................  
....................    // increase index if either positive or negative sign is detected 
....................    if (c == '-') 
....................    { 
....................       sign = 1;         // Set the sign to negative 
....................       c = s[index++]; 
....................    } 
....................    else if (c == '+') 
....................    { 
....................       c = s[index++]; 
....................    } 
....................  
....................    if (c >= '0' && c <= '9') 
....................    { 
....................       if (c == '0' && (s[index] == 'x' || s[index] == 'X')) 
....................       { 
....................          base = 16; 
....................          index++; 
....................          c = s[index++]; 
....................       } 
....................  
....................       // The number is a decimal number 
....................       if (base == 10) 
....................       { 
....................          while (c >= '0' && c <= '9') { 
....................             result = (result << 1) + (result << 3);  // result *= 10; 
....................             result += (c - '0'); 
....................             c = s[index++]; 
....................          } 
....................       } 
....................       else if (base == 16)    // The number is a hexa number 
....................       { 
....................          c = toupper(c); 
....................          while ((c >= '0' && c <= '9') || (c >= 'A' && c <='F')) 
....................          { 
....................             if (c >= '0' && c <= '9') 
....................                result = (result << 4) + (c - '0'); 
....................             else 
....................                result = (result << 4) + (c - 'A' + 10); 
....................  
....................             c = s[index++];c = toupper(c); 
....................          } 
....................       } 
....................    } 
....................  
....................    if (base == 10 && sign == 1) 
....................       result = -result; 
....................  
....................    return(result); 
.................... } 
.................... #endif 
....................  
.................... #if defined(__PCD__) 
....................  
.................... signed int48 atoi48(char *s) 
.................... { 
....................    signed int48 result; 
....................    int8 sign, base, index; 
....................    char c; 
....................  
....................    index = 0; 
....................    sign = 0; 
....................    base = 10; 
....................    result = 0; 
....................  
....................    if (!s) 
....................       return 0; 
....................    c = s[index++]; 
....................  
....................    // increase index if either positive or negative sign is detected 
....................    if (c == '-') 
....................    { 
....................       sign = 1;         // Set the sign to negative 
....................       c = s[index++]; 
....................    } 
....................    else if (c == '+') 
....................    { 
....................       c = s[index++]; 
....................    } 
....................  
....................    if (c >= '0' && c <= '9') 
....................    { 
....................       if (c == '0' && (s[index] == 'x' || s[index] == 'X')) 
....................       { 
....................          base = 16; 
....................          index++; 
....................          c = s[index++]; 
....................       } 
....................  
....................       // The number is a decimal number 
....................       if (base == 10) 
....................       { 
....................          while (c >= '0' && c <= '9') { 
....................             result = (result << 1) + (result << 3);  // result *= 10; 
....................             result += (c - '0'); 
....................             c = s[index++]; 
....................          } 
....................       } 
....................       else if (base == 16)    // The number is a hexa number 
....................       { 
....................          c = toupper(c); 
....................          while ((c >= '0' && c <= '9') || (c >= 'A' && c <='F')) 
....................          { 
....................             if (c >= '0' && c <= '9') 
....................                result = (result << 4) + (c - '0'); 
....................             else 
....................                result = (result << 4) + (c - 'A' + 10); 
....................  
....................             c = s[index++];c = toupper(c); 
....................          } 
....................       } 
....................    } 
....................  
....................    if (base == 10 && sign == 1) 
....................       result = -result; 
....................  
....................    return(result); 
.................... } 
....................  
.................... signed int64 atoi64(char *s) 
.................... { 
....................    signed int64 result; 
....................    int8 sign, base, index; 
....................    char c; 
....................  
....................    index = 0; 
....................    sign = 0; 
....................    base = 10; 
....................    result = 0; 
....................  
....................    if (!s) 
....................       return 0; 
....................    c = s[index++]; 
....................  
....................    // increase index if either positive or negative sign is detected 
....................    if (c == '-') 
....................    { 
....................       sign = 1;         // Set the sign to negative 
....................       c = s[index++]; 
....................    } 
....................    else if (c == '+') 
....................    { 
....................       c = s[index++]; 
....................    } 
....................  
....................    if (c >= '0' && c <= '9') 
....................    { 
....................       if (c == '0' && (s[index] == 'x' || s[index] == 'X')) 
....................       { 
....................          base = 16; 
....................          index++; 
....................          c = s[index++]; 
....................       } 
....................  
....................       // The number is a decimal number 
....................       if (base == 10) 
....................       { 
....................          while (c >= '0' && c <= '9') { 
....................             result = (result << 1) + (result << 3);  // result *= 10; 
....................             result += (c - '0'); 
....................             c = s[index++]; 
....................          } 
....................       } 
....................       else if (base == 16)    // The number is a hexa number 
....................       { 
....................          c = toupper(c); 
....................          while ((c >= '0' && c <= '9') || (c >= 'A' && c <='F')) 
....................          { 
....................             if (c >= '0' && c <= '9') 
....................                result = (result << 4) + (c - '0'); 
....................             else 
....................                result = (result << 4) + (c - 'A' + 10); 
....................  
....................             c = s[index++];c = toupper(c); 
....................          } 
....................       } 
....................    } 
....................  
....................    if (base == 10 && sign == 1) 
....................       result = -result; 
....................  
....................    return(result); 
.................... } 
.................... #endif 
....................  
.................... char * itoa(signed int32 num, unsigned int base, char * s) 
.................... { 
....................      unsigned int32 temp=1; 
....................      unsigned int8 i,sign=0,cnt=0; 
....................      char c; 
....................  
....................      if(num<0) { 
....................          sign=1;        // Check for negative number 
....................          num*=-1; 
....................      } 
....................  
....................      while(temp>0) { 
....................          temp=(num/base); 
....................          s[cnt]=(num%base)+'0';    // Conversion 
....................  
....................          if(s[cnt]>0x39) 
....................             s[cnt]+=0x7; 
....................  
....................          cnt++; 
....................          num=temp; 
....................      } 
....................  
....................      if(sign==1) { 
....................          s[cnt]=0x2D;      // Negative sign 
....................          cnt++; 
....................      } 
....................  
....................      for(i = 0;i<(int8)(cnt/2);i++) { 
....................  
....................          c=s[i]; 
....................          s[i]=s[cnt-i-1];        // Reverse the number 
....................          s[cnt-i-1]=c; 
....................      } 
....................      s[cnt]='\0';     // End the string 
....................      return s; 
.................... } 
....................  
.................... #if defined(__PCD__) 
....................  
.................... char * itoa(signed int48 num, unsigned int base, char * s) 
.................... { 
....................      unsigned int48 temp=1; 
....................      unsigned int8 i,sign=0,cnt=0; 
....................      char c; 
....................  
....................      if(num<0) { 
....................          sign=1;        // Check for negative number 
....................          num*=-1; 
....................      } 
....................  
....................      while(temp>0) { 
....................          temp=(num/base); 
....................          s[cnt]=(num%base)+'0';    // Conversion 
....................  
....................          if(s[cnt]>0x39) 
....................             s[cnt]+=0x7; 
....................  
....................          cnt++; 
....................          num=temp; 
....................      } 
....................  
....................      if(sign==1) { 
....................          s[cnt]=0x2D;      // Negative sign 
....................          cnt++; 
....................      } 
....................  
....................      for(i = 0;i<(int8)(cnt/2);i++) { 
....................  
....................          c=s[i]; 
....................          s[i]=s[cnt-i-1];        // Reverse the number 
....................          s[cnt-i-1]=c; 
....................      } 
....................      s[cnt]='\0';     // End the string 
....................      return s; 
.................... } 
....................  
.................... char * itoa(signed int64 num, unsigned int base, char * s) 
.................... { 
....................      unsigned int64 temp=1; 
....................      unsigned int8 i,sign=0,cnt=0; 
....................      char c; 
....................       
....................      if(num<0) { 
....................          sign=1;        // Check for negative number 
....................          num*=-1;         
....................      } 
....................  
....................      while(temp>0) { 
....................          temp=(num/base); 
....................          s[cnt]=(num%base)+'0';    // Conversion 
....................  
....................          if(s[cnt]>0x39) 
....................             s[cnt]+=0x7; 
....................              
....................          cnt++; 
....................          num=temp; 
....................      } 
....................  
....................      if(sign==1) { 
....................          s[cnt]=0x2D;      // Negative sign 
....................          cnt++; 
....................      } 
....................  
....................      for(i = 0;i<(int8)(cnt/2);i++) { 
....................  
....................          c=s[i]; 
....................          s[i]=s[cnt-i-1];        // Reverse the number 
....................          s[cnt-i-1]=c; 
....................      } 
....................      s[cnt]='\0';     // End the string 
....................      return s; 
.................... } 
....................  
.................... #endif 
....................  
.................... float strtof(char *s, char *endptr) 
.................... { 
....................    float pow10 = 1.0; 
....................    float result = 0.0; 
....................    int1 skip = 1, sign = 0, point = 0; 
....................    char c; 
....................    unsigned int8 ptr = 0; 
....................  
....................    if (!s) 
....................       return 0; 
....................  
....................    for(c=s[ptr++]; c!=0; c=s[ptr++]) 
....................    { 
....................       if (skip && !isspace(c)) 
....................       { 
....................          skip = 0; 
....................          if (c == '+') 
....................          { 
....................             sign = 0; 
....................             continue; 
....................          }             
....................          else if (c == '-') 
....................          { 
....................             sign = 1; 
....................             continue; 
....................          } 
....................       } 
....................       if (!skip && (c == '.') && !point) 
....................          point = 1; 
....................       else if (!skip && isdigit(c)) 
....................       { 
....................          c -= '0'; 
....................          if (point) 
....................          { 
....................             pow10 = pow10 * 10.0; 
....................             result += (float)c / pow10;    
....................          } 
....................          else 
....................          { 
....................             result = 10.0 * result + (float)c; 
....................          } 
....................       } 
....................       else if (!skip) 
....................          break; 
....................    } 
....................  
....................    if (sign) 
....................       result = -1*result; 
....................        
....................    if(endptr) 
....................    { 
....................       if (ptr) { 
....................          ptr--; 
....................        #IF LONG_POINTERS  
....................          *((int16 *)endptr)= s+ptr;  
....................        #ELSE 
....................          *((char *)endptr)=s+ptr; 
....................        #ENDIF 
....................       } 
....................       else 
....................       { 
....................       #IF LONG_POINTERS 
....................       *((int16 *)endptr)= s;  
....................       #ELSE 
....................       *((char *)endptr)=s; 
....................       #ENDIF 
....................       } 
....................    } 
....................  
....................    return(result); 
.................... } 
....................  
.................... #if defined(__PCD__) 
.................... float48 strtof48(char *s, char *endptr) 
.................... { 
....................    float48 pow10 = 1.0; 
....................    float48 result = 0.0; 
....................    int1 skip = 1, sign = 0, point = 0; 
....................    char c; 
....................    unsigned int8 ptr = 0; 
....................  
....................    if (!s) 
....................       return 0; 
....................  
....................    for(c=s[ptr++]; c!=0; c=s[ptr++]) 
....................    { 
....................       if (skip && !isspace(c)) 
....................       { 
....................          skip = 0; 
....................          if (c == '+') 
....................          { 
....................             sign = 0; 
....................             continue; 
....................          }             
....................          else if (c == '-') 
....................          { 
....................             sign = 1; 
....................             continue; 
....................          } 
....................       } 
....................       if (!skip && (c == '.') && !point) 
....................          point = 1; 
....................       else if (!skip && isdigit(c)) 
....................       { 
....................          c -= '0'; 
....................          if (point) 
....................          { 
....................             pow10 = pow10 * 10.0; 
....................             result += (float48)c / pow10;    
....................          } 
....................          else 
....................          { 
....................             result = 10.0 * result + (float48)c; 
....................          } 
....................       } 
....................       else if (!skip) 
....................          break; 
....................    } 
....................  
....................    if (sign) 
....................       result = -1*result; 
....................        
....................    if(endptr) 
....................    { 
....................       if (ptr) { 
....................          ptr--; 
....................        #IF LONG_POINTERS  
....................          *((int16 *)endptr)= s+ptr;  
....................        #ELSE 
....................          *((char *)endptr)=s+ptr; 
....................        #ENDIF 
....................       } 
....................       else 
....................       { 
....................       #IF LONG_POINTERS 
....................       *((int16 *)endptr)= s;  
....................       #ELSE 
....................       *((char *)endptr)=s; 
....................       #ENDIF 
....................       } 
....................    } 
....................  
....................    return(result); 
.................... } 
....................  
.................... float64 strtod(char *s, char *endptr) 
.................... { 
....................    float64 pow10 = 1.0; 
....................    float64 result = 0.0; 
....................    int1 skip = 1, sign = 0, point = 0; 
....................    char c; 
....................    unsigned int8 ptr = 0; 
....................  
....................    if (!s) 
....................       return 0; 
....................  
....................    for(c=s[ptr++]; c!=0; c=s[ptr++]) 
....................    { 
....................       if (skip && !isspace(c)) 
....................       { 
....................          skip = 0; 
....................          if (c == '+') 
....................          { 
....................             sign = 0; 
....................             continue; 
....................          }             
....................          else if (c == '-') 
....................          { 
....................             sign = 1; 
....................             continue; 
....................          } 
....................       } 
....................       if (!skip && (c == '.') && !point) 
....................          point = 1; 
....................       else if (!skip && isdigit(c)) 
....................       { 
....................          c -= '0'; 
....................          if (point) 
....................          { 
....................             pow10 = pow10 * 10.0; 
....................             result += (float64)c / pow10;    
....................          } 
....................          else 
....................          { 
....................             result = 10.0 * result + (float64)c; 
....................          } 
....................       } 
....................       else if (!skip) 
....................          break; 
....................    } 
....................  
....................    if (sign) 
....................       result = -1*result; 
....................        
....................    if(endptr) 
....................    { 
....................       if (ptr) { 
....................          ptr--; 
....................        #IF LONG_POINTERS  
....................          *((int16 *)endptr)= s+ptr;  
....................        #ELSE 
....................          *((char *)endptr)=s+ptr; 
....................        #ENDIF 
....................       } 
....................       else 
....................       { 
....................       #IF LONG_POINTERS 
....................       *((int16 *)endptr)= s;  
....................       #ELSE 
....................       *((char *)endptr)=s; 
....................       #ENDIF 
....................       } 
....................    } 
....................  
....................    return(result); 
.................... } 
.................... #endif 
....................  
.................... unsigned long strtoul(char *s, char *endptr, signed int base) 
.................... { 
....................    char *sc,*s1,*sd; 
....................    unsigned long x=0; 
....................    char sign; 
....................    char digits[]="0123456789abcdefghijklmnopqstuvwxyz"; 
....................    for(sc=s;isspace(*sc);++sc); 
....................    sign=*sc=='-'||*sc=='+'?*sc++:'+'; 
....................    if(sign=='-' || base <0 || base ==1|| base >36) // invalid base 
....................    goto StrtoulGO; 
....................  
....................    else if (base) 
....................    { 
....................       if(base==16 && *sc =='0'&&(sc[1]=='x' || sc[1]=='X')) 
....................          sc+=2; 
....................       if(base==8 && *sc =='0') 
....................          sc+=1; 
....................       if(base==2 && *sc =='0'&&sc[1]=='b') 
....................          sc+=2; 
....................  
....................    } 
....................    else if(*sc!='0') // base is 0, find base 
....................       base=10; 
....................    else if (sc[1]=='x' || sc[1]=='X') 
....................       base =16,sc+=2; 
....................    else if(sc[1]=='b') 
....................       base=2,sc+=2; 
....................    else 
....................       base=8; 
....................    for (s1=sc;*sc=='0';++sc);// skip leading zeroes 
....................    sd=memchr(digits,tolower(*sc),base); 
....................    for(; sd!=0; ) 
....................    { 
....................       x=x*base+(int16)(sd-digits); 
....................       ++sc; 
....................       sd=memchr(digits,tolower(*sc),base); 
....................    } 
....................    if(s1==sc) 
....................    { 
....................    StrtoulGO: 
....................       if (endptr) 
....................       { 
....................          #IF LONG_POINTERS 
....................          *((int16 *)endptr)= s;  
....................          #ELSE 
....................          *((char *)endptr)=s; 
....................          #ENDIF 
....................          } 
....................    return 0; 
....................    } 
....................    if (endptr) 
....................    { 
....................          #IF LONG_POINTERS 
....................          *((int16 *)endptr)= sc;  
....................          #ELSE 
....................          *((char *)endptr)=sc;  
....................          #ENDIF 
....................    } 
....................    return x; 
.................... } 
....................  
....................  
.................... signed long strtol(char *s,char *endptr, signed int base) 
.................... { 
....................    char *sc,*s1,*sd; 
....................    signed long x=0; 
....................    char sign; 
....................    char digits[]="0123456789abcdefghijklmnopqstuvwxyz"; 
....................    for(sc=s;isspace(*sc);++sc); 
....................    sign=*sc=='-'||*sc=='+'?*sc++:'+'; 
....................    if (base <0 || base ==1|| base >36) // invalid base 
....................    goto StrtolGO; 
....................    else if (base) 
....................    { 
....................       if(base==16 && *sc =='0'&&(sc[1]=='x' || sc[1]=='X')) 
....................          sc+=2; 
....................       if(base==8 && *sc =='0') 
....................          sc+=1; 
....................       if(base==2 && *sc =='0'&&sc[1]=='b') 
....................          sc+=2; 
....................  
....................    } 
....................    else if(*sc!='0') // base is 0, find base 
....................       base=10; 
....................    else if (sc[1]=='x' || sc[1]=='X') 
....................       base =16,sc+=2; 
....................    else if(sc[1]=='b') 
....................       base=2,sc+=2; 
....................    else 
....................       base=8; 
....................    for (s1=sc;*sc=='0';++sc);// skip leading zeroes 
....................  
....................    sd=memchr(digits,tolower(*sc),base); 
....................    for(;sd!=0;) 
....................    { 
....................       x=x*base+(int16)(sd-digits); 
....................       ++sc; 
....................       sd=memchr(digits,tolower(*sc),base); 
....................    } 
....................    if(s1==sc) 
....................    { 
....................    StrtolGO: 
....................       if (endptr) 
....................       { 
....................          #IF LONG_POINTERS 
....................          *((int16 *)endptr)= s;  
....................          #ELSE 
....................          *((char *)endptr)=s; 
....................          #ENDIF 
....................       } 
....................    return 0; 
....................    } 
....................    if(sign=='-') 
....................       x  =-x; 
....................    if (endptr) 
....................    { 
....................         #IF LONG_POINTERS 
....................          *((int16 *)endptr)= sc;  
....................         #ELSE 
....................         *((char *)endptr)=sc; 
....................         #ENDIF 
....................    } 
....................    return x; 
.................... } 
....................  
.................... signed int8 system(char *string) 
.................... { 
....................    return 0; 
.................... } 
....................  
.................... int8 mblen(char *s,size_t n) 
.................... { 
....................    return strlen(s); 
.................... } 
....................  
.................... int8 mbtowc(wchar_t *pwc,char *s,size_t n) 
.................... { 
....................    *pwc=*s; 
....................    return 1; 
.................... } 
....................  
.................... int8 wctomb(char *s,wchar_t wchar) 
.................... { 
....................    *s=wchar; 
....................    return 1; 
.................... } 
....................  
.................... size_t mbstowcs(wchar_t *pwcs,char *s,size_t n) 
.................... { 
....................    strncpy(pwcs,s,n); 
....................    return strlen(pwcs); 
.................... } 
....................  
.................... size_t wcstombs(char *s,wchar_t *pwcs,size_t n) 
.................... { 
....................    strncpy(s,pwcs,n); 
....................    return strlen(s); 
.................... } 
....................  
.................... //--------------------------------------------------------------------------- 
.................... // The random number implementation 
.................... //--------------------------------------------------------------------------- 
....................  
.................... unsigned int32 _Randseed; 
....................  
.................... unsigned int16 rand(void) 
.................... { 
....................    _Randseed = _Randseed * 1103515245 + 12345; 
....................    return ((unsigned int16)(_Randseed >> 16) % RAND_MAX); 
.................... } 
....................  
.................... void srand(unsigned int32 seed) 
.................... { 
....................    _Randseed = seed; 
.................... } 
....................  
.................... //--------------------------------------------------------------------------- 
.................... // Searching and sorting utilities implementation 
.................... //--------------------------------------------------------------------------- 
....................  
.................... #if !defined(__PCD__) 
.................... typedef signed int8 (*_Cmpfun)(char * p1,char * p2);  
.................... #else  
.................... typedef signed int16 (*_Cmpfun)(char * p1,char * p2);  
.................... #endif 
....................  
....................  
....................  
.................... void qsort(char * qdata, unsigned int qitems, unsigned int qsize, _Cmpfun cmp) { 
....................    unsigned int m,j,i,l; 
....................    int1 done; 
....................    unsigned int8 t[16]; 
....................  
....................    m = qitems/2; 
....................    while( m > 0 ) { 
....................      for(j=0; j<(qitems-m); ++j) { 
....................         i = j; 
....................         do 
....................         { 
....................            done=1; 
....................            l = i+m; 
....................            if( (*cmp)(qdata+i*qsize, qdata+l*qsize) > 0 ) { 
....................               memcpy(t, qdata+i*qsize, qsize); 
....................               memcpy(qdata+i*qsize, qdata+l*qsize, qsize); 
....................               memcpy(qdata+l*qsize, t, qsize); 
....................               if(m <= i) 
....................                 i -= m; 
....................                 done = 0; 
....................            } 
....................         } while(!done); 
....................      } 
....................      m = m/2; 
....................    } 
.................... } 
....................  
....................  
.................... char *bsearch(char *key, char *base, size_t num, size_t width,_Cmpfun cmp) 
.................... { 
....................    char *p, *q; 
....................    size_t n; 
....................    size_t pivot; 
....................    signed int val; 
....................  
....................    p = base; 
....................    n = num; 
....................  
....................    while (n > 0) 
....................    { 
....................       pivot = n >> 1; 
....................       q = p + width * pivot; 
....................  
....................       val = (*cmp)(key, q); 
....................  
....................       if (val < 0) 
....................          n = pivot; 
....................       else if (val == 0) 
....................          return ((char *)q); 
....................       else { 
....................          p = q + width; 
....................          n -= pivot + 1; 
....................       } 
....................    } 
....................  
....................    return NULL;      // There's no match 
.................... } 
....................  
....................  
.................... #endif 
....................  
.................... #include <string.h> 
.................... //////////////////////////////////////////////////////////////////////////// 
.................... ////        (C) Copyright 1996,2008 Custom Computer Services            //// 
.................... //// This source code may only be used by licensed users of the CCS C   //// 
.................... //// compiler.  This source code may only be distributed to other       //// 
.................... //// licensed users of the CCS C compiler.  No other use, reproduction  //// 
.................... //// or distribution is permitted without written permission.           //// 
.................... //// Derivative programs created using this software in object code     //// 
.................... //// form are not restricted in any way.                                //// 
.................... //////////////////////////////////////////////////////////////////////////// 
....................  
.................... #ifndef _STRING 
.................... #define _STRING 
.................... #include <stddef.h> 
.................... #include <ctype.h> 
....................  
....................  
....................  
.................... ////////////////////////////////////////////// 
.................... //// Uncomment the following define to    //// 
.................... //// allow some functions to use a        //// 
.................... //// quicker algorithm, but use more ROM  //// 
.................... ////                                      //// 
.................... //// #define FASTER_BUT_MORE_ROM          //// 
.................... ////////////////////////////////////////////// 
....................  
....................  
....................  
.................... /*Copying functions*/ 
.................... /* standard template: 
....................    void *memmove(void *s1, void *s2, size_t n). 
....................    Copies max of n characters safely (not following ending '\0') 
....................    from s2 in s1; if s2 has less than n characters, appends 0 */ 
....................  
.................... char *memmove(void *s1,char *s2,size_t n) 
.................... { 
....................    char *sc1; 
....................    char *sc2; 
....................    sc1=s1; 
....................    sc2=s2; 
....................    if(sc2<sc1 && sc1 <sc2 +n) 
....................       for(sc1+=n,sc2+=n;0<n;--n) 
....................          *--sc1=*--sc2; 
....................    else 
....................       for(;0<n;--n) 
....................          *sc1++=*sc2++; 
....................   return s1; 
....................   } 
....................  
.................... /* Standard template: char *strcpy(char *s1, const char *s2) 
....................    copies the string s2 including the null character to s1. 
....................    This is a compiler built in to handle the different address 
....................    spaces */ 
....................  
.................... #define strcopy strcpy 
....................  
.................... /* standard template: 
....................    char *strncpy(char *s1, const char *s2, size_t n). 
....................    Copies max of n characters (not following ending '\0') 
....................    from s2 in s1; if s2 has less than n characters, appends 0 */ 
....................  
.................... char *strncpy(char *s1, char *s2, size_t n) 
.................... { 
....................   char *s; 
....................  
....................   for (s = s1; n > 0 && *s2 != '\0'; n--) 
....................      *s++ = *s2++; 
....................   for (; n > 0; n--) 
....................      *s++ = '\0'; 
....................  
....................   return(s1); 
.................... } 
.................... /***********************************************************/ 
....................  
.................... /*concatenation functions*/ 
.................... /* standard template: char *strcat(char *s1, const char *s2) 
.................... appends s2 to s1*/ 
....................  
.................... char *strcat(char *s1, char *s2) 
.................... { 
....................    char *s; 
....................  
....................    for (s = s1; *s != '\0'; ++s); 
....................    while(*s2 != '\0') 
....................    { 
....................       *s = *s2; 
....................       ++s; 
....................       ++s2; 
....................    } 
....................  
....................    *s = '\0'; 
....................    return(s1); 
.................... } 
.................... /* standard template: char *strncat(char *s1, char *s2,size_t n) 
.................... appends not more than n characters from s2 to s1*/ 
....................  
.................... char *strncat(char *s1, char *s2, size_t n) 
.................... { 
....................    char *s; 
....................  
....................    for (s = s1; *s != '\0'; ++s); 
....................    while(*s2 != '\0' && 0<n) 
....................    { 
....................       *s = *s2; 
....................       ++s; 
....................       ++s2; 
....................       --n; 
....................    } 
....................  
....................    *s = '\0'; 
....................    return(s1); 
.................... } 
....................  
.................... /***********************************************************/ 
....................  
....................  
.................... /*comparison functions*/ 
.................... /* standard template: signed int memcmp(void *s1, void *s2). 
....................    Compares s1 & s2; returns -1 if s1<s2, 0 if s1=s2, 1 if s1>s2 */ 
....................  
.................... signed int8 memcmp(void * s1,char *s2,size_t n) 
.................... { 
.................... char *su1, *su2; 
.................... for(su1=s1, su2=s2; 0<n; ++su1, ++su2, --n) 
.................... { 
....................    if(*su1!=*su2) 
....................       return ((*su1<*su2)?-1:+1); 
.................... } 
.................... return 0; 
.................... } 
....................  
.................... /* standard template: int strcmp(const char *s1, const char *s2). 
....................    Compares s1 & s2; returns -1 if s1<s2, 0 if s1=s2, 1 if s1>s2 */ 
....................  
.................... signed int8 strcmp(char *s1, char *s2) 
.................... { 
....................    for (; *s1 == *s2; s1++, s2++) 
....................       if (*s1 == '\0') 
....................          return(0); 
....................    return((*s1 < *s2) ? -1: 1); 
.................... } 
.................... /* standard template: int strcoll(const char *s1, const char *s2). 
....................    Compares s1 & s2; returns -1 if s1<s2, 0 if s1=s2, 1 if s1>s2 */ 
....................  
.................... signed int8 strcoll(char *s1, char *s2) 
.................... { 
....................    for (; *s1 == *s2; s1++, s2++) 
....................       if (*s1 == '\0') 
....................          return(0); 
....................    return((*s1 < *s2) ? -1: 1); 
.................... } 
....................  
.................... /* standard template: 
....................    int strncmp(const char *s1, const char *s2, size_t n). 
....................    Compares max of n characters (not following 0) from s1 to s2; 
....................    returns same as strcmp */ 
....................  
.................... signed int8 strncmp(char *s1, char *s2, size_t n) 
.................... { 
....................    for (; n > 0; s1++, s2++, n--) 
....................       if (*s1 != *s2) 
....................          return((*s1 <*s2) ? -1: 1); 
....................       else if (*s1 == '\0') 
....................          return(0); 
....................    return(0); 
.................... } 
.................... /* standard template: 
....................    int strxfrm(const char *s1, const char *s2, size_t n). 
....................    transforms maximum of n characters from s2 and places them into s1*/ 
.................... size_t strxfrm(char *s1, char *s2, size_t n) 
.................... { 
....................   char *s; 
....................   unsigned int8 n1; 
....................   n1=n; 
....................   for (s = s1; n > 0 && *s2 != '\0'; n--) 
....................      *s++ = *s2++; 
....................   for (; n > 0; n--) 
....................      *s++ = '\0'; 
....................  
....................   return(n1); 
.................... } 
....................  
....................  
....................  
....................  
....................  
.................... /***********************************************************/ 
.................... /*Search functions*/ 
.................... /* standard template: void *memchr(const char *s, int c). 
....................    Finds first occurrence of c in n characters of s */ 
....................  
.................... char *memchr(void *s,unsigned int8 c,size_t n) 
.................... { 
....................    char uc; 
....................    char *su; 
....................    uc=c; 
....................    for(su=s;0<n;++su,--n) 
....................       if(*su==uc) 
....................       return su; 
....................    return NULL; 
.................... } 
....................  
.................... /* standard template: char *strchr(const char *s, int c). 
....................    Finds first occurrence of c in s */ 
....................  
.................... char *strchr(char *s, unsigned int8 c) 
.................... { 
....................    for (; *s != c; s++) 
....................       if (*s == '\0') 
....................          return(0); 
....................    return(s); 
.................... } 
.................... /* standard template: 
....................    size_t strcspn(const char *s1, const char *s2). 
....................    Computes length of max initial segment of s1 that 
....................    consists entirely of characters NOT from s2*/ 
....................  
.................... unsigned int8  strcspn(char *s1, char *s2) 
.................... { 
....................    char *sc1, *sc2; 
....................  
....................    for (sc1 = s1; *sc1 != 0; sc1++) 
....................       for (sc2 = s2; *sc2 != 0; sc2++) 
....................          if (*sc1 == *sc2) 
....................             return(sc1 - s1); 
....................    return(sc1 - s1); 
.................... } 
.................... /* standard template: 
....................    char *strpbrk(const char *s1, const char *s2). 
....................    Locates first occurence of any character from s2 in s1; 
....................    returns s1 if s2 is empty string */ 
....................  
.................... char *strpbrk(char *s1, char *s2) 
.................... { 
....................    char *sc1, *sc2; 
....................  
....................    for (sc1 = s1; *sc1 != 0; sc1++) 
....................       for (sc2 = s2; *sc2 != 0; sc2++) 
....................          if (*sc1 == *sc2) 
....................             return(sc1); 
....................    return(0); 
.................... } 
....................  
....................  
.................... /* standard template: char *strrchr(const char *s, int c). 
....................    Finds last occurrence of c in s */ 
....................  
.................... char *strrchr(char *s, unsigned int8 c) 
.................... { 
....................    char *p; 
....................  
....................    for (p = 0; ; s++) 
....................    { 
....................       if (*s == c) 
....................          p = s; 
....................       if (*s == '\0') 
....................          return(p); 
....................    } 
.................... } 
.................... /* computes length of max initial segment of s1 consisting 
....................    entirely of characters from s2 */ 
....................  
.................... unsigned int8  strspn(char *s1, char *s2) 
.................... { 
....................    char *sc1, *sc2; 
....................  
....................    for (sc1 = s1; *sc1 != 0; sc1++) 
....................       for (sc2 = s2; ; sc2++) 
....................     if (*sc2 == '\0') 
....................        return(sc1 - s1); 
....................          else if (*sc1 == *sc2) 
....................             break; 
....................    return(sc1 - s1); 
.................... } 
.................... /* standard template: 
....................    char *strstr(const char *s1, const char *s2); 
....................    Locates first occurence of character sequence s2 in s1; 
....................    returns 0 if s2 is empty string 
....................  
....................    Uncomment #define FASTER_BUT_MORE_ROM at the top of the 
....................    file to use the faster algorithm */ 
.................... char *strstr(char *s1, char *s2) 
.................... { 
....................    char *s, *t; 
....................  
....................    #ifdef FASTER_BUT_MORE_ROM 
....................    if (*s2 == '\0') 
....................          return(s1); 
....................    #endif 
....................  
....................    while (*s1) 
....................    { 
....................       for(s = s1, t = s2; *t && (*s == *t); ++s, ++t); 
....................  
....................       if (*t == '\0') 
....................          return s1; 
....................       ++s1; 
....................       #ifdef FASTER_BUT_MORE_ROM 
....................          while(*s1 != '\0' && *s1 != *s2) 
....................             ++s1; 
....................       #endif 
....................    } 
....................    return 0; 
.................... } 
....................  
.................... /* standard template: char *strtok(char *s1, const char *s2). 
....................  
....................    Finds next token in s1 delimited by a character from separator 
....................    string s2 (which can be different from call to call).  First call 
....................    starts at beginning of s1 searching for first character NOT 
....................    contained in s2; returns 0 if none is found. 
....................    If one is found, it is the start of first token (return value). 
....................    Function then searches from there for a character contained in s2. 
....................    If none is found, current token extends to end of s1, and subsequent 
....................    searches for a token will return 0.  If one is found, it is 
....................    overwritten by '\0', which terminates current token.  Function saves 
....................    pointer to following character from which next search will start. 
....................    Each subsequent call, with 0 as first argument, starts searching 
....................    from saved pointer */ 
....................  
.................... char *strtok(char *s1, char *s2) 
.................... { 
....................    char *beg, *end; 
....................    static char *save; 
....................  
....................    beg = (s1)? s1: save; 
....................    beg += strspn(beg, s2); 
....................    if (*beg == '\0') 
....................    { 
....................       *save = ' '; 
....................       return(0); 
....................    } 
....................    end = strpbrk(beg, s2); 
....................    if (*end != '\0') 
....................    { 
....................       *end = '\0'; 
....................       end++; 
....................    } 
....................    save = end; 
....................    return(beg); 
.................... } 
....................  
.................... /*****************************************************************/ 
.................... /*Miscellaneous functions*/ 
.................... /* standard template 
.................... maps error number in errnum to an error message string 
.................... Returns: Pointer to string 
.................... */ 
.................... #ifdef _ERRNO 
.................... char * strerror(unsigned int8 errnum) 
.................... { 
.................... static char s[13]; 
.................... switch( errnum) 
.................... { 
.................... case 0: 
....................    strcpy(s,"no errors"); 
....................    return s; 
.................... case EDOM : 
....................    strcpy(s,"domain error"); 
....................    return s; 
.................... case ERANGE: 
....................    strcpy(s,"range error"); 
....................    return s; 
.................... } 
.................... } 
.................... #ENDIF 
.................... /* standard template: size_t strlen(const char *s). 
....................    Computes length of s1 (preceding terminating 0) */ 
....................  
.................... unsigned int8 strlen(char *s) 
.................... { 
....................    char *sc; 
....................  
....................    for (sc = s; *sc != 0; sc++); 
....................    return(sc - s); 
.................... } 
....................  
.................... /* standard template: size_t stricmp(const char *s1, const char *s2). 
....................    Compares s1 to s2 ignoring case (upper vs. lower) */ 
....................  
.................... signed int8 stricmp(char *s1, char *s2) 
.................... { 
....................  for(; *s1==*s2||(isalpha(*s1)&&isalpha(*s2)&&(*s1==*s2+32||*s2==*s1+32)); 
....................     s1++, s2++) 
....................     if (*s1 == '\0') 
....................        return(0); 
....................  return((*s1 < *s2) ? -1: 1); 
.................... } 
....................  
....................  
.................... /* standard template: char *strlwr(char *s). 
....................    Replaces uppercase letters by lowercase; 
....................    returns pointer to new string s */ 
....................  
.................... char *strlwr(char *s) 
.................... { 
....................    char *p; 
....................  
....................    for (p = s; *p != '\0'; p++) 
....................       if (*p >= 'A' && *p <='Z') 
....................          *p += 'a' - 'A'; 
....................    return(s); 
.................... } 
....................  
.................... /* standard template: char *strupr(char *s). 
....................    Replaces lowercase letters by upercase; 
....................    returns pointer to new string s */ 
....................  
.................... char *strupr(char *s) 
.................... { 
....................    char *p; 
....................  
....................    for (p = s; *p != '\0'; p++) 
....................       if (*p >= 'a' && *p <='z') 
....................          *p -= 'a' - 'A'; 
....................    return(s); 
.................... } 
....................  
....................  
.................... /************************************************************/ 
....................  
....................  
.................... #endif 
....................  
.................... #include <math.h>  
.................... //////////////////////////////////////////////////////////////////////////// 
.................... ////        (C) Copyright 1996,2011 Custom Computer Services            //// 
.................... //// This source code may only be used by licensed users of the CCS C   //// 
.................... //// compiler.  This source code may only be distributed to other       //// 
.................... //// licensed users of the CCS C compiler.  No other use, reproduction  //// 
.................... //// or distribution is permitted without written permission.           //// 
.................... //// Derivative programs created using this software in object code     //// 
.................... //// form are not restricted in any way.                                //// 
.................... //////////////////////////////////////////////////////////////////////////// 
.................... ////                                                                    //// 
.................... //// History:                                                           //// 
.................... ////  * 9/20/2001 :  Improvments are made to sin/cos code.              //// 
.................... ////                 The code now is small, much faster,                //// 
.................... ////                 and more accurate.                                 //// 
.................... ////  * 2/21/2007 :  Compiler handles & operator differently and does   //// 
.................... ////                 not return generic (int8 *) so type cast is done   //// 
.................... ////  * 6/19/2010 :  Divisions by constants converted to multiplication //// 
.................... ////                 by its inverse to improve computation speed        //// 
.................... ////  * 1/21/2011 :  Constants used for double precision math updated   //// 
.................... ////                 Updated routines include 64 bit versions of cos,   //// 
.................... ////                 asin,atan,exp,log and dependant functions          //// 
.................... ////  * 1/31/2011 :  Optimized current 32-bit float routines for cos    //// 
.................... ////                 and log function                                   //// 
.................... ////  * 6/13/2011 :  Fixed PCD overload CEIL_FLOOR functions for values //// 
.................... ////                 greater then 10000000 and less then -10000000      //// 
.................... ////                                                                    //// 
.................... //////////////////////////////////////////////////////////////////////////// 
....................  
.................... #ifndef MATH_H 
.................... #define MATH_H 
....................  
.................... #ifdef PI 
.................... #undef  PI 
.................... #endif 
.................... #define PI     3.1415926535897932 
....................  
....................  
.................... #define SQRT2  1.4142135623730950 
....................  
.................... //float const ps[4] = {5.9304945, 21.125224, 8.9403076, 0.29730279}; 
.................... //float const qs[4] = {1.0000000, 15.035723, 17.764134, 2.4934718}; 
....................  
.................... ///////////////////////////// Round Functions ////////////////////////////// 
....................  
.................... float32 CEIL_FLOOR(float32 x, unsigned int8 n) 
.................... { 
....................    float32 y, res; 
....................    unsigned int16 l; 
....................    int1 s; 
....................  
....................    s = 0; 
....................    y = x; 
....................  
....................    if (x < 0) 
....................    { 
....................       s = 1; 
....................       y = -y; 
....................    } 
....................  
....................    if (y <= 32768.0) 
....................       res = (float32)(unsigned int16)y; 
....................  
....................  else if (y < 10000000.0) 
....................    {  
....................       l = (unsigned int16)(y*0.000030517578125); 
....................       y = 32768.0*(y*0.000030517578125 - (float32)l); 
....................       res = 32768.0*(float32)l; 
....................       res += (float32)(unsigned int16)y; 
....................    } 
....................  
....................  else 
....................   res = y; 
....................  
....................  y = y - (float32)(unsigned int16)y; 
....................  
....................  if (s) 
....................   res = -res; 
....................  
....................  if (y != 0) 
....................  { 
....................   if (s == 1 && n == 0) 
....................    res -= 1.0; 
....................  
....................   if (s == 0 && n == 1) 
....................    res += 1.0; 
....................  } 
....................  if (x == 0) 
....................     res = 0; 
....................  
....................  return (res); 
.................... } 
....................  
.................... // Overloaded Functions to take care for new Data types in PCD 
.................... // Overloaded function CEIL_FLOOR() for data type - Float48 
.................... #if defined(__PCD__) 
.................... float48 CEIL_FLOOR(float48 x, unsigned int8 n) 
.................... { 
....................    float48 y, res; 
....................    unsigned int32 l; 
....................    int1 s; 
....................  
....................    s = 0; 
....................    y = x; 
....................  
....................    if (x < 0) 
....................    { 
....................       s = 1; 
....................       y = -y; 
....................    } 
....................  
....................    if (y <= 32768.0) 
....................       res = (float48)(unsigned int16)y; 
....................  
....................    else if (y < 549755813888.0) 
....................    { 
....................       l = (unsigned int32)(y*0.000030517578125); 
....................       y = 32768.0*(y*0.000030517578125 - (float48)l); 
....................       res = 32768.0*(float48)l; 
....................       res += (float48)(unsigned int16)y; 
....................    } 
....................    else 
....................    {   
....................       res = y; 
....................       y = 0.0; 
....................    } 
....................     
....................    if(y != 0) 
....................       y = y - (float48)(unsigned int16)y; 
....................  
....................    if (s) 
....................       res = -res; 
....................  
....................    if (y != 0) 
....................    { 
....................       if (s == 1 && n == 0) 
....................          res -= 1.0; 
....................  
....................       if (s == 0 && n == 1) 
....................          res += 1.0; 
....................    } 
....................    if (x == 0) 
....................       res = 0; 
....................  
....................    return (res); 
.................... } 
....................  
....................  
.................... // Overloaded function CEIL_FLOOR() for data type - Float64 
.................... float64 CEIL_FLOOR(float64 x, unsigned int8 n) 
.................... { 
....................    float64 y, res; 
....................    int64 l; 
....................    int1 s; 
....................  
....................    s = 0; 
....................    y = x; 
....................  
....................    if (x < 0) 
....................    { 
....................       s = 1; 
....................       y = -y; 
....................    } 
....................  
....................    if (y <= 32768.0) 
....................       res = (float64)(unsigned int16)y; 
....................    else if (y < 4503599627370496.0) 
....................    { 
....................       l = (int64)(y*0.000030517578125); 
....................       y = 32768.0*(y*0.000030517578125 - (float64)l); 
....................       res = 32768.0*(float64)l; 
....................       res += (float64)(unsigned int16)y; 
....................    } 
....................    else 
....................    { 
....................       res = y; 
....................       y = 0.0; 
....................    } 
....................     
....................    if(y != 0) 
....................       y = y - (float64)(unsigned int16)y; 
....................  
....................    if (s) 
....................       res = -res; 
....................  
....................    if (y != 0) 
....................    { 
....................       if (s == 1 && n == 0) 
....................          res -= 1.0; 
....................  
....................       if (s == 0 && n == 1) 
....................          res += 1.0; 
....................    } 
....................     
....................    if (x == 0) 
....................       res = 0; 
....................  
....................    return (res); 
.................... } 
.................... #endif 
....................  
.................... //////////////////////////////////////////////////////////////////////////// 
.................... //   float floor(float x) 
.................... //////////////////////////////////////////////////////////////////////////// 
.................... // Description : rounds down the number x. 
.................... // Date : N/A 
.................... // 
.................... float32 floor(float32 x) 
.................... { 
....................    return CEIL_FLOOR(x,0); 
.................... } 
.................... // Following 2 functions are overloaded functions of floor() for PCD 
.................... // Overloaded function floor() for data type - Float48 
.................... #if defined(__PCD__) 
.................... float48 floor(float48 x) 
.................... { 
....................    return CEIL_FLOOR(x, 0); 
.................... } 
....................  
.................... // Overloaded function floor() for data type - Float64 
.................... float64 floor(float64 x) 
.................... { 
....................    return CEIL_FLOOR(x, 0); 
.................... } 
.................... #endif 
....................  
....................  
.................... //////////////////////////////////////////////////////////////////////////// 
.................... //   float ceil(float x) 
.................... //////////////////////////////////////////////////////////////////////////// 
.................... // Description : rounds up the number x. 
.................... // Date : N/A 
.................... // 
.................... float32 ceil(float32 x) 
.................... { 
....................    return CEIL_FLOOR(x, 1); 
.................... } 
.................... // Following 2 functions are overloaded functions of ceil() for PCD 
.................... // Overloaded function ceil() for data type - Float48 
.................... #if defined(__PCD__) 
.................... float48 ceil(float48 x) 
.................... { 
....................    return CEIL_FLOOR(x, 1); 
.................... } 
....................  
.................... // Overloaded function ceil() for data type - Float64 
.................... float64 ceil(float64 x) 
.................... { 
....................    return CEIL_FLOOR(x, 1); 
.................... } 
.................... #endif 
....................  
....................  //////////////////////////////////////////////////////////////////////////// 
.................... //   float fabs(float x) 
.................... //////////////////////////////////////////////////////////////////////////// 
.................... // Description : Computes the absolute value of floating point number x 
.................... // Returns : returns the absolute value of x 
.................... // Date : N/A 
.................... // 
.................... #define fabs abs 
....................  
.................... //////////////////////////////////////////////////////////////////////////// 
.................... //   float fmod(float x) 
.................... //////////////////////////////////////////////////////////////////////////// 
.................... // Description : Computes the floating point remainder of x/y 
.................... // Returns : returns the value of x= i*y, for some integer i such that, if y 
.................... // is non zero, the result has the same isgn of x na dmagnitude less than the 
.................... // magnitude of y. If y is zero then a domain error occurs. 
.................... // Date : N/A 
.................... // 
....................  
.................... float fmod(float32 x,float32 y) 
.................... { 
....................    float32 i; 
....................    if (y!=0.0) 
....................    { 
....................       i=(x/y < 0.0)? ceil(x/y): floor(x/y); 
....................       return(x-(i*y)); 
....................    } 
....................    else 
....................    { 
....................    #ifdef _ERRNO 
....................    { 
....................       errno=EDOM; 
....................    } 
....................    #endif 
....................    } 
.................... } 
.................... //Overloaded function for fmod() for PCD 
.................... // Overloaded function fmod() for data type - Float48 
.................... #if defined(__PCD__) 
.................... float48 fmod(float48 x,float48 y) 
.................... { 
....................    float48 i; 
....................    if (y!=0.0) 
....................    { 
....................       i=(x/y < 0.0)? ceil(x/y): floor(x/y); 
....................       return(x-(i*y)); 
....................    } 
....................    else 
....................    { 
....................    #ifdef _ERRNO 
....................    { 
....................       errno=EDOM; 
....................    } 
....................    #endif 
....................    } 
.................... } 
.................... // Overloaded function fmod() for data type - Float64 
.................... float64 fmod(float64 x,float64 y) 
.................... { 
....................    float64 i; 
....................    if (y!=0.0) 
....................    { 
....................       i=(x/y < 0.0)? ceil(x/y): floor(x/y); 
....................       return(x-(i*y)); 
....................    } 
....................    else 
....................    { 
....................    #ifdef _ERRNO 
....................    { 
....................       errno=EDOM; 
....................    } 
....................    #endif 
....................    } 
.................... } 
.................... #endif 
.................... //////////////////// Exponential and logarithmic functions //////////////////// 
.................... //////////////////////////////////////////////////////////////////////////// 
.................... //   float exp(float x) 
.................... //////////////////////////////////////////////////////////////////////////// 
.................... // Description : returns the value (e^x) 
.................... // Date : N/A 
.................... // 
.................... #define LN2 0.6931471805599453 
.................... #define LN2_INV 1.4426950408889634073 
....................  
.................... float const pe[6] = {0.000207455774, 0.00127100575, 0.00965065093, 
....................                      0.0554965651,  0.240227138,  0.693147172}; 
....................  
....................  
.................... float32 exp(float32 x) 
.................... { 
....................    float32 y, res, r; 
....................    #if defined(__PCD__) 
....................    int8 data1; 
....................    #endif 
....................    signed int8 n; 
....................    int1 s; 
....................    #ifdef _ERRNO 
....................    if(x > 88.722838) 
....................    { 
....................       errno=ERANGE; 
....................       return(0); 
....................    } 
....................    #endif 
....................    n = (signed int16)(x*LN2_INV); 
....................    s = 0; 
....................    y = x; 
....................  
....................    if (x < 0) 
....................    { 
....................       s = 1; 
....................       n = -n; 
....................       y = -y; 
....................    } 
....................  
....................    res = 0.0; 
.................... #if !defined(__PCD__) 
....................    *((unsigned int8 *)(&res)) = n + 0x7F; 
.................... #endif 
....................  
.................... #if defined(__PCD__)  // Takes care of IEEE format for PCD 
....................    data1 = n+0x7F; 
....................    if(bit_test(data1,0)) 
....................    bit_set(*(((unsigned int8 *)(&res)+2)),7); 
....................    rotate_right(&data1,1); 
....................    bit_clear(data1,7); 
....................    *(((unsigned int8 *)(&res)+3)) = data1; 
.................... #endif 
....................  
....................    y = y*LN2_INV - (float32)n; 
....................  
....................    r = pe[0]*y + pe[1]; 
....................    r = r*y + pe[2]; 
....................    r = r*y + pe[3]; 
....................    r = r*y + pe[4]; 
....................    r = r*y + pe[5]; 
....................  
....................    res = res*(1.0 + y*r); 
....................  
....................    if (s) 
....................       res = 1.0/res; 
....................    return(res); 
.................... } 
....................  
....................  
.................... //Overloaded function for exp() for PCD 
.................... // Overloaded function exp() for data type - Float48 
.................... #if defined(__PCD__) 
.................... float48 exp(float48 x) 
.................... { 
....................    float48 y, res, r; 
....................    int8 data1; 
....................    signed int8 n; 
....................    int1 s; 
....................    #ifdef _ERRNO 
....................    if(x > 88.722838) 
....................    { 
....................       errno=ERANGE; 
....................       return(0); 
....................    } 
....................    #endif 
....................    n = (signed int16)(x*LN2_INV); 
....................    s = 0; 
....................    y = x; 
....................  
....................    if (x < 0) 
....................    { 
....................       s = 1; 
....................       n = -n; 
....................       y = -y; 
....................    } 
....................  
....................    res = 0.0; 
....................  
....................    data1 = n+0x7F; 
....................    if(bit_test(data1,0)) 
....................    bit_set(*(((unsigned int8 *)(&res)+4)),7); 
....................    rotate_right(&data1,1); 
....................    bit_clear(data1,7); 
....................    *(((unsigned int8 *)(&res)+5)) = data1; 
....................  
....................    y = y*LN2_INV - (float48)n; 
....................  
....................    r = pe[0]*y + pe[1]; 
....................    r = r*y + pe[2]; 
....................    r = r*y + pe[3]; 
....................    r = r*y + pe[4]; 
....................    r = r*y + pe[5]; 
....................  
....................    res = res*(1.0 + y*r); 
....................  
....................    if (s) 
....................       res = 1.0/res; 
....................    return(res); 
.................... } 
....................  
.................... // Overloaded function exp() for data type - Float64 
.................... float64 const pe_64[12] ={9.30741400474913e-011,-4.28655416283316e-011, 
....................                           8.71486547014137e-009,9.84458531538385e-008, 
....................                           1.32588296983536e-006,1.52489283823016e-005, 
....................                           0.000154037598423921,0.00133335487036216, 
....................                           0.00961812936407326,0.0555041086222122, 
....................                           0.240226506962827,0.693147180559823}; 
....................  
.................... float64 exp(float64 x) 
.................... { 
....................    float64 y, res, r; 
....................    unsigned int16 data1, data2; 
....................    unsigned int16 *p; 
....................    signed int16 n; 
....................    int1 s; 
....................    #ifdef _ERRNO 
....................    if(x > 709.7827128) 
....................    { 
....................       errno=ERANGE; 
....................       return(0); 
....................    } 
....................    #endif 
....................    y = x*LN2_INV; 
....................    n = (signed int16)y; 
....................    s = 0; 
....................    y = x; 
....................  
....................    if (x < 0) 
....................    { 
....................       s = 1; 
....................       n = -n; 
....................       y = -y; 
....................    } 
....................  
....................    res = 0.0; 
....................  
.................... #if !defined(__PCD__) 
....................    *((unsigned int16 *)(&res)) = n + 0x7F; 
.................... #endif 
....................    p= (((unsigned int16 *)(&res))+3); 
....................    data1 = *p; 
....................    data2 = *p;    
....................    data1 = n + 0x3FF; 
....................    data1 = data1 <<4; 
....................    if(bit_test(data2,15)) 
....................    bit_set(data1,15); 
....................    data2 = data2 & 0x000F; 
....................    data1 ^= data2; 
....................  
....................    *(((unsigned int16 *)(&res)+3)) = data1; 
....................  
....................  
....................    y = y*LN2_INV - (float64)n; 
....................  
....................    r = pe_64[0]*y + pe_64[1]; 
....................    r = r*y + pe_64[2]; 
....................    r = r*y + pe_64[3]; 
....................    r = r*y + pe_64[4]; 
....................    r = r*y + pe_64[5]; 
....................    r = r*y + pe_64[6]; 
....................    r = r*y + pe_64[7]; 
....................    r = r*y + pe_64[8]; 
....................    r = r*y + pe_64[9]; 
....................    r = r*y + pe_64[10]; 
....................    r = r*y + pe_64[11]; 
....................     
....................    res = res*(1.0 + y*r); 
....................  
....................    if (s) 
....................       res = 1.0/res; 
....................    return(res); 
.................... } 
.................... #ENDIF 
....................  
....................  
.................... /************************************************************/ 
....................  
.................... float32 const pl[4] = {-1.080310025160955, 1.999999947089217}; 
.................... float32 const ql[4] = {0.091284365719509, -0.873491916557671}; 
....................  
.................... //////////////////////////////////////////////////////////////////////////// 
.................... //   float log(float x) 
.................... //////////////////////////////////////////////////////////////////////////// 
.................... // Description : returns the the natural log of x 
.................... // Date : N/A 
.................... // 
.................... float32 log(float32 x) 
.................... { 
....................    float32 y, res, r, y2; 
....................    #if defined(__PCD__) 
....................    unsigned int8  data1,data2; 
....................    #endif 
....................    signed int8 n; 
....................    #ifdef _ERRNO 
....................    if(x <0) 
....................    { 
....................       errno=EDOM; 
....................    } 
....................    if(x ==0) 
....................    { 
....................       errno=ERANGE; 
....................       return(0); 
....................    } 
....................    #endif 
....................    y = x; 
....................  
....................    if (y != 1.0) 
....................    { 
.................... #if !defined(__PCD__) 
....................     *((unsigned int8 *)(&y)) = 0x7E;  
.................... #endif 
....................  
.................... #if defined(__PCD__) // Takes care of IEEE format 
....................    data2 = *(((unsigned int8 *)(&y))+3); 
....................    *(((unsigned int8 *)(&y))+3) = 0x3F; 
....................    data1 = *(((unsigned int8 *)(&y))+2); 
....................    bit_clear(data1,7); 
....................    *(((unsigned int8 *)(&y))+2) = data1; 
....................    if(bit_test(data2,7)) 
....................      bit_set(*(((unsigned int8 *)(&y))+3),7); 
.................... #endif 
....................  
....................       y = (y - 1.0)/(y + 1.0); 
....................  
....................       y2=y*y; 
....................  
....................       res = pl[0]*y2 + pl[1]; 
....................  
....................       r = ql[0]*y2 + ql[1]; 
....................       r = r*y2 + 1.0; 
....................  
....................       res = y*res/r; 
.................... #if !defined(__PCD__) 
....................       n = *((unsigned int8 *)(&x)) - 0x7E; 
.................... #endif 
.................... #if defined(__PCD__)  
....................     data1 = *(((unsigned int8 *)(&x)+3)); 
....................     rotate_left(&data1,1); 
....................     data2 = *(((unsigned int8 *)(&x)+2)); 
....................     if(bit_test (data2,7)) 
....................       bit_set(data1,0); 
....................     n = data1 - 0x7E; 
.................... #endif 
....................  
....................       if (n<0)  
....................          r = -(float32)-n; 
....................       else 
....................          r = (float32)n; 
....................  
....................       res += r*LN2; 
....................    } 
....................  
....................    else 
....................       res = 0.0; 
....................  
....................    return(res); 
.................... } 
....................  
.................... //Overloaded function for log() for PCD 
.................... // Overloaded function log() for data type - Float48 
.................... #if defined(__PCD__) 
.................... // Overloaded function log() for data type - float64 
.................... float64 const pl_64[4] = {-0.145694052150681, 1.365485300000370, 
....................                           -3.120535668274329, 2.000000000000000}; 
....................  
.................... float64 const ql_64[4] = {0.006047500465908, -0.208298281937234, 
....................                           1.113943039156721, -1.893601167470470}; 
....................  
.................... float48 log(float48 x) 
.................... { 
....................    float48 y, res, r, y2; 
....................    unsigned int8  data1,data2; 
....................    signed int8 n; 
.................... #ifdef _ERRNO 
....................    if(x <0) 
....................    { 
....................       errno=EDOM; 
....................    } 
....................    if(x ==0) 
....................    { 
....................       errno=ERANGE; 
....................       return(0); 
....................    } 
.................... #endif 
....................    y = x; 
....................  
....................    if (y != 1.0) 
....................    { 
....................  
.................... #if !defined(__PCD__) 
....................       *((unsigned int8 *)(&y)) = 0x7E;  
.................... #endif 
....................       data2 = *(((unsigned int8 *)(&y))+5); 
....................       *(((unsigned int8 *)(&y))+5) = 0x3F; 
....................       data1 = *(((unsigned int8 *)(&y))+4); 
....................       bit_clear(data1,7); 
....................       *(((unsigned int8 *)(&y))+4) = data1; 
....................  
....................       if(bit_test(data2,7)) 
....................       bit_set(*(((unsigned int8 *)(&y))+4),7); 
....................       y = (y - 1.0)/(y + 1.0); 
....................  
....................       y2=y*y; 
....................  
....................       res = pl_64[0]*y2 + pl_64[1]; 
....................       res = res*y2 + pl_64[2]; 
....................       res = res*y2 + pl_64[3]; 
....................  
....................       r = ql_64[0]*y2 + ql_64[1]; 
....................       r = r*y2 + ql_64[2]; 
....................       r = r*y2 + ql_64[3]; 
....................       r = r*y2 + 1.0;  
....................       res = y*res/r; 
....................  
....................       data1 = *(((unsigned int8 *)(&x)+5)); 
....................       rotate_left(&data1,1); 
....................       data2 = *(((unsigned int8 *)(&x)+4)); 
....................       if(bit_test (data2,7)) 
....................       bit_set(data1,0); 
....................        
....................       n = data1 - 0x7E; 
....................  
....................       if (n<0) 
....................       r = -(float48)-n; 
....................       else 
....................       r = (float48)n; 
....................  
....................       res += r*LN2; 
....................    } 
....................  
....................    else 
....................    res = 0.0; 
....................  
....................    return(res); 
.................... } 
....................  
.................... float64 log(float64 x) 
.................... { 
....................    float64 y, res, r, y2; 
....................    unsigned int16  data1,data2; 
....................    unsigned int16 *p; 
....................    signed int16 n; 
....................    #ifdef _ERRNO 
....................    if(x <0) 
....................    { 
....................       errno=EDOM; 
....................    } 
....................    if(x ==0) 
....................    { 
....................       errno=ERANGE; 
....................       return(0); 
....................    } 
....................    #endif 
....................    y = x; 
....................  
....................    if (y != 1.0) 
....................    { 
....................    #if !defined(__PCD__) 
....................        *((unsigned int8 *)(&y)) = 0x7E;  
....................    #endif 
....................       p= (((unsigned int16 *)(&y))+3); 
....................       data1 = *p; 
....................       data2 = *p; 
....................       data1 = 0x3FE; 
....................       data1 = data1 <<4; 
....................       if(bit_test (data2,15)) 
....................          bit_set(data1,15); 
....................       data2 = data2 & 0x000F; 
....................       data1 ^=data2; 
....................  
....................       *p = data1; 
....................  
....................       y = (y - 1.0)/(y + 1.0); 
....................  
....................       y2=y*y; 
....................  
....................       res = pl_64[0]*y2 + pl_64[1]; 
....................       res = res*y2 + pl_64[2]; 
....................       res = res*y2 + pl_64[3]; 
....................  
....................       r = ql_64[0]*y2 + ql_64[1]; 
....................       r = r*y2 + ql_64[2]; 
....................       r = r*y2 + ql_64[3]; 
....................       r = r*y2 + 1.0; 
....................  
....................       res = y*res/r; 
....................   
....................       p= (((unsigned int16 *)(&x))+3); 
....................       data1 = *p; 
....................       bit_clear(data1,15); 
....................       data1 = data1 >>4;     
....................       n = data1 - 0x3FE; 
....................  
....................  
....................       if (n<0) 
....................          r = -(float64)-n; 
....................       else 
....................          r = (float64)n; 
....................  
....................       res += r*LN2; 
....................    } 
....................  
....................    else 
....................       res = 0.0; 
....................  
....................    return(res); 
.................... } 
.................... #endif 
....................  
....................  
.................... #define LN10 2.3025850929940456 
.................... #define LN10_INV 0.4342944819032518276 
....................  
.................... //////////////////////////////////////////////////////////////////////////// 
.................... //   float log10(float x) 
.................... //////////////////////////////////////////////////////////////////////////// 
.................... // Description : returns the the log base 10 of x 
.................... // Date : N/A 
.................... // 
.................... float32 log10(float32 x) 
.................... { 
....................    float32 r; 
....................  
....................    r = log(x); 
....................    r = r*LN10_INV; 
....................    return(r); 
.................... } 
....................  
.................... //Overloaded functions for log10() for PCD 
.................... // Overloaded function log10() for data type - Float48 
.................... #if defined(__PCD__) 
.................... float48 log10(float48 x) 
.................... { 
....................    float48 r; 
....................  
....................    r = log(x); 
....................    r = r*LN10_INV; 
....................    return(r); 
.................... } 
....................  
.................... // Overloaded function log10() for data type - Float64 
.................... float64 log10(float64 x) 
.................... { 
....................    float64 r; 
....................  
....................    r = log(x); 
....................    r = r*LN10_INV; 
....................    return(r); 
.................... } 
.................... #endif 
.................... //////////////////////////////////////////////////////////////////////////// 
.................... //   float modf(float x) 
.................... //////////////////////////////////////////////////////////////////////////// 
.................... // Description :breaks the argument value int integral and fractional parts, 
.................... // ach of which have the same sign as the argument.  It stores the integral part 
.................... // as a float in the object pointed to by the iptr 
.................... // Returns : returns the signed fractional part of value. 
.................... // Date : N/A 
.................... // 
....................  
.................... float32 modf(float32 value,float32 *iptr) 
.................... { 
....................    *iptr=(value < 0.0)? ceil(value): floor(value); 
....................    return(value - *iptr); 
.................... } 
.................... //Overloaded functions for modf() for PCD 
.................... // Overloaded function modf() for data type - Float48 
.................... #if defined(__PCD__) 
.................... float48 modf(float48 value,float48 *iptr) 
.................... { 
....................    *iptr=(value < 0.0)? ceil(value): floor(value); 
....................    return(value - *iptr); 
.................... } 
.................... // Overloaded function modf() for data type - Float64 
.................... float64 modf(float64 value,float64 *iptr) 
.................... { 
....................    *iptr=(value < 0.0)? ceil(value): floor(value); 
....................    return(value - *iptr); 
.................... } 
.................... #endif 
....................  
.................... //////////////////////////////////////////////////////////////////////////// 
.................... //   float pwr(float x,float y) 
.................... //////////////////////////////////////////////////////////////////////////// 
.................... // Description : returns the value (x^y) 
.................... // Date : N/A 
.................... // Note : 0 is returned when the function will generate an imaginary number 
.................... // 
.................... float32 pwr(float32 x,float32 y) 
.................... { 
....................    if(0 > x && fmod(y, 1) == 0) { 
....................       if(fmod(y, 2) == 0) { 
....................          return (exp(log(-x) * y)); 
....................       } else { 
....................          return (-exp(log(-x) * y)); 
....................       } 
....................    } else if(0 > x && fmod(y, 1) != 0) { 
....................       return 0; 
....................    } else { 
....................       if(x != 0 || 0 >= y) { 
....................          return (exp(log(x) * y)); 
....................       } 
....................    } 
.................... } 
.................... //Overloaded functions for pwr() for PCD 
.................... // Overloaded function pwr() for data type - Float48 
.................... #if defined(__PCD__) 
.................... float48 pwr(float48 x,float48 y) 
.................... { 
....................    if(0 > x && fmod(y, 1) == 0) { 
....................       if(fmod(y, 2) == 0) { 
....................          return (exp(log(-x) * y)); 
....................       } else { 
....................          return (-exp(log(-x) * y)); 
....................       } 
....................    } else if(0 > x && fmod(y, 1) != 0) { 
....................       return 0; 
....................    } else { 
....................       if(x != 0 || 0 >= y) { 
....................          return (exp(log(x) * y)); 
....................       } 
....................    } 
.................... } 
.................... // Overloaded function pwr() for data type - Float64 
.................... float64 pwr(float64 x,float64 y) 
.................... { 
....................    if(0 > x && fmod(y, 1) == 0) { 
....................       if(fmod(y, 2) == 0) { 
....................          return (exp(log(-x) * y)); 
....................       } else { 
....................          return (-exp(log(-x) * y)); 
....................       } 
....................    } else if(0 > x && fmod(y, 1) != 0) { 
....................       return 0; 
....................    } else { 
....................       if(x != 0 || 0 >= y) { 
....................          return (exp(log(x) * y)); 
....................       } 
....................    } 
.................... } 
.................... #endif 
....................  
.................... //////////////////// Power functions //////////////////// 
....................  
.................... //////////////////////////////////////////////////////////////////////////// 
.................... //   float pow(float x,float y) 
.................... //////////////////////////////////////////////////////////////////////////// 
.................... // Description : returns the value (x^y) 
.................... // Date : N/A 
.................... // Note : 0 is returned when the function will generate an imaginary number 
.................... // 
.................... float32 pow(float32 x,float32 y) 
.................... { 
....................    if(0 > x && fmod(y, 1) == 0) { 
....................       if(fmod(y, 2) == 0) { 
....................          return (exp(log(-x) * y)); 
....................       } else { 
....................          return (-exp(log(-x) * y)); 
....................       } 
....................    } else if(0 > x && fmod(y, 1) != 0) { 
....................       return 0; 
....................    } else { 
....................       if(x != 0 || 0 >= y) { 
....................          return (exp(log(x) * y)); 
....................       } 
....................    } 
.................... } 
.................... //Overloaded functions for pow() for PCD 
.................... // Overloaded function for pow() data type - Float48 
.................... #if defined(__PCD__) 
.................... float48 pow(float48 x,float48 y) 
.................... { 
....................    if(0 > x && fmod(y, 1) == 0) { 
....................       if(fmod(y, 2) == 0) { 
....................          return (exp(log(-x) * y)); 
....................       } else { 
....................          return (-exp(log(-x) * y)); 
....................       } 
....................    } else if(0 > x && fmod(y, 1) != 0) { 
....................       return 0; 
....................    } else { 
....................       if(x != 0 || 0 >= y) { 
....................          return (exp(log(x) * y)); 
....................       } 
....................    } 
.................... } 
....................  
.................... // Overloaded function pow() for data type - Float64 
.................... float64 pow(float64 x,float64 y) 
.................... { 
....................    if(0 > x && fmod(y, 1) == 0) { 
....................       if(fmod(y, 2) == 0) { 
....................          return (exp(log(-x) * y)); 
....................       } else { 
....................          return (-exp(log(-x) * y)); 
....................       } 
....................    } else if(0 > x && fmod(y, 1) != 0) { 
....................       return 0; 
....................    } else { 
....................       if(x != 0 || 0 >= y) { 
....................          return (exp(log(x) * y)); 
....................       } 
....................    } 
.................... } 
.................... #endif 
....................  
.................... //////////////////////////////////////////////////////////////////////////// 
.................... //   float sqrt(float x) 
.................... //////////////////////////////////////////////////////////////////////////// 
.................... // Description : returns the square root of x 
.................... // Date : N/A 
.................... // 
.................... float32 sqrt(float32 x) 
.................... { 
....................    float32 y, res; 
....................    #if defined(__PCD__) 
....................    unsigned int16 data1,data2; 
....................    #endif 
....................    unsigned int8 *p; 
....................  
....................    #ifdef _ERRNO 
....................    if(x < 0) 
....................    { 
....................       errno=EDOM; 
....................    } 
....................    #endif 
....................  
....................    if( x<=0.0) 
....................       return(0.0); 
....................  
....................    y=x; 
....................     
....................    #if !defined(__PCD__) 
....................     p=&y; 
....................    (*p)=(unsigned int8)((((unsigned int16)(*p)) + 127) >> 1); 
....................    #endif 
....................     
....................    #if defined(__PCD__) 
....................     p = (((unsigned int8 *)(&y))+3); 
....................     data1 = *(((unsigned int8 *)(&y))+3); 
....................     data2 = *(((unsigned int8 *)(&y))+2); 
....................     rotate_left(&data1,1);     
....................     if(bit_test(data2,7))     
....................        bit_set(data1,0);     
....................     data1 = ((data1+127) >>1); 
....................     bit_clear(data2,7); 
....................     if(bit_test(data1,0)) 
....................        bit_set(data2,7); 
....................     data1 = data1 >>1; 
....................     *(((unsigned int8 *)(&y))+3) = data1; 
....................     *(((unsigned int8 *)(&y))+2) = data2; 
....................      
....................   #endif 
....................  
....................    do { 
....................       res=y; 
....................       y+=(x/y); 
....................  
....................       #if !defined(__PCD__) 
....................      (*p)--; 
....................    #endif 
....................     
....................    #if defined(__PCD__) 
....................     data1 = *(((unsigned int8 *)(&y))+3); 
....................     data2 = *(((unsigned int8 *)(&y))+2); 
....................     rotate_left(&data1,1); 
....................     if(bit_test(data2,7)) 
....................        bit_set(data1,0);     
....................     data1--; 
....................     bit_clear(data2,7); 
....................     if(bit_test(data1,0)) 
....................        bit_set(data2,7); 
....................     data1 = data1 >>1; 
....................     *(((unsigned int8 *)(&y))+3) = data1; 
....................     *(((unsigned int8 *)(&y))+2) = data2; 
....................      
....................   #endif 
....................    } while(res != y); 
....................  
....................    return(res); 
.................... } 
.................... //Overloaded functions for sqrt() for PCD 
.................... // Overloaded function sqrt() for data type - Float48 
.................... #if defined(__PCD__) 
.................... float48 sqrt(float48 x) 
.................... { 
....................    float48 y, res; 
....................    unsigned int16 data1,data2; 
....................    unsigned int8 *p; 
....................  
....................    #ifdef _ERRNO 
....................    if(x < 0) 
....................    { 
....................       errno=EDOM; 
....................    } 
....................    #endif 
....................  
....................    if( x<=0.0) 
....................       return(0.0); 
....................  
....................    y=x; 
....................     
....................    #if !defined(__PCD__) 
....................     p=&y; 
....................    (*p)=(unsigned int8)((((unsigned int16)(*p)) + 127) >> 1); 
....................    #endif 
....................     
....................    #if defined(__PCD__) 
....................     p = (((unsigned int8 *)(&y))+5); 
....................     data1 = *(((unsigned int8 *)(&y))+5); 
....................     data2 = *(((unsigned int8 *)(&y))+4); 
....................     rotate_left(&data1,1); 
....................     if(bit_test(data2,7)) 
....................        bit_set(data1,0);     
....................     data1 = ((data1+127) >>1); 
....................     bit_clear(data2,7); 
....................     if(bit_test(data1,0)) 
....................        bit_set(data2,7); 
....................     data1 = data1 >>1; 
....................     *(((unsigned int8 *)(&y))+5) = data1; 
....................     *(((unsigned int8 *)(&y))+4) = data2; 
....................      
....................   #endif 
....................  
....................    do { 
....................       res=y; 
....................       y+=(x/y); 
....................  
....................       #if !defined(__PCD__) 
....................      (*p)--; 
....................    #endif 
....................     
....................     data1 = *(((unsigned int8 *)(&y))+5); 
....................     data2 = *(((unsigned int8 *)(&y))+4); 
....................     rotate_left(&data1,1); 
....................     if(bit_test(data2,7)) 
....................        bit_set(data1,0);     
....................     data1--; 
....................     bit_clear(data2,7); 
....................     if(bit_test(data1,0)) 
....................        bit_set(data2,7); 
....................     data1 = data1 >>1; 
....................     *(((unsigned int8 *)(&y))+5) = data1; 
....................     *(((unsigned int8 *)(&y))+4) = data2; 
....................      
....................    } while(res != y); 
....................  
....................    return(res); 
.................... } 
....................  
.................... // Overloaded function sqrt() for data type - Float64 
.................... float64 sqrt(float64 x) 
.................... { 
....................    float64 y, res; 
....................    unsigned int16 *p; 
....................    unsigned int16 temp1,temp2; 
....................  
....................    #ifdef _ERRNO 
....................    if(x < 0) 
....................    { 
....................       errno=EDOM; 
....................    } 
....................    #endif 
....................  
....................    if( x<=0.0) 
....................       return(0.0); 
....................  
....................    y=x; 
....................    p= (((unsigned int16 *)(&y))+3); 
....................    temp1 = *p; 
....................    temp2 = *p; 
....................    bit_clear(temp1,15); 
....................    temp1 = (temp1>>4)+1023; 
....................    temp1 = temp1 >> 1; 
....................    temp1 = (temp1<<4) & 0xFFF0; 
....................    if(bit_test(temp2,15)) 
....................       bit_set(temp1,15); 
....................    temp2 = temp2 & 0x000F; 
....................    temp1 ^= temp2; 
....................     
....................    (*p) = temp1; 
....................     
....................    do { 
....................       res=y; 
....................       y+=(x/y); 
....................      temp1 = *p; 
....................      temp2 = *p; 
....................      bit_clear(temp1,15); 
....................      temp1 = (temp1>>4); 
....................      temp1--; 
....................      temp1 = (temp1<<4) & 0xFFF0; 
....................      if(bit_test(temp2,15)) 
....................         bit_set(temp1,15); 
....................      temp2 = temp2 & 0x000F; 
....................      temp1 ^= temp2; 
....................      (*p) = temp1; 
....................  
....................    } while(res != y); 
....................  
....................    return(res); 
.................... } 
.................... #endif 
....................  
.................... ////////////////////////////// Trig Functions ////////////////////////////// 
.................... #ifdef PI_DIV_BY_TWO_INV 
.................... #undef PI_DIV_BY_TWO_INV 
.................... #endif 
.................... #define PI_DIV_BY_TWO_INV 0.63661977236758134 
.................... #ifdef PI_DIV_BY_TWO 
.................... #undef PI_DIV_BY_TWO 
.................... #endif 
.................... #define PI_DIV_BY_TWO   1.5707963267948966 
.................... #ifdef TWOBYPI 
.................... #undef TWOBYPI 
.................... #endif 
.................... #define TWOBYPI          0.6366197723675813 
....................  
.................... //////////////////////////////////////////////////////////////////////////// 
.................... //   float cos(float x) 
.................... //////////////////////////////////////////////////////////////////////////// 
.................... // Description : returns the cosine value of the angle x, which is in radian 
.................... // Date : 9/20/2001 
.................... // 
.................... float32 cos(float32 x) 
.................... { 
....................    float32 y, t, t2 = 1.0; 
....................    unsigned int8 quad, i; 
....................    float32 frac; 
....................    float32 p[5] = {                    //by the series definition for cosine 
....................       -0.49999999456337096,            // sum ( ( (-1)^n * x^2n )/(2n)! ) 
....................        0.04166663896921267, 
....................       -0.00138883894522527, 
....................        0.00002476138231734, 
....................       -0.00000026070414770 
....................       //-0.00000000001147, 
....................       // 0.00000000000005 
....................    }; 
....................  
....................    if (x < 0) x = -x;                  // absolute value of input 
....................  
....................    quad = (unsigned int8)(x * PI_DIV_BY_TWO_INV);    // quadrant 
....................    frac = (x * PI_DIV_BY_TWO_INV) - quad;  // fractional part of input 
....................    quad = quad % 4;                    // quadrant (0 to 3) 
....................  
....................    if (quad == 0 || quad == 2) 
....................       t = frac * PI_DIV_BY_TWO; 
....................    else if (quad == 1) 
....................       t = (1-frac) * PI_DIV_BY_TWO; 
....................    else // should be 3 
....................       t = (frac-1) * PI_DIV_BY_TWO; 
....................  
....................    y = 1.0; 
....................    t = t * t; 
....................    for (i = 0; i <= 4; i++) 
....................    { 
....................       t2 = t2 * t; 
....................       y = y + p[i] * t2; 
....................    } 
....................  
....................    if (quad == 2 || quad == 1) 
....................       y = -y;  // correct sign 
....................  
....................    return (y); 
.................... } 
....................  
....................  
.................... //Overloaded functions for cos() for PCD 
.................... // Overloaded function cos() for data type - Float48 
.................... #if defined(__PCD__) 
.................... float48 cos(float48 x) 
.................... { 
....................    float48 y, t, t2 = 1.0; 
....................    unsigned int8 quad, i; 
....................    float48 frac; 
....................    float48 p[6] = {                    //by the series definition for cosine 
....................       -0.5,                            // sum ( ( (-1)^n * x^2n )/(2n)! ) 
....................        0.04166666666667, 
....................       -0.00138888888889, 
....................        0.00002480158730, 
....................       -0.00000027557319, 
....................        0.00000000208767, 
....................       //-0.00000000001147, 
....................       // 0.00000000000005 
....................    }; 
....................  
....................    if (x < 0) x = -x;                  // absolute value of input 
....................  
....................    quad = (unsigned int8)(x * PI_DIV_BY_TWO_INV);    // quadrant 
....................    frac = (x * PI_DIV_BY_TWO_INV) - quad;  // fractional part of input 
....................    quad = quad % 4;                    // quadrant (0 to 3) 
....................  
....................    if (quad == 0 || quad == 2) 
....................       t = frac * PI_DIV_BY_TWO; 
....................    else if (quad == 1) 
....................       t = (1-frac) * PI_DIV_BY_TWO; 
....................    else // should be 3 
....................       t = (frac-1) * PI_DIV_BY_TWO; 
....................  
....................    y = 0.999999999781; 
....................    t = t * t; 
....................    for (i = 0; i <= 5; i++) 
....................    { 
....................       t2 = t2 * t; 
....................       y = y + p[i] * t2; 
....................    } 
....................  
....................    if (quad == 2 || quad == 1) 
....................       y = -y;  // correct sign 
....................  
....................    return (y); 
.................... } 
....................  
.................... // Overloaded function cos() for data type - Float64 
.................... float64 cos(float64 x) 
.................... { 
....................    float64 y, t, t2 = 1.0; 
....................    unsigned int8 quad, i; 
....................    float64 frac; 
....................    float64 p_64[9] = {               //by the series definition for cosine 
....................      -0.49999999999998740,           // sum ( ( (-1)^n * x^2n )/(2n)! )              
....................       0.04166666666656518, 
....................      -0.00138888888851691, 
....................       0.00002480158658490, 
....................      -0.00000027557239796, 
....................       0.00000000208715031, 
....................      -0.00000000001126577, 
....................       0.00000000000000427, 
....................       0.00000000000000372}; 
....................  
....................    if (x < 0) x = -x;                  // absolute value of input 
....................  
....................    quad = (unsigned int8)(x * PI_DIV_BY_TWO_INV);    // quadrant 
....................    frac = (x * PI_DIV_BY_TWO_INV) - quad;  // fractional part of input 
....................    quad = quad % 4;                    // quadrant (0 to 3) 
....................  
....................    if (quad == 0 || quad == 2) 
....................       t = frac * PI_DIV_BY_TWO; 
....................    else if (quad == 1) 
....................       t = (1-frac) * PI_DIV_BY_TWO; 
....................    else // should be 3 
....................       t = (frac-1) * PI_DIV_BY_TWO; 
....................  
....................    y = 1.0; 
....................    t = t * t; 
....................    for (i = 0; i <= 8; i++) 
....................    { 
....................       t2 = t2 * t; 
....................       y = y + p_64[i] * t2; 
....................    } 
....................  
....................    if (quad == 2 || quad == 1) 
....................       y = -y;  // correct sign 
....................  
....................    return (y); 
.................... } 
....................  
.................... #endif 
....................  
.................... //////////////////////////////////////////////////////////////////////////// 
.................... //   float sin(float x) 
.................... //////////////////////////////////////////////////////////////////////////// 
.................... // Description : returns the sine value of the angle x, which is in radian 
.................... // Date : 9/20/2001 
.................... // 
.................... float32 sin(float32 x) 
.................... { 
....................    return cos(x - PI_DIV_BY_TWO); 
.................... } 
....................  
.................... //Overloaded functions for sin() for PCD 
.................... // Overloaded function sin() for data type - Float48 
.................... #if defined(__PCD__) 
.................... float48 sin(float48 x) 
.................... { 
....................    return cos(x - PI_DIV_BY_TWO); 
.................... } 
....................  
.................... // Overloaded function sin() for data type - Float48 
.................... float64 sin(float64 x) 
.................... { 
....................    return cos(x - PI_DIV_BY_TWO); 
.................... } 
.................... #endif 
....................  
.................... //////////////////////////////////////////////////////////////////////////// 
.................... //   float tan(float x) 
.................... //////////////////////////////////////////////////////////////////////////// 
.................... // Description : returns the tangent value of the angle x, which is in radian 
.................... // Date : 9/20/2001 
.................... // 
.................... float32 tan(float32 x) 
.................... { 
....................    float32 c, s; 
....................  
....................    c = cos(x); 
....................    if (c == 0.0) 
....................       return (1.0e+36); 
....................  
....................    s = sin(x); 
....................    return(s/c); 
.................... } 
.................... //Overloaded functions for tan() for PCD 
.................... // Overloaded function tan() for data type - Float48 
.................... #if defined(__PCD__) 
.................... float48 tan(float48 x) 
.................... { 
....................    float48 c, s; 
....................  
....................    c = cos(x); 
....................    if (c == 0.0) 
....................       return (1.0e+36); 
....................  
....................    s = sin(x); 
....................    return(s/c); 
.................... } 
....................  
.................... // Overloaded function tan() for data type - Float48 
.................... float64 tan(float64 x) 
.................... { 
....................    float64 c, s; 
....................  
....................    c = cos(x); 
....................    if (c == 0.0) 
....................       return (1.0e+36); 
....................  
....................    s = sin(x); 
....................    return(s/c); 
.................... } 
.................... #endif 
....................  
.................... float32 const pas[3] = {0.49559947, -4.6145309, 5.6036290}; 
.................... float32 const qas[3] = {1.0000000,  -5.5484666, 5.6036290}; 
....................  
.................... float32 ASIN_COS(float32 x, unsigned int8 n) 
.................... { 
....................    float32 y, res, r, y2; 
....................    int1 s; 
....................    #ifdef _ERRNO 
....................    if(x <-1 || x > 1) 
....................    { 
....................       errno=EDOM; 
....................    } 
....................    #endif 
....................    s = 0; 
....................    y = x; 
....................  
....................    if (x < 0) 
....................    { 
....................       s = 1; 
....................       y = -y; 
....................    } 
....................  
....................    if (y > 0.5) 
....................    { 
....................       y = sqrt((1.0 - y)*0.5); 
....................       n += 2; 
....................    } 
....................  
....................    y2=y*y; 
....................  
....................    res = pas[0]*y2 + pas[1]; 
....................    res = res*y2 + pas[2]; 
....................  
....................    r = qas[0]*y2 + qas[1]; 
....................    r = r*y2 + qas[2]; 
....................  
....................    res = y*res/r; 
....................  
....................    if (n & 2)     // |x| > 0.5 
....................       res = PI_DIV_BY_TWO - 2.0*res; 
....................    if (s) 
....................       res = -res; 
....................    if (n & 1)           // take arccos 
....................       res = PI_DIV_BY_TWO - res; 
....................  
....................    return(res); 
.................... } 
....................  
....................  
.................... //Overloaded functions for ASIN_COS() for PCD 
.................... // Overloaded function ASIN_COS() for data type - Float48 
.................... #if defined(__PCD__) 
.................... float48 ASIN_COS(float48 x, unsigned int8 n) 
.................... { 
....................    float48 y, res, r, y2; 
....................    int1 s; 
....................    #ifdef _ERRNO 
....................    if(x <-1 || x > 1) 
....................    { 
....................       errno=EDOM; 
....................    } 
....................    #endif 
....................    s = 0; 
....................    y = x; 
....................  
....................    if (x < 0) 
....................    { 
....................       s = 1; 
....................       y = -y; 
....................    } 
....................  
....................    if (y > 0.5) 
....................    { 
....................       y = sqrt((1.0 - y)*0.5); 
....................       n += 2; 
....................    } 
....................  
....................    y2=y*y; 
....................  
....................    res = pas[0]*y2 + pas[1]; 
....................    res = res*y2 + pas[2]; 
....................  
....................    r = qas[0]*y2 + qas[1]; 
....................    r = r*y2 + qas[2]; 
....................  
....................    res = y*res/r; 
....................  
....................    if (n & 2)     // |x| > 0.5 
....................       res = PI_DIV_BY_TWO - 2.0*res; 
....................    if (s) 
....................       res = -res; 
....................    if (n & 1)           // take arccos 
....................       res = PI_DIV_BY_TWO - res; 
....................  
....................    return(res); 
.................... } 
....................  
.................... // Overloaded function ASIN_COS() for data type - Float64 
.................... double pas_64[5]={1.000000000000000,-2.069938587724477,1.421444580548907, 
....................                  -0.360690137621842,0.024929451660228}; 
....................  
.................... double qas_64[5]={-2.236605254391134,1.719212122946451,-0.524122954476133, 
....................                    0.052808872045749,-0.000662536036570}; 
....................                     
.................... float64 ASIN_COS(float64 x, unsigned int8 n) 
.................... { 
....................    float64 y, res, r, y2; 
....................    int1 s; 
....................    #ifdef _ERRNO 
....................    if(x <-1 || x > 1) 
....................    { 
....................       errno=EDOM; 
....................    } 
....................    #endif 
....................    s = 0; 
....................    y = x; 
....................  
....................    if (x < 0) 
....................    { 
....................       s = 1; 
....................       y = -y; 
....................    } 
....................  
....................    if (y > 0.5) 
....................    { 
....................       y = sqrt((1.0 - y)*0.5); 
....................       n += 2; 
....................    } 
....................  
....................    y2=y*y; 
....................  
....................    res = pas_64[4]*y2 + pas_64[3]; 
....................    res = res*y2 + pas_64[2]; 
....................    res = res*y2 + pas_64[1]; 
....................    res = res*y2 + pas_64[0]; 
....................  
....................    r = qas_64[4]*y2 + qas_64[3]; 
....................    r = r*y2 + qas_64[2]; 
....................    r = r*y2 + qas_64[1]; 
....................    r = r*y2 + qas_64[0]; 
....................    r = r*y2 + 1.0; 
....................  
....................    res = y*res/r; 
....................  
....................    if (n & 2)     // |x| > 0.5 
....................       res = PI_DIV_BY_TWO - 2.0*res; 
....................    if (s) 
....................       res = -res; 
....................    if (n & 1)           // take arccos 
....................       res = PI_DIV_BY_TWO - res; 
....................  
....................    return(res); 
.................... } 
.................... #endif 
....................  
.................... //////////////////////////////////////////////////////////////////////////// 
.................... //   float asin(float x) 
.................... //////////////////////////////////////////////////////////////////////////// 
.................... // Description : returns the arcsine value of the value x. 
.................... // Date : N/A 
.................... // 
.................... float32 asin(float32 x) 
.................... { 
....................    float32 r; 
....................  
....................    r = ASIN_COS(x, 0); 
....................    return(r); 
.................... } 
.................... //Overloaded functions for asin() for PCD 
.................... // Overloaded function asin() for data type - Float48 
.................... #if defined(__PCD__) 
.................... float48 asin(float48 x) 
.................... { 
....................    float48 r; 
....................  
....................    r = ASIN_COS(x, 0); 
....................    return(r); 
.................... } 
....................  
.................... // Overloaded function asin() for data type - Float64 
.................... float64 asin(float64 x) 
.................... { 
....................    float64 r; 
....................  
....................    r = ASIN_COS(x, 0); 
....................    return(r); 
.................... } 
.................... #endif 
....................  
.................... //////////////////////////////////////////////////////////////////////////// 
.................... //   float acos(float x) 
.................... //////////////////////////////////////////////////////////////////////////// 
.................... // Description : returns the arccosine value of the value x. 
.................... // Date : N/A 
.................... // 
.................... float32 acos(float32 x) 
.................... { 
....................    float32 r; 
....................  
....................    r = ASIN_COS(x, 1); 
....................    return(r); 
.................... } 
.................... //Overloaded functions for acos() for PCD 
.................... // Overloaded function acos() for data type - Float48 
.................... #if defined(__PCD__) 
.................... float48 acos(float48 x) 
.................... { 
....................    float48 r; 
....................  
....................    r = ASIN_COS(x, 1); 
....................    return(r); 
.................... } 
....................  
.................... // Overloaded function acos() for data type - Float64 
.................... float64 acos(float64 x) 
.................... { 
....................    float64 r; 
....................  
....................    r = ASIN_COS(x, 1); 
....................    return(r); 
.................... } 
.................... #endif 
....................  
.................... float32 const pat[4] = {0.17630401, 5.6710795, 22.376096, 19.818457}; 
.................... float32 const qat[4] = {1.0000000,  11.368190, 28.982246, 19.818457}; 
....................  
.................... //////////////////////////////////////////////////////////////////////////// 
.................... //   float atan(float x) 
.................... //////////////////////////////////////////////////////////////////////////// 
.................... // Description : returns the arctangent value of the value x. 
.................... // Date : N/A 
.................... // 
.................... float32 atan(float32 x) 
.................... { 
....................    float32 y, res, r; 
....................    int1 s, flag; 
....................  
....................    s = 0; 
....................    flag = 0; 
....................    y = x; 
....................  
....................    if (x < 0) 
....................    { 
....................       s = 1; 
....................       y = -y; 
....................    } 
....................  
....................    if (y > 1.0) 
....................    { 
....................       y = 1.0/y; 
....................       flag = 1; 
....................    } 
....................  
....................    res = pat[0]*y*y + pat[1]; 
....................    res = res*y*y + pat[2]; 
....................    res = res*y*y + pat[3]; 
....................  
....................    r = qat[0]*y*y + qat[1]; 
....................    r = r*y*y + qat[2]; 
....................    r = r*y*y + qat[3]; 
....................  
....................    res = y*res/r; 
....................  
....................  
....................    if (flag)                              // for |x| > 1 
....................       res = PI_DIV_BY_TWO - res; 
....................    if (s) 
....................       res = -res; 
....................  
....................    return(res); 
.................... } 
.................... //Overloaded functions for atan() for PCD 
.................... // Overloaded function atan() for data type - Float48 
.................... #if defined(__PCD__) 
.................... float48 atan(float48 x) 
.................... { 
....................    float48 y, res, r; 
....................    int1 s, flag; 
....................  
....................    s = 0; 
....................    flag = 0; 
....................    y = x; 
....................  
....................    if (x < 0) 
....................    { 
....................       s = 1; 
....................       y = -y; 
....................    } 
....................  
....................    if (y > 1.0) 
....................    { 
....................       y = 1.0/y; 
....................       flag = 1; 
....................    } 
....................  
....................    res = pat[0]*y*y + pat[1]; 
....................    res = res*y*y + pat[2]; 
....................    res = res*y*y + pat[3]; 
....................  
....................    r = qat[0]*y*y + qat[1]; 
....................    r = r*y*y + qat[2]; 
....................    r = r*y*y + qat[3]; 
....................  
....................    res = y*res/r; 
....................  
....................  
....................    if (flag)                              // for |x| > 1 
....................       res = PI_DIV_BY_TWO - res; 
....................    if (s) 
....................       res = -res; 
....................  
....................    return(res); 
.................... } 
....................  
.................... float64 pat_64[6]={0.999999999999999,2.249923645595566,1.771541617806449, 
....................                    0.579678874003185,0.072162702162882,0.002281100141660}; 
....................  
.................... float64 qat_64[6]={2.583256978928510,2.432627277466967,1.016760379885393, 
....................                    0.182482977188688,0.011155377971690,0.000100013019160}; 
.................... // Overloaded function atan() for data type - Float64 
.................... float64 atan(float64 x) 
.................... { 
....................    float64 y,y2, res, r; 
....................    int1 s, flag; 
....................  
....................    s = 0; 
....................    flag = 0; 
....................    y = x; 
....................  
....................    if (x < 0) 
....................    { 
....................       s = 1; 
....................       y = -y; 
....................    } 
....................  
....................    if (y > 1.0) 
....................    { 
....................       y = 1.0/y; 
....................       flag = 1; 
....................    } 
....................    y2 = y*y; 
....................    res = pat_64[5]*y2 + pat_64[4]; 
....................    res = res*y2 + pat_64[3]; 
....................    res = res*y2 + pat_64[2]; 
....................    res = res*y2 + pat_64[1]; 
....................    res = res*y2 + pat_64[0]; 
....................  
....................    r = qat_64[5]*y2 + qat_64[4]; 
....................    r = r*y2 + qat_64[3]; 
....................    r = r*y2 + qat_64[2]; 
....................    r = r*y2 + qat_64[1]; 
....................    r = r*y2 + qat_64[0]; 
....................    r = r*y2 + 1.0; 
....................  
....................    res = y*res/r; 
....................  
....................  
....................    if (flag)                              // for |x| > 1 
....................       res = PI_DIV_BY_TWO - res; 
....................    if (s) 
....................       res = -res; 
....................  
....................    return(res); 
.................... } 
.................... #endif 
....................  
.................... ///////////////////////////////////////////////////////////////////////////// 
.................... //   float atan2(float y, float x) 
.................... ///////////////////////////////////////////////////////////////////////////// 
.................... // Description :computes the principal value of arc tangent of y/x, using the 
.................... // signs of both the arguments to determine the quadrant of the return value 
.................... // Returns : returns the arc tangent of y/x. 
.................... // Date : N/A 
.................... // 
....................  
.................... float32 atan2(float32 y,float32 x) 
.................... { 
....................    float32 z; 
....................    int1 sign; 
....................    unsigned int8 quad; 
....................    sign=0; 
....................    quad=0; //quadrant 
....................    quad=((y<=0.0)?((x<=0.0)?3:4):((x<0.0)?2:1)); 
....................    if(y<0.0) 
....................    { 
....................       sign=1; 
....................       y=-y; 
....................    } 
....................    if(x<0.0) 
....................    { 
....................       x=-x; 
....................    } 
....................    if (x==0.0) 
....................    { 
....................       if(y==0.0) 
....................       { 
....................       #ifdef _ERRNO 
....................       { 
....................          errno=EDOM; 
....................       } 
....................       #endif 
....................       } 
....................       else 
....................       { 
....................          if(sign) 
....................          { 
....................          return (-(PI_DIV_BY_TWO)); 
....................          } 
....................          else 
....................          { 
....................          return (PI_DIV_BY_TWO); 
....................          } 
....................       } 
....................    } 
....................    else 
....................    { 
....................       z=y/x; 
....................       switch(quad) 
....................       { 
....................          case 1: 
....................          { 
....................             return atan(z); 
....................             break; 
....................          } 
....................          case 2: 
....................          { 
.................... //            return (atan(z)+PI_DIV_BY_TWO);  //2L3122 
....................             return (PI-atan(z)); 
....................             break; 
....................          } 
....................          case 3: 
....................          { 
....................             return (atan(z)-PI); 
....................             break; 
....................          } 
....................          case 4: 
....................          { 
....................             return (-atan(z)); 
....................             break; 
....................          } 
....................       } 
....................    } 
.................... } 
....................  
.................... //Overloaded functions for atan2() for PCD 
.................... // Overloaded function atan2() for data type - Float48 
.................... #if defined(__PCD__) 
.................... float48 atan2(float48 y,float48 x) 
.................... { 
....................    float48 z; 
....................    int1 sign; 
....................    unsigned int8 quad; 
....................    sign=0; 
....................    quad=0; //quadrant 
....................    quad=((y<=0.0)?((x<=0.0)?3:4):((x<0.0)?2:1)); 
....................    if(y<0.0) 
....................    { 
....................       sign=1; 
....................       y=-y; 
....................    } 
....................    if(x<0.0) 
....................    { 
....................       x=-x; 
....................    } 
....................    if (x==0.0) 
....................    { 
....................       if(y==0.0) 
....................       { 
....................       #ifdef _ERRNO 
....................       { 
....................          errno=EDOM; 
....................       } 
....................       #endif 
....................       } 
....................       else 
....................       { 
....................          if(sign) 
....................          { 
....................          return (-(PI_DIV_BY_TWO)); 
....................          } 
....................          else 
....................          { 
....................          return (PI_DIV_BY_TWO); 
....................          } 
....................       } 
....................    } 
....................    else 
....................    { 
....................       z=y/x; 
....................       switch(quad) 
....................       { 
....................          case 1: 
....................          { 
....................             return atan(z); 
....................             break; 
....................          } 
....................          case 2: 
....................          { 
.................... //            return (atan(z)+PI_DIV_BY_TWO);  //2L3122 
....................             return (PI-atan(z)); 
....................             break; 
....................          } 
....................          case 3: 
....................          { 
....................             return (atan(z)-PI); 
....................             break; 
....................          } 
....................          case 4: 
....................          { 
....................             return (-atan(z)); 
....................             break; 
....................          } 
....................       } 
....................    } 
.................... } 
....................  
.................... // Overloaded function atan2() for data type - Float64 
.................... float64 atan2(float64 y,float64 x) 
.................... { 
....................    float64 z; 
....................    int1 sign; 
....................    unsigned int8 quad; 
....................    sign=0; 
....................    quad=0; //quadrant 
....................    quad=((y<=0.0)?((x<=0.0)?3:4):((x<0.0)?2:1)); 
....................    if(y<0.0) 
....................    { 
....................       sign=1; 
....................       y=-y; 
....................    } 
....................    if(x<0.0) 
....................    { 
....................       x=-x; 
....................    } 
....................    if (x==0.0) 
....................    { 
....................       if(y==0.0) 
....................       { 
....................       #ifdef _ERRNO 
....................       { 
....................          errno=EDOM; 
....................       } 
....................       #endif 
....................       } 
....................       else 
....................       { 
....................          if(sign) 
....................          { 
....................          return (-(PI_DIV_BY_TWO)); 
....................          } 
....................          else 
....................          { 
....................          return (PI_DIV_BY_TWO); 
....................          } 
....................       } 
....................    } 
....................    else 
....................    { 
....................       z=y/x; 
....................       switch(quad) 
....................       { 
....................          case 1: 
....................          { 
....................             return atan(z); 
....................             break; 
....................          } 
....................          case 2: 
....................          { 
.................... //            return (atan(z)+PI_DIV_BY_TWO);  //2L3122 
....................             return (PI-atan(z)); 
....................             break; 
....................          } 
....................          case 3: 
....................          { 
....................             return (atan(z)-PI); 
....................             break; 
....................          } 
....................          case 4: 
....................          { 
....................             return (-atan(z)); 
....................             break; 
....................          } 
....................       } 
....................    } 
.................... } 
.................... #endif 
....................  
.................... //////////////////// Hyperbolic functions //////////////////// 
....................  
.................... //////////////////////////////////////////////////////////////////////////// 
.................... //   float cosh(float x) 
.................... //////////////////////////////////////////////////////////////////////////// 
.................... // Description : Computes the hyperbolic cosine value of x 
.................... // Returns : returns the hyperbolic cosine value of x 
.................... // Date : N/A 
.................... // 
....................  
.................... float32 cosh(float32 x) 
.................... { 
....................    return ((exp(x)+exp(-x))*0.5); 
.................... } 
.................... //Overloaded functions for cosh() for PCD 
.................... // Overloaded function cosh() for data type - Float48 
.................... #if defined(__PCD__) 
.................... float48 cosh(float48 x) 
.................... { 
....................    return ((exp(x)+exp(-x))*0.5); 
.................... } 
....................  
.................... // Overloaded function cosh() for data type - Float64 
.................... float64 cosh(float64 x) 
.................... { 
....................    return ((exp(x)+exp(-x))*0.5); 
.................... } 
.................... #endif 
....................  
.................... //////////////////////////////////////////////////////////////////////////// 
.................... //   float sinh(float x) 
.................... //////////////////////////////////////////////////////////////////////////// 
.................... // Description : Computes the hyperbolic sine value of x 
.................... // Returns : returns the hyperbolic sine value of x 
.................... // Date : N/A 
.................... // 
....................  
.................... float32 sinh(float32 x) 
.................... { 
....................  
....................    return ((exp(x) - exp(-x))*0.5); 
.................... } 
.................... //Overloaded functions for sinh() for PCD 
.................... // Overloaded function sinh() for data type - Float48 
.................... #if defined(__PCD__) 
.................... float48 sinh(float48 x) 
.................... { 
....................  
....................    return ((exp(x) - exp(-x))*0.5); 
.................... } 
....................  
.................... // Overloaded function sinh() for data type - Float48 
.................... float64 sinh(float64 x) 
.................... { 
....................  
....................    return ((exp(x) - exp(-x))*0.5); 
.................... } 
.................... #endif 
....................  
.................... //////////////////////////////////////////////////////////////////////////// 
.................... //   float tanh(float x) 
.................... //////////////////////////////////////////////////////////////////////////// 
.................... // Description : Computes the hyperbolic tangent value of x 
.................... // Returns : returns the hyperbolic tangent value of x 
.................... // Date : N/A 
.................... // 
....................  
.................... float32 tanh(float32 x) 
.................... { 
....................    return(sinh(x)/cosh(x)); 
.................... } 
.................... //Overloaded functions for tanh() for PCD 
.................... // Overloaded function tanh() for data type - Float48 
.................... #if defined(__PCD__) 
.................... float48 tanh(float48 x) 
.................... { 
....................    return(sinh(x)/cosh(x)); 
.................... } 
....................  
.................... // Overloaded function tanh() for data type - Float64 
.................... float64 tanh(float64 x) 
.................... { 
....................    return(sinh(x)/cosh(x)); 
.................... } 
.................... #endif 
....................  
.................... //////////////////////////////////////////////////////////////////////////// 
.................... //   float frexp(float x, signed int *exp) 
.................... //////////////////////////////////////////////////////////////////////////// 
.................... // Description : breaks a floating point number into a normalized fraction and an integral 
.................... // power of 2. It stores the integer in the signed int object pointed to by exp. 
.................... // Returns : returns the value x, such that x is a double with magnitude in the interval 
.................... // [1/2,1) or zero, and value equals x times 2 raised to the power *exp.If value is zero, 
.................... // both parts of the result are zero. 
.................... // Date : N/A 
.................... // 
....................  
.................... #define LOG2 .30102999566398119521 
.................... #define LOG2_INV 3.32192809488736234787 
.................... float32 frexp(float32 x, signed int8 *exp) 
.................... { 
....................    float32 res; 
....................    int1 sign = 0; 
....................    if(x == 0.0) 
....................    { 
....................       *exp=0; 
....................       return (0.0); 
....................    } 
....................    if(x < 0.0) 
....................    { 
....................      x=-x; 
....................      sign=1; 
....................    } 
....................    if (x > 1.0) 
....................    { 
....................       *exp=(ceil(log10(x)*LOG2_INV)); 
....................       res=x/(pow(2, *exp)); 
....................       if (res == 1) 
....................       { 
....................          *exp=*exp+1; 
....................           res=.5; 
....................       } 
....................    } 
....................    else 
....................    { 
....................       if(x < 0.5) 
....................       { 
....................          *exp=-1; 
....................          res=x*2; 
....................       } 
....................       else 
....................       { 
....................          *exp=0; 
....................           res=x; 
....................       } 
....................    } 
....................    if(sign) 
....................    { 
....................       res=-res; 
....................    } 
....................    return res; 
.................... } 
....................  
.................... //Overloaded functions for frexp() for PCD 
.................... // Overloaded function frexp() for data type - Float48 
.................... #if defined(__PCD__) 
.................... float48 frexp(float48 x, signed int8 *exp) 
.................... { 
....................    float48 res; 
....................    int1 sign = 0; 
....................    if(x == 0.0) 
....................    { 
....................       *exp=0; 
....................       return (0.0); 
....................    } 
....................    if(x < 0.0) 
....................    { 
....................      x=-x; 
....................      sign=1; 
....................    } 
....................    if (x > 1.0) 
....................    { 
....................       *exp=(ceil(log10(x)*LOG2_INV)); 
....................       res=x/(pow(2, *exp)); 
....................       if (res == 1) 
....................       { 
....................          *exp=*exp+1; 
....................           res=.5; 
....................       } 
....................    } 
....................    else 
....................    { 
....................       if(x < 0.5) 
....................       { 
....................          *exp=-1; 
....................          res=x*2; 
....................       } 
....................       else 
....................       { 
....................          *exp=0; 
....................           res=x; 
....................       } 
....................    } 
....................    if(sign) 
....................    { 
....................       res=-res; 
....................    } 
....................    return res; 
.................... } 
....................  
.................... // Overloaded function frexp() for data type - Float64 
.................... float64 frexp(float64 x, signed int8 *exp) 
.................... { 
....................    float64 res; 
....................    int1 sign = 0; 
....................    if(x == 0.0) 
....................    { 
....................       *exp=0; 
....................       return (0.0); 
....................    } 
....................    if(x < 0.0) 
....................    { 
....................      x=-x; 
....................      sign=1; 
....................    } 
....................    if (x > 1.0) 
....................    { 
....................       *exp=(ceil(log10(x)*LOG2_INV)); 
....................       res=x/(pow(2, *exp)); 
....................       if (res == 1) 
....................       { 
....................          *exp=*exp+1; 
....................           res=.5; 
....................       } 
....................    } 
....................    else 
....................    { 
....................       if(x < 0.5) 
....................       { 
....................          *exp=-1; 
....................          res=x*2; 
....................       } 
....................       else 
....................       { 
....................          *exp=0; 
....................           res=x; 
....................       } 
....................    } 
....................    if(sign) 
....................    { 
....................       res=-res; 
....................    } 
....................    return res; 
.................... } 
.................... #endif 
....................  
.................... ////////////////////////////////////////////////////////////////////////////// 
.................... //   float ldexp(float x, signed int *exp) 
.................... ////////////////////////////////////////////////////////////////////////////// 
.................... // Description : multiplies a floating point number by an integral power of 2. 
.................... // Returns : returns the value of x times 2 raised to the power exp. 
.................... // Date : N/A 
.................... // 
....................  
.................... float32 ldexp(float32 value, signed int8 exp) 
.................... { 
....................    return (value * pow(2,exp)); 
.................... } 
.................... //Overloaded functions for ldexp() for PCD 
.................... // Overloaded function ldexp() for data type - Float48 
....................  
.................... #if defined(__PCD__) 
.................... float48 ldexp(float48 value, signed int8 exp) 
.................... { 
....................    return (value * pow(2,exp)); 
.................... } 
.................... // Overloaded function ldexp() for data type - Float64 
.................... float64 ldexp(float64 value, signed int8 exp) 
.................... { 
....................    return (value * pow(2,exp)); 
.................... } 
.................... #endif 
....................  
.................... #endif 
....................  
.................... #fuses HSM,PUT,NOPROTECT,NOLVP,NOWDT,NOBROWNOUT,NOPLLEN,NOPBADEN 
.................... #fuses IESO 
.................... #use delay(xtal=20MHz, clock=20MHz) /* use clock frequency of 16 MHz for delays */ 
.................... #byte clock_source=getenv("clock") 
.................... #use delay(clock=20000000) 
*
00DA4:  MOVLW  03
00DA6:  MOVWF  FEA
00DA8:  MOVLW  A9
00DAA:  MOVWF  FE9
00DAC:  MOVF   FEF,W
00DAE:  BZ    0DCA
00DB0:  MOVLW  06
00DB2:  MOVWF  01
00DB4:  CLRF   00
00DB6:  DECFSZ 00,F
00DB8:  BRA    0DB6
00DBA:  DECFSZ 01,F
00DBC:  BRA    0DB4
00DBE:  MOVLW  7B
00DC0:  MOVWF  00
00DC2:  DECFSZ 00,F
00DC4:  BRA    0DC2
00DC6:  DECFSZ FEF,F
00DC8:  BRA    0DB0
00DCA:  RETURN 0
.................... #include <3WireLCD.c> 
.................... // 3-Wire LCD driver for CCS PIC C compiler (for HD44780 compliant controllers) 
.................... // http://ccspicc.blogspot.com/ 
.................... // electronnote@gmail.com 
....................   
....................  
.................... #define LCD_FIRST_ROW          0x80 
.................... #define LCD_SECOND_ROW         0xC0 
.................... #define LCD_THIRD_ROW          0x94 
.................... #define LCD_FOURTH_ROW         0xD4 
.................... #define LCD_CLEAR              0x01 
.................... #define LCD_RETURN_HOME        0x02 
.................... #define LCD_CURSOR_OFF         0x0C 
.................... #define LCD_UNDERLINE_ON       0x0E 
.................... #define LCD_BLINK_CURSOR_ON    0x0F 
.................... #define LCD_MOVE_CURSOR_LEFT   0x10 
.................... #define LCD_MOVE_CURSOR_RIGHT  0x14 
.................... #define LCD_TURN_ON            0x0C 
.................... #define LCD_TURN_OFF           0x08 
.................... #define LCD_SHIFT_LEFT         0x18 
.................... #define LCD_SHIFT_RIGHT        0x1E 
....................  
.................... short RS; 
.................... void lcd_write_nibble(unsigned int8 n){ 
....................   unsigned int8 i; 
....................   output_low(LCD_CLOCK_PIN); 
00DCC:  BCF    F94.4
00DCE:  BCF    F8B.4
....................   output_low(LCD_EN_PIN); 
00DD0:  BCF    F93.0
00DD2:  BCF    F8A.0
....................   for( i = 8; i > 0; i = i >> 1){ 
00DD4:  MOVLW  08
00DD6:  MOVLB  3
00DD8:  MOVWF  xB1
00DDA:  MOVF   xB1,F
00DDC:  BZ    0E10
....................     if(n & i) 
00DDE:  MOVF   xB0,W
00DE0:  ANDWF  xB1,W
00DE2:  BZ    0DEA
....................       output_high(LCD_DATA_PIN); 
00DE4:  BCF    F94.3
00DE6:  BSF    F8B.3
00DE8:  BRA    0DEE
....................     else 
....................       output_low(LCD_DATA_PIN); 
00DEA:  BCF    F94.3
00DEC:  BCF    F8B.3
....................     Delay_us(10); 
00DEE:  MOVLW  10
00DF0:  MOVWF  00
00DF2:  DECFSZ 00,F
00DF4:  BRA    0DF2
00DF6:  NOP   
....................     output_high(LCD_clock_PIN); 
00DF8:  BCF    F94.4
00DFA:  BSF    F8B.4
....................     Delay_us(10); 
00DFC:  MOVLW  10
00DFE:  MOVWF  00
00E00:  DECFSZ 00,F
00E02:  BRA    0E00
00E04:  NOP   
....................     output_low(LCD_clock_PIN); 
00E06:  BCF    F94.4
00E08:  BCF    F8B.4
00E0A:  BCF    FD8.0
00E0C:  RRCF   xB1,F
00E0E:  BRA    0DDA
....................   } 
....................   if(RS) 
00E10:  BTFSS  1C.0
00E12:  BRA    0E1A
....................     output_high(LCD_DATA_PIN); 
00E14:  BCF    F94.3
00E16:  BSF    F8B.3
00E18:  BRA    0E1E
....................   else 
....................     output_low(LCD_DATA_PIN); 
00E1A:  BCF    F94.3
00E1C:  BCF    F8B.3
....................   for(i = 0; i < 2; i++){ 
00E1E:  CLRF   xB1
00E20:  MOVF   xB1,W
00E22:  SUBLW  01
00E24:  BNC   0E46
....................     Delay_us(10); 
00E26:  MOVLW  10
00E28:  MOVWF  00
00E2A:  DECFSZ 00,F
00E2C:  BRA    0E2A
00E2E:  NOP   
....................     output_high(LCD_clock_PIN); 
00E30:  BCF    F94.4
00E32:  BSF    F8B.4
....................     Delay_us(10); 
00E34:  MOVLW  10
00E36:  MOVWF  00
00E38:  DECFSZ 00,F
00E3A:  BRA    0E38
00E3C:  NOP   
....................     output_low(LCD_clock_PIN); 
00E3E:  BCF    F94.4
00E40:  BCF    F8B.4
00E42:  INCF   xB1,F
00E44:  BRA    0E20
....................   } 
....................   output_high(LCD_EN_PIN); 
00E46:  BCF    F93.0
00E48:  BSF    F8A.0
....................   delay_us(2); 
00E4A:  MOVLW  02
00E4C:  MOVWF  00
00E4E:  DECFSZ 00,F
00E50:  BRA    0E4E
00E52:  BRA    0E54
00E54:  NOP   
....................   output_low(LCD_EN_PIN); 
00E56:  BCF    F93.0
00E58:  BCF    F8A.0
00E5A:  MOVLB  0
00E5C:  RETURN 0
.................... } 
....................  
.................... void LCD_Cmd(unsigned int8 Command){ 
....................   RS = 0; 
00E5E:  BCF    1C.0
....................   lcd_write_nibble(Command >> 4); 
00E60:  MOVLB  3
00E62:  SWAPF  xA8,W
00E64:  MOVWF  xA9
00E66:  MOVLW  0F
00E68:  ANDWF  xA9,F
00E6A:  MOVFF  3A9,3B0
00E6E:  MOVLB  0
00E70:  RCALL  0DCC
....................   lcd_write_nibble(Command & 0x0F); 
00E72:  MOVLB  3
00E74:  MOVF   xA8,W
00E76:  ANDLW  0F
00E78:  MOVWF  xA9
00E7A:  MOVWF  xB0
00E7C:  MOVLB  0
00E7E:  RCALL  0DCC
....................   if((Command == 0x0C) || (Command == 0x01) || (Command == 0x0E) || (Command == 0x0F) 
....................   || (Command == 0x10) || (Command == 0x1E) || (Command == 0x18) || (Command == 0x08) 
....................   || (Command == 0x14) || (Command == 0x02)) 
00E80:  MOVLB  3
00E82:  MOVF   xA8,W
00E84:  SUBLW  0C
00E86:  BZ    0EBE
00E88:  DECFSZ xA8,W
00E8A:  BRA    0E8E
00E8C:  BRA    0EBE
00E8E:  MOVF   xA8,W
00E90:  SUBLW  0E
00E92:  BZ    0EBE
00E94:  MOVF   xA8,W
00E96:  SUBLW  0F
00E98:  BZ    0EBE
00E9A:  MOVF   xA8,W
00E9C:  SUBLW  10
00E9E:  BZ    0EBE
00EA0:  MOVF   xA8,W
00EA2:  SUBLW  1E
00EA4:  BZ    0EBE
00EA6:  MOVF   xA8,W
00EA8:  SUBLW  18
00EAA:  BZ    0EBE
00EAC:  MOVF   xA8,W
00EAE:  SUBLW  08
00EB0:  BZ    0EBE
00EB2:  MOVF   xA8,W
00EB4:  SUBLW  14
00EB6:  BZ    0EBE
00EB8:  MOVF   xA8,W
00EBA:  SUBLW  02
00EBC:  BNZ   0EC8
....................     Delay_ms(50); 
00EBE:  MOVLW  32
00EC0:  MOVWF  xA9
00EC2:  MOVLB  0
00EC4:  RCALL  0DA4
00EC6:  MOVLB  3
00EC8:  MOVLB  0
00ECA:  RETURN 0
.................... } 
....................  
.................... void LCD_GOTO(unsigned int8 col, unsigned int8 row){ 
....................   switch(row){ 
*
0119A:  MOVLW  01
0119C:  MOVLB  3
0119E:  SUBWF  xA6,W
011A0:  ADDLW  FC
011A2:  BC    11FE
011A4:  ADDLW  04
011A6:  MOVLB  0
011A8:  GOTO   1202
....................     case 1: 
....................       LCD_Cmd(0x80 + col-1); 
011AC:  MOVLW  80
011AE:  MOVLB  3
011B0:  ADDWF  xA5,W
011B2:  ADDLW  FF
011B4:  MOVWF  xA7
011B6:  MOVWF  xA8
011B8:  MOVLB  0
011BA:  RCALL  0E5E
....................       break; 
011BC:  MOVLB  3
011BE:  BRA    11FE
....................     case 2: 
....................       LCD_Cmd(0xC0 + col-1); 
011C0:  MOVLW  C0
011C2:  MOVLB  3
011C4:  ADDWF  xA5,W
011C6:  ADDLW  FF
011C8:  MOVWF  xA7
011CA:  MOVWF  xA8
011CC:  MOVLB  0
011CE:  RCALL  0E5E
....................       break; 
011D0:  MOVLB  3
011D2:  BRA    11FE
....................     case 3: 
....................       LCD_Cmd(0x94 + col-1); 
011D4:  MOVLW  94
011D6:  MOVLB  3
011D8:  ADDWF  xA5,W
011DA:  ADDLW  FF
011DC:  MOVWF  xA7
011DE:  MOVWF  xA8
011E0:  MOVLB  0
011E2:  RCALL  0E5E
....................       break; 
011E4:  MOVLB  3
011E6:  BRA    11FE
....................     case 4: 
....................       LCD_Cmd(0xD4 + col-1); 
011E8:  MOVLW  D4
011EA:  MOVLB  3
011EC:  ADDWF  xA5,W
011EE:  ADDLW  FF
011F0:  MOVWF  xA7
011F2:  MOVWF  xA8
011F4:  MOVLB  0
011F6:  RCALL  0E5E
....................     break; 
011F8:  MOVLB  3
011FA:  BRA    11FE
011FC:  MOVLB  3
....................   } 
011FE:  MOVLB  0
01200:  RETURN 0
.................... } 
....................  
.................... void LCD_Out(unsigned int8 LCD_Char){ 
....................   RS = 1;   
*
0122E:  BSF    1C.0
....................   lcd_write_nibble(LCD_Char >> 4); 
01230:  MOVLB  3
01232:  SWAPF  xAE,W
01234:  MOVWF  xAF
01236:  MOVLW  0F
01238:  ANDWF  xAF,F
0123A:  MOVFF  3AF,3B0
0123E:  MOVLB  0
01240:  RCALL  0DCC
....................   delay_us(10); 
01242:  MOVLW  10
01244:  MOVWF  00
01246:  DECFSZ 00,F
01248:  BRA    1246
0124A:  NOP   
....................   lcd_write_nibble(LCD_Char & 0x0F);break; 
0124C:  MOVLB  3
0124E:  MOVF   xAE,W
01250:  ANDLW  0F
01252:  MOVWF  xAF
01254:  MOVWF  xB0
01256:  MOVLB  0
01258:  RCALL  0DCC
0125A:  RETURN 0
.................... } 
....................  
.................... void LCD_Initialize(){ 
....................   RS = 0; 
*
00ECC:  BCF    1C.0
....................   output_low(LCD_DATA_PIN); 
00ECE:  BCF    F94.3
00ED0:  BCF    F8B.3
....................   output_low(LCD_CLOCK_PIN); 
00ED2:  BCF    F94.4
00ED4:  BCF    F8B.4
....................   output_low(LCD_EN_PIN); 
00ED6:  BCF    F93.0
00ED8:  BCF    F8A.0
....................   output_drive(LCD_DATA_PIN); 
00EDA:  BCF    F94.3
....................   output_drive(LCD_CLOCK_PIN); 
00EDC:  BCF    F94.4
....................   output_drive(LCD_EN_PIN); 
00EDE:  BCF    F93.0
....................   delay_ms(40); 
00EE0:  MOVLW  28
00EE2:  MOVLB  3
00EE4:  MOVWF  xA9
00EE6:  MOVLB  0
00EE8:  RCALL  0DA4
....................   lcd_Cmd(3); 
00EEA:  MOVLW  03
00EEC:  MOVLB  3
00EEE:  MOVWF  xA8
00EF0:  MOVLB  0
00EF2:  RCALL  0E5E
....................   delay_ms(5); 
00EF4:  MOVLW  05
00EF6:  MOVLB  3
00EF8:  MOVWF  xA9
00EFA:  MOVLB  0
00EFC:  RCALL  0DA4
....................   lcd_Cmd(3); 
00EFE:  MOVLW  03
00F00:  MOVLB  3
00F02:  MOVWF  xA8
00F04:  MOVLB  0
00F06:  RCALL  0E5E
....................   delay_ms(5); 
00F08:  MOVLW  05
00F0A:  MOVLB  3
00F0C:  MOVWF  xA9
00F0E:  MOVLB  0
00F10:  RCALL  0DA4
....................   lcd_Cmd(3); 
00F12:  MOVLW  03
00F14:  MOVLB  3
00F16:  MOVWF  xA8
00F18:  MOVLB  0
00F1A:  RCALL  0E5E
....................   delay_ms(5); 
00F1C:  MOVLW  05
00F1E:  MOVLB  3
00F20:  MOVWF  xA9
00F22:  MOVLB  0
00F24:  RCALL  0DA4
....................   lcd_Cmd(2); 
00F26:  MOVLW  02
00F28:  MOVLB  3
00F2A:  MOVWF  xA8
00F2C:  MOVLB  0
00F2E:  RCALL  0E5E
....................   delay_ms(5); 
00F30:  MOVLW  05
00F32:  MOVLB  3
00F34:  MOVWF  xA9
00F36:  MOVLB  0
00F38:  RCALL  0DA4
....................   lcd_Cmd(0x28); 
00F3A:  MOVLW  28
00F3C:  MOVLB  3
00F3E:  MOVWF  xA8
00F40:  MOVLB  0
00F42:  RCALL  0E5E
....................   delay_ms(50); 
00F44:  MOVLW  32
00F46:  MOVLB  3
00F48:  MOVWF  xA9
00F4A:  MOVLB  0
00F4C:  RCALL  0DA4
....................   lcd_Cmd(0x0C); 
00F4E:  MOVLW  0C
00F50:  MOVLB  3
00F52:  MOVWF  xA8
00F54:  MOVLB  0
00F56:  RCALL  0E5E
....................   delay_ms(50); 
00F58:  MOVLW  32
00F5A:  MOVLB  3
00F5C:  MOVWF  xA9
00F5E:  MOVLB  0
00F60:  RCALL  0DA4
....................   lcd_Cmd(0x06); 
00F62:  MOVLW  06
00F64:  MOVLB  3
00F66:  MOVWF  xA8
00F68:  MOVLB  0
00F6A:  RCALL  0E5E
....................   delay_ms(50); 
00F6C:  MOVLW  32
00F6E:  MOVLB  3
00F70:  MOVWF  xA9
00F72:  MOVLB  0
00F74:  RCALL  0DA4
....................   lcd_Cmd(0x0C); 
00F76:  MOVLW  0C
00F78:  MOVLB  3
00F7A:  MOVWF  xA8
00F7C:  MOVLB  0
00F7E:  RCALL  0E5E
....................   delay_ms(50); 
00F80:  MOVLW  32
00F82:  MOVLB  3
00F84:  MOVWF  xA9
00F86:  MOVLB  0
00F88:  RCALL  0DA4
00F8A:  RETURN 0
.................... } 
....................  
.................... #include "internal_eeprom.c" 
.................... //////////////////////////////////////////////////////////////////////////////// 
.................... ////                          internal_eeprom.c                             //// 
.................... ////                                                                        //// 
.................... ////       Utilities to write various data types to internal eeprom         //// 
.................... //////////////////////////////////////////////////////////////////////////////// 
.................... ////                                                                        //// 
.................... ////   void write_int1_eeprom(address, int8 bitPosition, int1 data)         //// 
.................... ////     Call to write one bit of data                                      //// 
.................... ////                                                                        //// 
.................... ////   int1 read_int1_eeprom(address, int8 bitPosition)                     //// 
.................... ////     Call to read one bit of data                                       //// 
.................... ////                                                                        //// 
.................... ////                                                                        //// 
.................... ////   void write_int16_eeprom(address, int16 data)                         //// 
.................... ////     Call to write a 16 bit integer                                     //// 
.................... ////                                                                        //// 
.................... ////   void write_int16_eeprom(address, int16 data)                         //// 
.................... ////     Call to read a 16 bit integer                                      //// 
.................... ////                                                                        //// 
.................... ////                                                                        //// 
.................... ////   void write_int32_eeprom(address, int32 data)                         //// 
.................... ////     Call to write a 32 bit integer                                     //// 
.................... ////                                                                        //// 
.................... ////   int16 read_int32_eeprom(address)                                     //// 
.................... ////     Call to read a 32 bit integer                                      //// 
.................... ////                                                                        //// 
.................... ////                                                                        //// 
.................... ////   void write_float_eeprom(address, float data)                         //// 
.................... ////     Call to write a 32 bit floating point number                       //// 
.................... ////                                                                        //// 
.................... ////   float read_float_eeprom(address)                                     //// 
.................... ////     Call to read a 32 bit floating point number                        //// 
.................... ////                                                                        //// 
.................... ////  PCD only:                                                             //// 
.................... ////   void write_int48_eeprom(address, int48 data)                         //// 
.................... ////     Call to write a 48 bit integer                                     //// 
.................... ////                                                                        //// 
.................... ////   int48 read_int48_eeprom(address)                                     //// 
.................... ////     Call to read a 48 bit integer                                      //// 
.................... ////                                                                        //// 
.................... ////   void write_int64_eeprom(address, int64 data)                         //// 
.................... ////     Call to write a 64 bit integer                                     //// 
.................... ////                                                                        //// 
.................... ////   int64 read_int64_eeprom(address)                                     //// 
.................... ////     Call to read a 64 bit integer                                      //// 
.................... ////                                                                        //// 
.................... ////   void write_float48_eeprom(address, float48 data)                     //// 
.................... ////     Call to write a 48 bit floating point number                       //// 
.................... ////                                                                        //// 
.................... ////   float48 read_float48_eeprom(address)                                 //// 
.................... ////     Call to read a 48 bit floating point number                        //// 
.................... ////                                                                        //// 
.................... ////   void write_float64_eeprom(address, float64 data)                     //// 
.................... ////     Call to write a 64 bit floating point number                       //// 
.................... ////                                                                        //// 
.................... ////   float64 read_float64_eeprom(address)                                 //// 
.................... ////     Call to read a 64 bit floating point number                        //// 
.................... ////                                                                        //// 
.................... //////////////////////////////////////////////////////////////////////////////// 
.................... ////        (C) Copyright 1996, 2012 Custom Computer Services               //// 
.................... //// This source code may only be used by licensed users of the CCS C       //// 
.................... //// compiler.  This source code may only be distributed to other licensed  //// 
.................... //// users of the CCS C compiler.  No other use, reproduction or            //// 
.................... //// distribution is permitted without written permission. Derivative       //// 
.................... //// programs created using this software in object code form are not       //// 
.................... //// restricted in any way.                                                 //// 
.................... //////////////////////////////////////////////////////////////////////////////// 
....................  
....................  
.................... #ifndef INTERNAL_EEPROM_UTILITIES 
.................... #define INTERNAL_EEPROM_UTILITIES 
....................  
.................... // Used to adjust the address range 
.................... #ifndef INT_EEPROM_ADDRESS 
.................... #if getenv("DATA_EEPROM") > 255 
.................... #define INT_EEPROM_ADDRESS  unsigned int16 
.................... #else 
.................... #define INT_EEPROM_ADDRESS  unsigned int8 
.................... #endif 
.................... #endif 
....................  
.................... #ifndef INT_EEPROM_DATA_SIZE 
.................... #ifdef (__PCD__) 
.................... #define INT_EEPROM_DATA_SIZE unsigned int16 
.................... #else 
.................... #define INT_EEPROM_DATA_SIZE unsigned int8 
.................... #endif 
....................  
.................... //////////////////////////////////////////////////////////////////////////////// 
.................... //// Internal EEPROM Functions 
.................... //////////////////////////////////////////////////////////////////////////////// 
....................  
.................... // Purpose:    Write one bit to internal eeprom 
.................... // Inputs:     1) An eeprom address 
.................... //             2) The bit position (LSB == 0) 
.................... //             3) The bit to write 
.................... // Outputs:    None 
.................... void write_int1_eeprom(INT_EEPROM_ADDRESS address, unsigned int8 bitPosition, int1 data) 
.................... { 
....................    INT_EEPROM_DATA_SIZE stored_data; 
....................  
....................    stored_data = read_eeprom(address); 
....................  
....................    if(data) 
....................    { 
....................       bit_set(stored_data, bitPosition); 
....................    } 
....................    else 
....................    { 
....................       bit_clear(stored_data, bitPosition); 
....................    } 
....................  
....................    write_eeprom(address, stored_data); 
.................... } 
....................  
....................  
.................... // Purpose:    Read one bit from internal eeprom 
.................... // Inputs:     1) An eeprom address 
.................... //             2) The bit position (LSB == 0) 
.................... // Outputs:    The bit read from internal eeprom 
.................... int1 read_int1_eeprom(INT_EEPROM_ADDRESS address, unsigned int8 bitPosition) 
.................... { 
....................    return bit_test(read_eeprom(address), bitPosition); 
.................... } 
....................  
....................  
.................... // Purpose:    Write a 16 bit number to internal eeprom 
.................... // Inputs:     1) An eeprom address. Two eeprom locations will be used. 
.................... //             2) The 16 bit number to write to internal eeprom 
.................... // Outputs:    None 
.................... void write_int16_eeprom(INT_EEPROM_ADDRESS address, unsigned int16 data) 
.................... { 
....................    #ifdef __PCD__ 
....................    write_eeprom(address,data); 
....................    #else 
....................    int8 i; 
....................  
....................    for(i = 0; i < 2; ++i) 
....................    { 
....................      write_eeprom(address + i, *((int8 *)(&data) + i)); 
....................    } 
....................    #endif 
.................... } 
....................  
....................  
.................... // Purpose:    Read a 16 bit number from internal eeprom 
.................... // Inputs:     An eeprom address 
.................... // Outputs:    The 16 bit number read from internal eeprom 
.................... unsigned int16 read_int16_eeprom(INT_EEPROM_ADDRESS address) 
.................... { 
....................    #ifdef __PCD__ 
....................    return(read_eeprom(address)); 
....................    #else 
....................    int8  i; 
....................    int16 data; 
....................  
....................    for(i = 0; i < 2; ++i) 
....................    { 
....................      *((int8 *)(&data) + i) = read_eeprom(address + i); 
....................    } 
....................  
....................    return(data); 
....................    #endif 
.................... } 
....................  
....................  
.................... // Purpose:    Write a 32 bit integer to internal eeprom 
.................... // Inputs:     1) An eeprom address. Four eeprom locations will be used. 
.................... //             2) The 32 bit number to write to internal eeprom 
.................... // Outputs:    None 
.................... void write_int32_eeprom(INT_EEPROM_ADDRESS address, unsigned int32 data) 
.................... { 
....................    #ifdef __PCD__ 
....................    write_eeprom(address, &data, 4); 
....................    #else 
....................    int8 i; 
....................     
....................    for(i = 0; i < 4; i++) 
....................      write_eeprom(address + i, *((int8 *)(&data) + i)); 
....................    #endif 
.................... } 
....................  
....................  
.................... // Purpose:    Read a 32 bit integer from internal eeprom 
.................... // Inputs:     An eeprom address 
.................... // Outputs:    The 32 bit integer read from internal eeprom 
.................... unsigned int32 read_int32_eeprom(INT_EEPROM_ADDRESS address) 
.................... { 
....................    #ifdef __PCD__ 
....................    return(read_eeprom(address, 4)); 
....................    #else 
....................    int8  i; 
....................    int32 data; 
....................     
....................    for(i = 0; i < 4; i++) 
....................      *((int8 *)(&data) + i) = read_eeprom(address + i); 
....................  
....................    return(data); 
....................    #endif 
.................... } 
....................  
....................  
.................... // Purpose:    Write a 32 bit floating point number to internal eeprom 
.................... // Inputs:     1) An eeprom address. Four eeprom locations will be used. 
.................... //             2) The floating point number to write to internal eeprom 
.................... // Outputs:    None 
.................... void write_float_eeprom(INT_EEPROM_ADDRESS address, float32 data) 
.................... { 
....................    #ifdef __PCD__ 
....................    write_eeprom(address, &data, 4); 
....................    #else 
....................    int8 i; 
....................     
....................    for(i = 0; i < 4; i++) 
....................      write_eeprom(address + i, *((int8 *)(&data) + i)); 
....................    #endif 
.................... } 
....................  
....................  
.................... // Purpose:    Read a 32 bit floating point number from internal eeprom 
.................... // Inputs:     An eeprom address 
.................... // Outputs:    The floating point number read from the internal eeprom 
.................... float32 read_float_eeprom(INT_EEPROM_ADDRESS address) 
.................... { 
....................    float32 data; 
....................  
....................    #ifdef __PCD__ 
....................    read_eeprom(address, &data, 4); 
....................     
....................    return(data); 
....................    #else 
....................    int8 i; 
....................     
....................    for(i = 0; i < 4; i++) 
....................      *((int8 *)(&data) + i) = read_eeprom(address + i); 
....................  
....................    return(data); 
....................    #endif 
.................... } 
....................  
.................... #ifdef __PCD__ 
.................... // Purpose:    Write a 48 bit integer to internal eeprom 
.................... // Inputs:     1) An eeprom address. Six eeprom locations will be used. 
.................... //             2) The 48 bit number to write to internal eeprom 
.................... // Outputs:    None 
.................... void write_int48_eeprom(INT_EEPROM_ADDRESS address, unsigned int48 data) 
.................... { 
....................    write_eeprom(address, &data, 6); 
.................... } 
....................  
....................  
.................... // Purpose:    Read a 48 bit integer from internal eeprom 
.................... // Inputs:     An eeprom address 
.................... // Outputs:    The 48 bit integer read from internal eeprom 
.................... unsigned int48 read_int48_eeprom(INT_EEPROM_ADDRESS address) 
.................... { 
....................    return(read_eeprom(address, 6)); 
.................... } 
....................  
....................  
.................... // Purpose:    Write a 64 bit integer to internal eeprom 
.................... // Inputs:     1) An eeprom address. Eight eeprom locations will be used. 
.................... //             2) The 64 bit number to write to internal eeprom 
.................... // Outputs:    None 
.................... void write_int64_eeprom(INT_EEPROM_ADDRESS address, unsigned int64 data) 
.................... { 
....................    write_eeprom(address, &data, 8); 
.................... } 
....................  
....................  
.................... // Purpose:    Read a 64 bit integer from internal eeprom 
.................... // Inputs:     An eeprom address 
.................... // Outputs:    The 64 bit integer read from internal eeprom 
.................... unsigned int64 read_int64_eeprom(INT_EEPROM_ADDRESS address) 
.................... { 
....................    return(read_eeprom(address, 8)); 
.................... } 
....................  
....................  
.................... // Purpose:    Write a 48 bit floating point number to internal eeprom 
.................... // Inputs:     1) An eeprom address. Six eeprom locations will be used. 
.................... //             2) The floating point number to write to internal eeprom 
.................... // Outputs:    None 
.................... void write_float48_eeprom(INT_EEPROM_ADDRESS address, float48 data) 
.................... { 
....................    write_eeprom(address, &data, 6); 
.................... } 
....................  
....................  
.................... // Purpose:    Read a 48 bit floating point number from internal eeprom 
.................... // Inputs:     An eeprom address 
.................... // Outputs:    The floating point number read from the internal eeprom 
.................... float48 read_float48_eeprom(INT_EEPROM_ADDRESS address) 
.................... { 
....................    float48 data; 
....................  
....................    read_eeprom(address, &data, 6); 
....................     
....................    return(data); 
.................... } 
....................  
....................  
.................... // Purpose:    Write a 64 bit floating point number to internal eeprom 
.................... // Inputs:     1) An eeprom address. Eight eeprom locations will be used. 
.................... //             2) The floating point number to write to internal eeprom 
.................... // Outputs:    None 
.................... void write_float64_eeprom(INT_EEPROM_ADDRESS address, float64 data) 
.................... { 
....................    write_eeprom(address, &data, 8); 
.................... } 
....................  
....................  
.................... // Purpose:    Read a 64 bit floating point number from internal eeprom 
.................... // Inputs:     An eeprom address 
.................... // Outputs:    The floating point number read from the internal eeprom 
.................... float64 read_float64_eeprom(INT_EEPROM_ADDRESS address) 
.................... { 
....................    float64 data; 
....................  
....................    read_eeprom(address, &data, 8); 
....................     
....................    return(data); 
.................... } 
....................  
.................... #endif 
....................     
....................  
.................... #endif 
....................  
....................  
.................... #use fast_io (C) 
.................... #use fast_io (B) 
....................  
.................... // Programming mode keys 
.................... #define key1 PIN_B3  // Select 2P / Increment/ON 
.................... #define key2 PIN_B2  // Select 3P / Decrement/OFF 
.................... #define ON PIN_B4 
.................... #define OFF PIN_B5 
....................  
....................  
.................... #define RLED PIN_C0 
.................... #define YLED PIN_C1 
.................... #define BLED PIN_B1 
....................   
....................  
.................... // Rotary Encoder Pin Definitions 
.................... #define ENCODER_A   PIN_C5 
.................... #define ENCODER_B    PIN_A4 
.................... #define ENCODER_SW    PIN_B6 
....................  
.................... int8 last_state_A = 1; 
.................... int encoder_last_state = 1;  // default for A input 
....................  
.................... int16 handle_parameter_input(char* title, int16 value, int16 min, int16 max); 
.................... int16 sd_delay=0; 
.................... // Debug pin 
....................   
....................  
.................... // Phase voltage and current variables 
.................... int16 rvolt = 0, yvolt = 0, bvolt = 0; 
....................  
.................... int8 rvolt1 = 0, yvolt1 = 0, bvolt1 = 0; 
.................... int8 rvolt2 = 0, yvolt2 = 0, bvolt2 = 0; 
.................... int8 rvolt3= 0, yvolt3 = 0, bvolt3 = 0; 
....................   
....................  
.................... int16 ramp = 0, yamp = 0, bamp = 0; 
....................  
.................... int8 ramp1 = 0, yamp1 = 0, bamp1 = 0; 
.................... int8 ramp2 = 0, yamp2 = 0, bamp2 = 0; 
....................  
.................... int16 delay_time1=0; 
....................   
....................  
.................... int encoderPos = 0;  
.................... int prog = 0;  // 0=Normal, 1=Menu Mode 
.................... int8 phase_setting = 0;  // 0=2P, 1=3P 
.................... int8 trip_status = 0; // 0 = OK, 1 = TRIP 
....................  
.................... // Juice Control variables 
.................... int16 hv_value = 0; 
.................... int16 lv_value = 0; 
.................... int16 ol_value = 0; 
.................... int juice_param = 0;  // 0=HV, 1=LV, 2=OL 
.................... int digit_pos = 0;   // 0=hundreds, 1=tens, 2=units 
.................... int editing = 0; 
....................  
.................... // Smart Navigation Variables 
.................... #define MAX_MENU_INDEX 15 
.................... int menu_number = 1;   
.................... int8 in_menu_selection = 1;  
....................  
.................... static int8 encoder_blocked = 0; 
....................  
.................... char* menu_titles[] = { 
....................    "", 
....................    "1.PHASE SETTING", 
....................    "2.JUICE CONTROL",        
....................    "3.POWER ON DELAY", 
....................    "4.SET ON TIME",          
....................    "5.STAR DELTA DLY", 
....................    "6.VOLT SETTING",     
....................    "7.DRY RUN DELAY",       
....................    "8.DRYRUN RESTART",       
....................    "9.DRYRUN TRIP",          
....................    "10.CYCLIC TIMER",       
....................    "11.AUTO START",          
....................    "12.UNBALANCED TRP",     
....................    "13.CT TYPE",            
....................    "14.PI TEST",            
....................    "15.EXIT TO MAIN"         
.................... }; 
....................   
....................   
....................  #byte RCON = 0xFD0 
.................... #bit IPEN  = RCON.7 
.................... #byte IPR1 = 0xF9F 
.................... #bit ADIP  = IPR1.5 
.................... #bit RCIP  = IPR1.6 
.................... #bit TMR1IP = IPR1.0 
.................... #priority  int_RDA,INT_AD, INT_TIMER1 
.................... ///// new 
.................... #define SCALE_FACTOR 390.4 
.................... #define THRESHOLD 140 
....................  
.................... #define PHASE_R 0  // AN0 
.................... #define PHASE_Y 1  // AN1 
.................... #define PHASE_B 2  // AN2 
....................  
....................  
.................... int8 phase; 
.................... int8 cy_timer; 
.................... int dry_rst=0; 
.................... int8 sec_counter = 0; 
.................... int16 adc_values[6] = {0,0,0,1023,1023,1023}; 
.................... int16 voltages[3] = {0}; 
.................... float currents[3] = {0}; 
.................... int update_flag = 0; 
.................... int channel = 0; 
.................... int wait = 0; 
.................... float temp_amp=0; 
.................... char ryb[]="123"; 
.................... char rby[]="132"; 
....................  
.................... // Phase Sequence Detection 
.................... int16 last_val[3] = {150, 150, 150}; 
.................... int1 crossed[3] = {0, 0, 0}; 
.................... int8 sequence[3] = {0}; 
.................... int8 seq_index = 0; 
.................... int8 ryb_detected = 0; 
.................... int1 seq_flag=0; 
....................  
....................  
.................... int16 drys=0; 
.................... int16 drya=0; 
.................... int16 aut = 0; 
.................... int8  state=0;   
.................... int8 on_state=0; 
.................... int8 volt_level= 0; 
.................... int8 amps_level= 0; 
.................... unsigned long int dry_s=0; 
.................... int8 auto_state=0; 
.................... unsigned long int auto_start_s=0; 
.................... unsigned long int dry_reset_s=0; 
.................... int16 old_value[3]={0}; 
.................... int8 now=0; 
.................... int8 t_state=0; 
.................... //////////////////////////// Dry Run//////////////////////////////////////////// 
.................... float currentr = 0; 
.................... float currentr2 = 0; 
.................... float currentr3 = 0; 
.................... int16 vr=0; 
.................... int16 vy=0; 
.................... int16 vb=0; 
.................... long int vr1 = 0; 
.................... long int vy1 = 0; 
.................... long int vb1 = 0; 
.................... char b[4]; 
.................... unsigned long int onstate=0; 
.................... char q='a'; 
.................... int i=0; 
.................... char temp; 
.................... char temp3; 
.................... int8 RX_Command_Ready = 0;  
.................... int8 Index = 0;      
.................... char RxBuffer[60]; 
.................... char RxBuffer1[60]; 
.................... int1 RxBufferflag1 =0; 
.................... char Rxcyclic[93]; 
.................... int1 Rxcyclicflag =0; 
.................... int8 sentflg=0; 
.................... int8 sentflg2=0; 
.................... int1 setm=0; 
.................... int flgst=0; 
.................... int8 res=0; 
.................... int1 ckflg=0; 
....................  int16 h_voltr,h_volty,h_voltb,l_voltr,l_volty,l_voltb,over_cr,over_cy,over_cb=0; 
....................  int dly=0; 
....................  int16 on_delay=0; 
....................  int8 off_delay=0; 
....................  int8 pw_ondly=0; 
....................  
.................... int8 cyclic_time[10][2] = {0};  
.................... int8 time_h=14,time_m=41,time_s=51; 
.................... int8 t_c,t_h,t_m,t_s=0; 
.................... int c_cycle=0; 
.................... int c_m_state=0; 
.................... int s_c=0; 
.................... int16 dry_restart_val = 90; // default 
....................  
.................... int8 cyclic_state =0; 
.................... int setsw=0; 
.................... int time_en=0; 
.................... int time_en2=0; 
....................  
.................... int h_time,m_time,s_time; 
.................... int1  seqok=0; 
....................  
.................... // Smart Navigation Function declarations 
.................... void show_menu_selection(void); 
.................... void handle_menu_navigation(void); 
.................... void advance_to_next_menu(void); 
....................  
....................  //////////////////////////////////////////////////////////////// 
....................  // === ADC INTERRUPT === 
.................... #int_AD 
.................... void adc_isr()  
*
00160:  BTFSC  FC2.1
00162:  BRA    0160
00164:  MOVFF  FC4,3C3
00168:  MOVLB  3
0016A:  MOVFF  FC3,3C2
.................... { 
....................    int16 adc_sample=read_adc(ADC_READ_ONLY); 
....................    if(channel<=2&&adc_sample>adc_values[channel]) 
0016E:  MOVLB  1
00170:  MOVF   x76,W
00172:  SUBLW  02
00174:  BNC   01CA
00176:  BCF    FD8.0
00178:  RLCF   x76,W
0017A:  CLRF   03
0017C:  ADDLW  57
0017E:  MOVWF  FE9
00180:  MOVLW  01
00182:  ADDWFC 03,W
00184:  MOVWF  FEA
00186:  MOVFF  FEC,03
0018A:  MOVF   FED,F
0018C:  MOVFF  FEF,01
00190:  MOVF   03,W
00192:  MOVLB  3
00194:  SUBWF  xC3,W
00196:  BTFSC  FD8.0
00198:  BRA    019E
0019A:  MOVLB  1
0019C:  BRA    01CA
0019E:  BNZ   01AC
001A0:  MOVF   xC2,W
001A2:  SUBWF  01,W
001A4:  BTFSS  FD8.0
001A6:  BRA    01AC
001A8:  MOVLB  1
001AA:  BRA    01CA
....................    { 
....................       adc_values[channel]=adc_sample; 
001AC:  BCF    FD8.0
001AE:  MOVLB  1
001B0:  RLCF   x76,W
001B2:  CLRF   03
001B4:  ADDLW  57
001B6:  MOVWF  FE9
001B8:  MOVLW  01
001BA:  ADDWFC 03,W
001BC:  MOVWF  FEA
001BE:  MOVFF  3C3,FEC
001C2:  MOVF   FED,F
001C4:  MOVFF  3C2,FEF
....................       } else if(channel>2&&adc_sample<adc_values[channel]){ 
001C8:  BRA    0222
001CA:  MOVF   x76,W
001CC:  SUBLW  02
001CE:  BC    0222
001D0:  BCF    FD8.0
001D2:  RLCF   x76,W
001D4:  CLRF   03
001D6:  ADDLW  57
001D8:  MOVWF  FE9
001DA:  MOVLW  01
001DC:  ADDWFC 03,W
001DE:  MOVWF  FEA
001E0:  MOVFF  FEC,03
001E4:  MOVF   FED,F
001E6:  MOVFF  FEF,01
001EA:  MOVLB  3
001EC:  MOVF   xC3,W
001EE:  SUBWF  03,W
001F0:  BTFSC  FD8.0
001F2:  BRA    01F8
001F4:  MOVLB  1
001F6:  BRA    0222
001F8:  BNZ   0206
001FA:  MOVF   01,W
001FC:  SUBWF  xC2,W
001FE:  BTFSS  FD8.0
00200:  BRA    0206
00202:  MOVLB  1
00204:  BRA    0222
....................       adc_values[channel]=adc_sample; 
00206:  BCF    FD8.0
00208:  MOVLB  1
0020A:  RLCF   x76,W
0020C:  CLRF   03
0020E:  ADDLW  57
00210:  MOVWF  FE9
00212:  MOVLW  01
00214:  ADDWFC 03,W
00216:  MOVWF  FEA
00218:  MOVFF  3C3,FEC
0021C:  MOVF   FED,F
0021E:  MOVFF  3C2,FEF
....................    } 
....................    //Zero-cross detection(only for voltage channels) 
....................    if(channel<=2&&(last_val[channel]>THRESHOLD)&&(adc_sample<=THRESHOLD)) 
00222:  MOVF   x76,W
00224:  SUBLW  02
00226:  BNC   02AE
00228:  BCF    FD8.0
0022A:  RLCF   x76,W
0022C:  CLRF   03
0022E:  ADDLW  84
00230:  MOVWF  FE9
00232:  MOVLW  01
00234:  ADDWFC 03,W
00236:  MOVWF  FEA
00238:  MOVFF  FEC,3C5
0023C:  MOVF   FED,F
0023E:  MOVFF  FEF,3C4
00242:  MOVLB  3
00244:  MOVF   xC5,F
00246:  BNZ   0254
00248:  MOVF   xC4,W
0024A:  SUBLW  8C
0024C:  BTFSS  FD8.0
0024E:  BRA    0254
00250:  MOVLB  1
00252:  BRA    02AE
00254:  MOVF   xC3,F
00256:  BTFSC  FD8.2
00258:  BRA    025E
0025A:  MOVLB  1
0025C:  BRA    02AE
0025E:  MOVF   xC2,W
00260:  SUBLW  8C
00262:  BTFSC  FD8.0
00264:  BRA    026A
00266:  MOVLB  1
00268:  BRA    02AE
....................    { 
....................       if(!crossed[channel]) 
0026A:  MOVFF  176,3C4
0026E:  MOVLW  01
00270:  MOVWF  xC6
00272:  MOVLW  8A
00274:  MOVWF  xC5
00276:  MOVLB  0
00278:  BRA    00E8
0027A:  BTFSC  01.0
0027C:  BRA    02B0
....................       { 
....................          crossed[channel]=1; 
0027E:  MOVFF  176,3C4
00282:  MOVLW  01
00284:  MOVLB  3
00286:  MOVWF  xC5
00288:  MOVWF  xC7
0028A:  MOVLW  8A
0028C:  MOVWF  xC6
0028E:  MOVLB  0
00290:  BRA    011C
....................          if(seq_index<3) 
00292:  MOVLB  1
00294:  MOVF   x8E,W
00296:  SUBLW  02
00298:  BNC   02AE
....................             sequence[seq_index++]=channel; 
0029A:  MOVF   x8E,W
0029C:  INCF   x8E,F
0029E:  CLRF   03
002A0:  ADDLW  8B
002A2:  MOVWF  FE9
002A4:  MOVLW  01
002A6:  ADDWFC 03,W
002A8:  MOVWF  FEA
002AA:  MOVFF  176,FEF
002AE:  MOVLB  0
....................       } 
....................    } 
....................    if(channel<=2) 
002B0:  MOVLB  1
002B2:  MOVF   x76,W
002B4:  SUBLW  02
002B6:  BNC   02D2
....................       last_val[channel]=adc_sample; 
002B8:  BCF    FD8.0
002BA:  RLCF   x76,W
002BC:  CLRF   03
002BE:  ADDLW  84
002C0:  MOVWF  FE9
002C2:  MOVLW  01
002C4:  ADDWFC 03,W
002C6:  MOVWF  FEA
002C8:  MOVFF  3C3,FEC
002CC:  MOVF   FED,F
002CE:  MOVFF  3C2,FEF
....................    //Next logical channel 
....................    if(wait==0) 
002D2:  MOVF   x77,F
002D4:  BNZ   0306
....................    { 
....................       switch(channel) 
002D6:  MOVF   x76,W
002D8:  XORLW  00
002DA:  MOVLB  0
002DC:  BZ    02E8
002DE:  XORLW  01
002E0:  BZ    02F2
002E2:  XORLW  03
002E4:  BZ    02FC
002E6:  BRA    0302
....................       { 
....................          case 0: channel=1;break; 
002E8:  MOVLW  01
002EA:  MOVLB  1
002EC:  MOVWF  x76
002EE:  MOVLB  0
002F0:  BRA    0302
....................          case 1: channel=2;break; 
002F2:  MOVLW  02
002F4:  MOVLB  1
002F6:  MOVWF  x76
002F8:  MOVLB  0
002FA:  BRA    0302
....................          case 2: channel=0;break; 
002FC:  MOVLB  1
002FE:  CLRF   x76
00300:  MOVLB  0
....................       } 
....................       } else { 
00302:  BRA    0342
00304:  MOVLB  1
....................       switch(channel) 
00306:  MOVF   x76,W
00308:  ADDLW  FA
0030A:  BC    0344
0030C:  ADDLW  06
0030E:  MOVLB  0
00310:  GOTO   0374
....................       { 
....................          case 0: channel=1;break; 
00314:  MOVLW  01
00316:  MOVLB  1
00318:  MOVWF  x76
0031A:  BRA    0344
....................          case 1: channel=2;break; 
0031C:  MOVLW  02
0031E:  MOVLB  1
00320:  MOVWF  x76
00322:  BRA    0344
....................          case 2: channel=3;break; 
00324:  MOVLW  03
00326:  MOVLB  1
00328:  MOVWF  x76
0032A:  BRA    0344
....................          case 3: channel=4;break; 
0032C:  MOVLW  04
0032E:  MOVLB  1
00330:  MOVWF  x76
00332:  BRA    0344
....................          case 4: channel=5;break; 
00334:  MOVLW  05
00336:  MOVLB  1
00338:  MOVWF  x76
0033A:  BRA    0344
....................          case 5: channel=0;break; 
0033C:  MOVLB  1
0033E:  CLRF   x76
00340:  BRA    0344
00342:  MOVLB  1
....................       } 
....................    } 
....................    if(channel==5) 
00344:  MOVF   x76,W
00346:  SUBLW  05
00348:  BNZ   0358
....................       set_adc_channel(14); 
0034A:  MOVLW  38
0034C:  MOVWF  01
0034E:  MOVF   FC2,W
00350:  ANDLW  83
00352:  IORWF  01,W
00354:  MOVWF  FC2
00356:  BRA    036A
....................       else 
....................       set_adc_channel(channel); 
00358:  RLCF   x76,W
0035A:  MOVWF  00
0035C:  RLCF   00,F
0035E:  MOVLW  FC
00360:  ANDWF  00,F
00362:  MOVF   FC2,W
00364:  ANDLW  83
00366:  IORWF  00,W
00368:  MOVWF  FC2
....................        
....................       read_adc(ADC_START_ONLY); 
0036A:  BSF    FC2.1
.................... } 
....................  
.................... /////////////////////////////////CT /////////////////////////////////////////// 
0036C:  BCF    F9E.6
0036E:  MOVLB  0
00370:  GOTO   0060
.................... #int_TIMER1 
.................... void timer1_isr()  
.................... { 
....................    sec_counter++; 
*
003BC:  MOVLB  1
003BE:  INCF   x56,F
....................    if(h_time != 0 || m_time != 0 || s_time != 0) { 
003C0:  MOVLB  2
003C2:  MOVF   xE1,F
003C4:  BNZ   03CE
003C6:  MOVF   xE2,F
003C8:  BNZ   03CE
003CA:  MOVF   xE3,F
003CC:  BZ    03FE
....................       time_en++; 
003CE:  INCF   xDF,F
....................  
....................       if(time_en >= 20) { 
003D0:  MOVF   xDF,W
003D2:  SUBLW  13
003D4:  BC    03FE
....................          time_en = 0; 
003D6:  CLRF   xDF
....................  
....................          if(s_time > 0) { 
003D8:  MOVF   xE3,F
003DA:  BZ    03E0
....................             s_time--; 
003DC:  DECF   xE3,F
....................          } else { 
003DE:  BRA    03FE
....................             s_time = 59; 
003E0:  MOVLW  3B
003E2:  MOVWF  xE3
....................  
....................             if(m_time > 0) { 
003E4:  MOVF   xE2,F
003E6:  BZ    03EC
....................                m_time--; 
003E8:  DECF   xE2,F
....................             } else { 
003EA:  BRA    03FE
....................                m_time = 59; 
003EC:  MOVLW  3B
003EE:  MOVWF  xE2
....................  
....................                if(h_time > 0) { 
003F0:  MOVF   xE1,F
003F2:  BZ    03F8
....................                   h_time--; 
003F4:  DECF   xE1,F
....................                } else { 
003F6:  BRA    03FE
....................                   time_h = 0; 
003F8:  CLRF   xD1
....................                   time_m = 0; 
003FA:  CLRF   xD2
....................                   time_s = 0; 
003FC:  CLRF   xD3
....................                } 
....................             } 
....................          } 
....................       } 
....................    } 
....................     
....................     
....................    time_en2++; 
003FE:  INCF   xE0,F
....................       if(time_en2 >= 20) { 
00400:  MOVF   xE0,W
00402:  SUBLW  13
00404:  BC    0410
....................          time_en2 = 0; 
00406:  CLRF   xE0
....................  
....................          if(dly < 59) { 
00408:  MOVF   xB8,W
0040A:  SUBLW  3A
0040C:  BNC   0410
....................             dly++; 
0040E:  INCF   xB8,F
....................          } 
....................       } 
....................     
....................    if(dry_s!=0){ 
00410:  MOVLB  1
00412:  MOVF   x9A,F
00414:  BNZ   041A
00416:  MOVF   x9B,F
00418:  BZ    0420
....................                  dry_s++;} 
0041A:  INCF   x9A,F
0041C:  BTFSC  FD8.2
0041E:  INCF   x9B,F
....................     
....................    if(auto_state==0&&aut==1) 
00420:  MOVF   x9C,F
00422:  BNZ   0432
00424:  DECFSZ x94,W
00426:  BRA    0432
00428:  MOVF   x95,F
0042A:  BNZ   0432
....................       auto_start_s++; 
0042C:  INCF   x9D,F
0042E:  BTFSC  FD8.2
00430:  INCF   x9E,F
....................     
....................    if(dry_reset_s!=0) 
00432:  MOVF   x9F,F
00434:  BNZ   043A
00436:  MOVF   xA0,F
00438:  BZ    0440
....................       dry_reset_s++; 
0043A:  INCF   x9F,F
0043C:  BTFSC  FD8.2
0043E:  INCF   xA0,F
....................        
....................    if(sec_counter>=10*5) 
00440:  MOVF   x56,W
00442:  SUBLW  31
00444:  BC    044C
....................    { 
....................       update_flag=1; 
00446:  MOVLW  01
00448:  MOVWF  x75
....................       sec_counter=0; 
0044A:  CLRF   x56
....................    } 
....................    if(dry_s>drys*10) 
0044C:  MOVFF  191,3C3
00450:  MOVFF  190,3C2
00454:  MOVLB  3
00456:  CLRF   xC5
00458:  MOVLW  0A
0045A:  MOVWF  xC4
0045C:  MOVLB  0
0045E:  RCALL  039A
00460:  MOVF   02,W
00462:  MOVWF  03
00464:  MOVLB  1
00466:  SUBWF  x9B,W
00468:  BNC   0476
0046A:  BNZ   0472
0046C:  MOVF   x9A,W
0046E:  SUBWF  01,W
00470:  BC    0476
....................    { 
....................       amps_level=1; 
00472:  MOVLW  01
00474:  MOVWF  x99
....................    } 
....................    if(auto_start_s >= 60*10 && auto_state==0) 
00476:  MOVF   x9E,W
00478:  SUBLW  01
0047A:  BC    049C
0047C:  XORLW  FF
0047E:  BNZ   0486
00480:  MOVF   x9D,W
00482:  SUBLW  57
00484:  BC    049C
00486:  MOVF   x9C,F
00488:  BNZ   049C
....................    { 
....................       if(aut==1) 
0048A:  DECFSZ x94,W
0048C:  BRA    049C
0048E:  MOVF   x95,F
00490:  BNZ   049C
....................       { 
....................          state=1; 
00492:  MOVLW  01
00494:  MOVWF  x96
....................          auto_state=1; 
00496:  MOVWF  x9C
....................          auto_start_s=0; 
00498:  CLRF   x9E
0049A:  CLRF   x9D
....................       } 
....................    } 
....................  if(dry_reset_s > (unsigned long)dry_restart_val * 15) 
0049C:  MOVFF  2DC,3C3
004A0:  MOVFF  2DB,3C2
004A4:  MOVLB  3
004A6:  CLRF   xC5
004A8:  MOVLW  0F
004AA:  MOVWF  xC4
004AC:  MOVLB  0
004AE:  RCALL  039A
004B0:  MOVF   02,W
004B2:  MOVWF  03
004B4:  MOVLB  1
004B6:  SUBWF  xA0,W
004B8:  BNC   04C4
004BA:  BNZ   04C2
004BC:  MOVF   x9F,W
004BE:  SUBWF  01,W
004C0:  BC    04C4
....................    { 
....................       amps_level=0; 
004C2:  CLRF   x99
....................    } 
....................     
....................    set_timer1(34286); 
004C4:  MOVLW  85
004C6:  MOVWF  FCF
004C8:  MOVLW  EE
004CA:  MOVWF  FCE
004CC:  BCF    F9E.0
004CE:  MOVLB  0
004D0:  GOTO   0060
.................... } 
....................  
....................  
....................  void mon() 
....................  { 
....................     output_high(OFF); 
*
07474:  BSF    F8A.5
....................     output_low(ON); 
07476:  BCF    F8A.4
....................     for(int i = 0; i< on_delay;i++){ 
07478:  MOVLB  2
0747A:  CLRF   xFF
0747C:  MOVF   xBA,F
0747E:  BNZ   7486
07480:  MOVF   xB9,W
07482:  SUBWF  xFF,W
07484:  BC    74A2
....................     delay_ms(990); 
07486:  MOVLW  05
07488:  MOVLB  3
0748A:  MOVWF  x00
0748C:  MOVLW  C6
0748E:  MOVWF  xA9
07490:  MOVLB  0
07492:  CALL   0DA4
07496:  MOVLB  3
07498:  DECFSZ x00,F
0749A:  BRA    748C
0749C:  MOVLB  2
0749E:  INCF   xFF,F
074A0:  BRA    747C
....................     } 
....................     onstate=1; 
074A2:  MOVLB  1
074A4:  CLRF   xC6
074A6:  MOVLW  01
074A8:  MOVWF  xC5
....................     output_high(ON); 
074AA:  BSF    F8A.4
....................     q='A'; 
074AC:  MOVLW  41
074AE:  MOVWF  xC7
074B0:  MOVLB  0
074B2:  GOTO   8DC8 (RETURN)
....................  } 
....................  void moff() 
....................  { 
....................       output_high(ON); 
*
02040:  BSF    F8A.4
....................       output_low(OFF); 
02042:  BCF    F8A.5
....................       delay_ms(1000); 
02044:  MOVLW  04
02046:  MOVLB  2
02048:  MOVWF  xFF
0204A:  MOVLW  FA
0204C:  MOVLB  3
0204E:  MOVWF  xA9
02050:  MOVLB  0
02052:  CALL   0DA4
02056:  MOVLB  2
02058:  DECFSZ xFF,F
0205A:  BRA    204A
....................       delay_ms(1000); 
0205C:  MOVLW  04
0205E:  MOVWF  xFF
02060:  MOVLW  FA
02062:  MOVLB  3
02064:  MOVWF  xA9
02066:  MOVLB  0
02068:  CALL   0DA4
0206C:  MOVLB  2
0206E:  DECFSZ xFF,F
02070:  BRA    2060
....................       delay_ms(1000); 
02072:  MOVLW  04
02074:  MOVWF  xFF
02076:  MOVLW  FA
02078:  MOVLB  3
0207A:  MOVWF  xA9
0207C:  MOVLB  0
0207E:  CALL   0DA4
02082:  MOVLB  2
02084:  DECFSZ xFF,F
02086:  BRA    2076
....................       delay_ms(1000); 
02088:  MOVLW  04
0208A:  MOVWF  xFF
0208C:  MOVLW  FA
0208E:  MOVLB  3
02090:  MOVWF  xA9
02092:  MOVLB  0
02094:  CALL   0DA4
02098:  MOVLB  2
0209A:  DECFSZ xFF,F
0209C:  BRA    208C
....................       onstate=0; 
0209E:  MOVLB  1
020A0:  CLRF   xC6
020A2:  CLRF   xC5
....................       q='a'; 
020A4:  MOVLW  61
020A6:  MOVWF  xC7
....................     if(amps_level==1) 
020A8:  DECFSZ x99,W
020AA:  BRA    20AE
....................     { 
....................        return; 
020AC:  BRA    20B0
....................     } 
....................      
....................     output_high(OFF); 
020AE:  BSF    F8A.5
020B0:  MOVLB  0
020B2:  RETURN 0
....................  } 
....................  /////////////////////////////////////////////////////////////// 
....................  void change() 
....................  { 
....................     vr=(voltages[0] < 50 )?0:voltages[0]; 
*
01440:  MOVLB  1
01442:  MOVF   x64,F
01444:  BNZ   1452
01446:  MOVF   x63,W
01448:  SUBLW  31
0144A:  BNC   1452
0144C:  CLRF   03
0144E:  MOVLW  00
01450:  BRA    1458
01452:  MOVFF  164,03
01456:  MOVF   x63,W
01458:  MOVWF  xB5
0145A:  MOVFF  03,1B6
....................     vy=(voltages[1] < 50 )?0:voltages[1]; 
0145E:  MOVF   x66,F
01460:  BNZ   146E
01462:  MOVF   x65,W
01464:  SUBLW  31
01466:  BNC   146E
01468:  CLRF   03
0146A:  MOVLW  00
0146C:  BRA    1474
0146E:  MOVFF  166,03
01472:  MOVF   x65,W
01474:  MOVWF  xB7
01476:  MOVFF  03,1B8
....................     vb=(voltages[2] < 50 )?0:voltages[2]; 
0147A:  MOVF   x68,F
0147C:  BNZ   148A
0147E:  MOVF   x67,W
01480:  SUBLW  31
01482:  BNC   148A
01484:  CLRF   03
01486:  MOVLW  00
01488:  BRA    1490
0148A:  MOVFF  168,03
0148E:  MOVF   x67,W
01490:  MOVWF  xB9
01492:  MOVFF  03,1BA
....................     currentr=currents[2]; 
01496:  MOVFF  174,1AC
0149A:  MOVFF  173,1AB
0149E:  MOVFF  172,1AA
014A2:  MOVFF  171,1A9
....................     currentr2=currents[1]; 
014A6:  MOVFF  170,1B0
014AA:  MOVFF  16F,1AF
014AE:  MOVFF  16E,1AE
014B2:  MOVFF  16D,1AD
....................     currentr3=currents[0]; 
014B6:  MOVFF  16C,1B4
014BA:  MOVFF  16B,1B3
014BE:  MOVFF  16A,1B2
014C2:  MOVFF  169,1B1
....................     vr1=(long int)vr; 
014C6:  MOVFF  1B6,1BC
014CA:  MOVFF  1B5,1BB
....................     vy1=(long int)vy; 
014CE:  MOVFF  1B8,1BE
014D2:  MOVFF  1B7,1BD
....................     vb1=(long int)vb; 
014D6:  MOVFF  1BA,1C0
014DA:  MOVFF  1B9,1BF
014DE:  MOVLB  0
014E0:  GOTO   1734 (RETURN)
....................  } 
....................  void voltage() 
....................  { 
....................  
.................... if(phase){ 
*
01744:  MOVLB  1
01746:  MOVF   x53,F
01748:  BZ    17E6
....................      if((vr < l_voltr && vy<l_volty)) 
0174A:  MOVF   xB6,W
0174C:  MOVLB  2
0174E:  SUBWF  xAD,W
01750:  BNC   1788
01752:  BNZ   1762
01754:  MOVF   xAC,W
01756:  MOVLB  1
01758:  SUBWF  xB5,W
0175A:  BTFSS  FD8.0
0175C:  BRA    1762
0175E:  MOVLB  2
01760:  BRA    1788
01762:  MOVLB  1
01764:  MOVF   xB8,W
01766:  MOVLB  2
01768:  SUBWF  xAF,W
0176A:  BNC   1788
0176C:  BNZ   177E
0176E:  MOVF   xAE,W
01770:  MOVLB  1
01772:  SUBWF  xB7,W
01774:  BTFSS  FD8.0
01776:  BRA    177C
01778:  MOVLB  2
0177A:  BRA    1788
0177C:  MOVLB  2
....................     { 
....................        volt_level=1; 
0177E:  MOVLW  01
01780:  MOVLB  1
01782:  MOVWF  x98
....................        }else if(vr> h_voltr ||vy> h_volty){ 
01784:  BRA    17E4
01786:  MOVLB  2
01788:  MOVF   xA7,W
0178A:  MOVLB  1
0178C:  SUBWF  xB6,W
0178E:  BNC   17A0
01790:  BNZ   17BC
01792:  MOVF   xB5,W
01794:  MOVLB  2
01796:  SUBWF  xA6,W
01798:  BTFSC  FD8.0
0179A:  BRA    17A0
0179C:  MOVLB  1
0179E:  BRA    17BC
017A0:  MOVLB  2
017A2:  MOVF   xA9,W
017A4:  MOVLB  1
017A6:  SUBWF  xB8,W
017A8:  BNC   17C2
017AA:  BNZ   17BC
017AC:  MOVF   xB7,W
017AE:  MOVLB  2
017B0:  SUBWF  xA8,W
017B2:  BTFSS  FD8.0
017B4:  BRA    17BA
017B6:  MOVLB  1
017B8:  BRA    17C2
017BA:  MOVLB  1
....................        volt_level=2; 
017BC:  MOVLW  02
017BE:  MOVWF  x98
....................     }else{ 
017C0:  BRA    17E4
....................     if((volt_level == 1 || volt_level==2) && (auto_state==1 && aut==1) ){ 
017C2:  DECFSZ x98,W
017C4:  BRA    17C8
017C6:  BRA    17CE
017C8:  MOVF   x98,W
017CA:  SUBLW  02
017CC:  BNZ   17E2
017CE:  DECFSZ x9C,W
017D0:  BRA    17E2
017D2:  DECFSZ x94,W
017D4:  BRA    17E2
017D6:  MOVF   x95,F
017D8:  BNZ   17E2
....................     auto_state =0; 
017DA:  CLRF   x9C
....................     auto_start_s=0; 
017DC:  CLRF   x9E
017DE:  CLRF   x9D
....................     state =0; 
017E0:  CLRF   x96
....................     } 
....................     volt_level=0; 
017E2:  CLRF   x98
....................     } 
....................  }  
017E4:  BRA    18B4
....................   
....................  else{ 
....................              if(vr< l_voltr ||vy< l_volty ||vb< l_voltb) 
017E6:  MOVF   xB6,W
017E8:  MOVLB  2
017EA:  SUBWF  xAD,W
017EC:  BNC   17FE
017EE:  BNZ   1834
017F0:  MOVF   xAC,W
017F2:  MOVLB  1
017F4:  SUBWF  xB5,W
017F6:  BTFSC  FD8.0
017F8:  BRA    17FE
017FA:  MOVLB  2
017FC:  BRA    1834
017FE:  MOVLB  1
01800:  MOVF   xB8,W
01802:  MOVLB  2
01804:  SUBWF  xAF,W
01806:  BNC   1818
01808:  BNZ   1834
0180A:  MOVF   xAE,W
0180C:  MOVLB  1
0180E:  SUBWF  xB7,W
01810:  BTFSC  FD8.0
01812:  BRA    1818
01814:  MOVLB  2
01816:  BRA    1834
01818:  MOVLB  1
0181A:  MOVF   xBA,W
0181C:  MOVLB  2
0181E:  SUBWF  xB1,W
01820:  BNC   183E
01822:  BNZ   1834
01824:  MOVF   xB0,W
01826:  MOVLB  1
01828:  SUBWF  xB9,W
0182A:  BTFSS  FD8.0
0182C:  BRA    1832
0182E:  MOVLB  2
01830:  BRA    183E
01832:  MOVLB  2
....................     { 
....................        volt_level=1; 
01834:  MOVLW  01
01836:  MOVLB  1
01838:  MOVWF  x98
....................        }else if(vr> h_voltr ||vy> h_volty ||vb> h_voltb ){ 
0183A:  BRA    18B4
0183C:  MOVLB  2
0183E:  MOVF   xA7,W
01840:  MOVLB  1
01842:  SUBWF  xB6,W
01844:  BNC   1856
01846:  BNZ   188C
01848:  MOVF   xB5,W
0184A:  MOVLB  2
0184C:  SUBWF  xA6,W
0184E:  BTFSC  FD8.0
01850:  BRA    1856
01852:  MOVLB  1
01854:  BRA    188C
01856:  MOVLB  2
01858:  MOVF   xA9,W
0185A:  MOVLB  1
0185C:  SUBWF  xB8,W
0185E:  BNC   1870
01860:  BNZ   188C
01862:  MOVF   xB7,W
01864:  MOVLB  2
01866:  SUBWF  xA8,W
01868:  BTFSC  FD8.0
0186A:  BRA    1870
0186C:  MOVLB  1
0186E:  BRA    188C
01870:  MOVLB  2
01872:  MOVF   xAB,W
01874:  MOVLB  1
01876:  SUBWF  xBA,W
01878:  BNC   1892
0187A:  BNZ   188C
0187C:  MOVF   xB9,W
0187E:  MOVLB  2
01880:  SUBWF  xAA,W
01882:  BTFSS  FD8.0
01884:  BRA    188A
01886:  MOVLB  1
01888:  BRA    1892
0188A:  MOVLB  1
....................        volt_level=2; 
0188C:  MOVLW  02
0188E:  MOVWF  x98
....................     }else{ 
01890:  BRA    18B4
....................     if((volt_level == 1 || volt_level==2) && (auto_state==1 && aut==1) ){ 
01892:  DECFSZ x98,W
01894:  BRA    1898
01896:  BRA    189E
01898:  MOVF   x98,W
0189A:  SUBLW  02
0189C:  BNZ   18B2
0189E:  DECFSZ x9C,W
018A0:  BRA    18B2
018A2:  DECFSZ x94,W
018A4:  BRA    18B2
018A6:  MOVF   x95,F
018A8:  BNZ   18B2
....................     auto_state =0; 
018AA:  CLRF   x9C
....................     auto_start_s=0; 
018AC:  CLRF   x9E
018AE:  CLRF   x9D
....................      state =0; 
018B0:  CLRF   x96
....................     } 
....................     volt_level=0; 
018B2:  CLRF   x98
....................     } 
....................    } 
018B4:  MOVLB  0
018B6:  RETURN 0
....................  
.................... } 
....................    
....................  void amps() 
....................  {   
....................   
....................  if(phase){ 
*
019DE:  MOVLB  1
019E0:  MOVF   x53,F
019E2:  BTFSC  FD8.2
019E4:  BRA    1B00
....................     if(currentr < drya && currentr2 < drya ) 
019E6:  MOVFF  193,318
019EA:  MOVFF  192,317
019EE:  MOVLB  0
019F0:  CALL   0F8C
019F4:  MOVFF  1AC,31A
019F8:  MOVFF  1AB,319
019FC:  MOVFF  1AA,318
01A00:  MOVFF  1A9,317
01A04:  MOVFF  03,31E
01A08:  MOVFF  02,31D
01A0C:  MOVFF  01,31C
01A10:  MOVFF  00,31B
01A14:  CALL   1120
01A18:  BNC   1A6C
01A1A:  MOVFF  193,318
01A1E:  MOVFF  192,317
01A22:  CALL   0F8C
01A26:  MOVFF  1B0,31A
01A2A:  MOVFF  1AF,319
01A2E:  MOVFF  1AE,318
01A32:  MOVFF  1AD,317
01A36:  MOVFF  03,31E
01A3A:  MOVFF  02,31D
01A3E:  MOVFF  01,31C
01A42:  MOVFF  00,31B
01A46:  CALL   1120
01A4A:  BNC   1A6C
....................     { 
....................        if(dry_s==0&&amps_level==0&&on_state==1) 
01A4C:  MOVLB  1
01A4E:  MOVF   x9A,F
01A50:  BNZ   1A68
01A52:  MOVF   x9B,F
01A54:  BNZ   1A68
01A56:  MOVF   x99,F
01A58:  BNZ   1A68
01A5A:  DECFSZ x97,W
01A5C:  BRA    1A68
....................        { 
....................           dry_s=1; 
01A5E:  CLRF   x9B
01A60:  MOVLW  01
01A62:  MOVWF  x9A
....................           dry_reset_s=1; 
01A64:  CLRF   xA0
01A66:  MOVWF  x9F
....................        } 
....................        }else if(currentr > over_cr || currentr2 > over_cy ){ 
01A68:  BRA    1AFE
01A6A:  MOVLB  0
01A6C:  MOVFF  2B3,318
01A70:  MOVFF  2B2,317
01A74:  CALL   0F8C
01A78:  MOVFF  03,31A
01A7C:  MOVFF  02,319
01A80:  MOVFF  01,318
01A84:  MOVFF  00,317
01A88:  MOVFF  1AC,31E
01A8C:  MOVFF  1AB,31D
01A90:  MOVFF  1AA,31C
01A94:  MOVFF  1A9,31B
01A98:  CALL   1120
01A9C:  BC    1AD0
01A9E:  MOVFF  2B5,318
01AA2:  MOVFF  2B4,317
01AA6:  CALL   0F8C
01AAA:  MOVFF  03,31A
01AAE:  MOVFF  02,319
01AB2:  MOVFF  01,318
01AB6:  MOVFF  00,317
01ABA:  MOVFF  1B0,31E
01ABE:  MOVFF  1AF,31D
01AC2:  MOVFF  1AE,31C
01AC6:  MOVFF  1AD,31B
01ACA:  CALL   1120
01ACE:  BNC   1ADA
....................        amps_level=2; 
01AD0:  MOVLW  02
01AD2:  MOVLB  1
01AD4:  MOVWF  x99
....................        }else{ 
01AD6:  BRA    1AFE
01AD8:  MOVLB  0
....................        if(amps_level==0){ 
01ADA:  MOVLB  1
01ADC:  MOVF   x99,F
01ADE:  BNZ   1AE8
....................           dry_s=0; 
01AE0:  CLRF   x9B
01AE2:  CLRF   x9A
....................           dry_reset_s =0; 
01AE4:  CLRF   xA0
01AE6:  CLRF   x9F
....................        } 
....................        if(amps_level==2  && sentflg ==1) 
01AE8:  MOVF   x99,W
01AEA:  SUBLW  02
01AEC:  BNZ   1AFE
01AEE:  MOVLB  2
01AF0:  DECFSZ xA2,W
01AF2:  BRA    1AF6
01AF4:  BRA    1AFA
01AF6:  MOVLB  1
01AF8:  BRA    1AFE
....................        amps_level = 0; 
01AFA:  MOVLB  1
01AFC:  CLRF   x99
....................     } 
....................  } 
01AFE:  BRA    1C7C
....................   
.................... else{ 
....................  
....................  if(currentr < drya && currentr2 < drya && currentr3 < drya) 
01B00:  MOVFF  193,318
01B04:  MOVFF  192,317
01B08:  MOVLB  0
01B0A:  CALL   0F8C
01B0E:  MOVFF  1AC,31A
01B12:  MOVFF  1AB,319
01B16:  MOVFF  1AA,318
01B1A:  MOVFF  1A9,317
01B1E:  MOVFF  03,31E
01B22:  MOVFF  02,31D
01B26:  MOVFF  01,31C
01B2A:  MOVFF  00,31B
01B2E:  CALL   1120
01B32:  BNC   1BB8
01B34:  MOVFF  193,318
01B38:  MOVFF  192,317
01B3C:  CALL   0F8C
01B40:  MOVFF  1B0,31A
01B44:  MOVFF  1AF,319
01B48:  MOVFF  1AE,318
01B4C:  MOVFF  1AD,317
01B50:  MOVFF  03,31E
01B54:  MOVFF  02,31D
01B58:  MOVFF  01,31C
01B5C:  MOVFF  00,31B
01B60:  CALL   1120
01B64:  BNC   1BB8
01B66:  MOVFF  193,318
01B6A:  MOVFF  192,317
01B6E:  CALL   0F8C
01B72:  MOVFF  1B4,31A
01B76:  MOVFF  1B3,319
01B7A:  MOVFF  1B2,318
01B7E:  MOVFF  1B1,317
01B82:  MOVFF  03,31E
01B86:  MOVFF  02,31D
01B8A:  MOVFF  01,31C
01B8E:  MOVFF  00,31B
01B92:  CALL   1120
01B96:  BNC   1BB8
....................     { 
....................        if(dry_s==0&&amps_level==0&&on_state==1) 
01B98:  MOVLB  1
01B9A:  MOVF   x9A,F
01B9C:  BNZ   1BB4
01B9E:  MOVF   x9B,F
01BA0:  BNZ   1BB4
01BA2:  MOVF   x99,F
01BA4:  BNZ   1BB4
01BA6:  DECFSZ x97,W
01BA8:  BRA    1BB4
....................        { 
....................           dry_s=1; 
01BAA:  CLRF   x9B
01BAC:  MOVLW  01
01BAE:  MOVWF  x9A
....................           dry_reset_s=1; 
01BB0:  CLRF   xA0
01BB2:  MOVWF  x9F
....................        } 
....................        }else if(currentr > over_cr && currentr2 > over_cy && currentr3 > over_cb ){ 
01BB4:  BRA    1C7C
01BB6:  MOVLB  0
01BB8:  MOVFF  2B3,318
01BBC:  MOVFF  2B2,317
01BC0:  CALL   0F8C
01BC4:  MOVFF  03,31A
01BC8:  MOVFF  02,319
01BCC:  MOVFF  01,318
01BD0:  MOVFF  00,317
01BD4:  MOVFF  1AC,31E
01BD8:  MOVFF  1AB,31D
01BDC:  MOVFF  1AA,31C
01BE0:  MOVFF  1A9,31B
01BE4:  CALL   1120
01BE8:  BNC   1C58
01BEA:  MOVFF  2B5,318
01BEE:  MOVFF  2B4,317
01BF2:  CALL   0F8C
01BF6:  MOVFF  03,31A
01BFA:  MOVFF  02,319
01BFE:  MOVFF  01,318
01C02:  MOVFF  00,317
01C06:  MOVFF  1B0,31E
01C0A:  MOVFF  1AF,31D
01C0E:  MOVFF  1AE,31C
01C12:  MOVFF  1AD,31B
01C16:  CALL   1120
01C1A:  BNC   1C58
01C1C:  MOVFF  2B7,318
01C20:  MOVFF  2B6,317
01C24:  CALL   0F8C
01C28:  MOVFF  03,31A
01C2C:  MOVFF  02,319
01C30:  MOVFF  01,318
01C34:  MOVFF  00,317
01C38:  MOVFF  1B4,31E
01C3C:  MOVFF  1B3,31D
01C40:  MOVFF  1B2,31C
01C44:  MOVFF  1B1,31B
01C48:  CALL   1120
01C4C:  BNC   1C58
....................        amps_level=2; 
01C4E:  MOVLW  02
01C50:  MOVLB  1
01C52:  MOVWF  x99
....................        }else{ 
01C54:  BRA    1C7C
01C56:  MOVLB  0
....................        if(amps_level==0){ 
01C58:  MOVLB  1
01C5A:  MOVF   x99,F
01C5C:  BNZ   1C66
....................           dry_s=0; 
01C5E:  CLRF   x9B
01C60:  CLRF   x9A
....................           dry_reset_s =0; 
01C62:  CLRF   xA0
01C64:  CLRF   x9F
....................        } 
....................        if(amps_level==2 && sentflg ==1 ) 
01C66:  MOVF   x99,W
01C68:  SUBLW  02
01C6A:  BNZ   1C7C
01C6C:  MOVLB  2
01C6E:  DECFSZ xA2,W
01C70:  BRA    1C74
01C72:  BRA    1C78
01C74:  MOVLB  1
01C76:  BRA    1C7C
....................           amps_level = 0; 
01C78:  MOVLB  1
01C7A:  CLRF   x99
....................     } 
....................   
....................  } 
01C7C:  MOVLB  0
01C7E:  GOTO   8830 (RETURN)
....................  } 
....................  int new_value() 
....................  { 
....................     if(update_flag) 
*
014E4:  MOVLB  1
014E6:  MOVF   x75,F
014E8:  BTFSC  FD8.2
014EA:  BRA    173C
....................     { 
....................        update_flag=0; 
014EC:  CLRF   x75
....................        for(int i=0;i<3;i++) 
014EE:  MOVLB  2
014F0:  CLRF   xFF
014F2:  MOVF   xFF,W
014F4:  SUBLW  02
014F6:  BTFSS  FD8.0
014F8:  BRA    15F8
....................        { 
....................           float v_adc=adc_values[i]*4.98/1023.0; 
014FA:  BCF    FD8.0
014FC:  RLCF   xFF,W
014FE:  CLRF   03
01500:  ADDLW  57
01502:  MOVWF  FE9
01504:  MOVLW  01
01506:  ADDWFC 03,W
01508:  MOVWF  FEA
0150A:  MOVFF  FEC,309
0150E:  MOVF   FED,F
01510:  MOVFF  FEF,308
01514:  MOVFF  309,318
01518:  MOVFF  308,317
0151C:  MOVLB  0
0151E:  RCALL  0F8C
01520:  MOVFF  03,327
01524:  MOVFF  02,326
01528:  MOVFF  01,325
0152C:  MOVFF  00,324
01530:  MOVLW  29
01532:  MOVLB  3
01534:  MOVWF  x2B
01536:  MOVLW  5C
01538:  MOVWF  x2A
0153A:  MOVLW  1F
0153C:  MOVWF  x29
0153E:  MOVLW  81
01540:  MOVWF  x28
01542:  MOVLB  0
01544:  RCALL  130C
01546:  MOVFF  03,30B
0154A:  MOVFF  02,30A
0154E:  MOVFF  01,309
01552:  MOVFF  00,308
01556:  MOVFF  03,31E
0155A:  MOVFF  02,31D
0155E:  MOVFF  01,31C
01562:  MOVFF  00,31B
01566:  MOVLB  3
01568:  CLRF   x22
0156A:  MOVLW  C0
0156C:  MOVWF  x21
0156E:  MOVLW  7F
01570:  MOVWF  x20
01572:  MOVLW  88
01574:  MOVWF  x1F
01576:  MOVLB  0
01578:  RCALL  0FC2
0157A:  MOVFF  03,303
0157E:  MOVFF  02,302
01582:  MOVFF  01,301
01586:  MOVFF  00,300
....................           voltages[i]=(int16)(v_adc*SCALE_FACTOR); 
0158A:  BCF    FD8.0
0158C:  MOVLB  2
0158E:  RLCF   xFF,W
01590:  CLRF   03
01592:  ADDLW  63
01594:  MOVWF  FE9
01596:  MOVLW  01
01598:  ADDWFC 03,W
0159A:  MOVWF  FEA
0159C:  MOVFF  303,327
015A0:  MOVFF  302,326
015A4:  MOVFF  301,325
015A8:  MOVFF  300,324
015AC:  MOVLW  33
015AE:  MOVLB  3
015B0:  MOVWF  x2B
015B2:  MOVWF  x2A
015B4:  MOVLW  43
015B6:  MOVWF  x29
015B8:  MOVLW  87
015BA:  MOVWF  x28
015BC:  MOVLB  0
015BE:  RCALL  130C
015C0:  MOVFF  03,30E
015C4:  MOVFF  02,30D
015C8:  MOVFF  01,30C
015CC:  MOVFF  00,30B
015D0:  BRA    1402
015D2:  MOVFF  02,FEC
015D6:  MOVF   FED,F
015D8:  MOVFF  01,FEF
....................           adc_values[i]=0; 
015DC:  BCF    FD8.0
015DE:  MOVLB  2
015E0:  RLCF   xFF,W
015E2:  CLRF   03
015E4:  ADDLW  57
015E6:  MOVWF  FE9
015E8:  MOVLW  01
015EA:  ADDWFC 03,W
015EC:  MOVWF  FEA
015EE:  CLRF   FEC
015F0:  MOVF   FED,F
015F2:  CLRF   FEF
015F4:  INCF   xFF,F
015F6:  BRA    14F2
....................        } 
....................         
....................        for(i=3;i<6;i++) 
015F8:  MOVLW  03
015FA:  MOVWF  xFF
015FC:  MOVF   xFF,W
015FE:  SUBLW  05
01600:  BTFSS  FD8.0
01602:  BRA    1730
....................        { 
....................           float adc_voltage=adc_values[i]*5.0/1023.0; 
01604:  BCF    FD8.0
01606:  RLCF   xFF,W
01608:  CLRF   03
0160A:  ADDLW  57
0160C:  MOVWF  FE9
0160E:  MOVLW  01
01610:  ADDWFC 03,W
01612:  MOVWF  FEA
01614:  MOVFF  FEC,309
01618:  MOVF   FED,F
0161A:  MOVFF  FEF,308
0161E:  MOVFF  309,318
01622:  MOVFF  308,317
01626:  MOVLB  0
01628:  RCALL  0F8C
0162A:  MOVFF  03,327
0162E:  MOVFF  02,326
01632:  MOVFF  01,325
01636:  MOVFF  00,324
0163A:  MOVLB  3
0163C:  CLRF   x2B
0163E:  CLRF   x2A
01640:  MOVLW  20
01642:  MOVWF  x29
01644:  MOVLW  81
01646:  MOVWF  x28
01648:  MOVLB  0
0164A:  RCALL  130C
0164C:  MOVFF  03,30B
01650:  MOVFF  02,30A
01654:  MOVFF  01,309
01658:  MOVFF  00,308
0165C:  MOVFF  03,31E
01660:  MOVFF  02,31D
01664:  MOVFF  01,31C
01668:  MOVFF  00,31B
0166C:  MOVLB  3
0166E:  CLRF   x22
01670:  MOVLW  C0
01672:  MOVWF  x21
01674:  MOVLW  7F
01676:  MOVWF  x20
01678:  MOVLW  88
0167A:  MOVWF  x1F
0167C:  MOVLB  0
0167E:  RCALL  0FC2
01680:  MOVFF  03,307
01684:  MOVFF  02,306
01688:  MOVFF  01,305
0168C:  MOVFF  00,304
....................           currents[i-3] = (adc_voltage / 0.059) * 0.64; 
01690:  MOVLW  03
01692:  MOVLB  2
01694:  SUBWF  xFF,W
01696:  MULLW  04
01698:  MOVF   FF3,W
0169A:  CLRF   03
0169C:  ADDLW  69
0169E:  MOVWF  FE9
016A0:  MOVLW  01
016A2:  ADDWFC 03,W
016A4:  MOVWF  FEA
016A6:  MOVFF  307,31E
016AA:  MOVFF  306,31D
016AE:  MOVFF  305,31C
016B2:  MOVFF  304,31B
016B6:  MOVLW  FC
016B8:  MOVLB  3
016BA:  MOVWF  x22
016BC:  MOVLW  A9
016BE:  MOVWF  x21
016C0:  MOVLW  71
016C2:  MOVWF  x20
016C4:  MOVLW  7A
016C6:  MOVWF  x1F
016C8:  MOVLB  0
016CA:  RCALL  0FC2
016CC:  MOVFF  03,30D
016D0:  MOVFF  02,30C
016D4:  MOVFF  01,30B
016D8:  MOVFF  00,30A
016DC:  MOVFF  03,327
016E0:  MOVFF  02,326
016E4:  MOVFF  01,325
016E8:  MOVFF  00,324
016EC:  MOVLW  0A
016EE:  MOVLB  3
016F0:  MOVWF  x2B
016F2:  MOVLW  D7
016F4:  MOVWF  x2A
016F6:  MOVLW  23
016F8:  MOVWF  x29
016FA:  MOVLW  7E
016FC:  MOVWF  x28
016FE:  MOVLB  0
01700:  RCALL  130C
01702:  MOVFF  00,FEF
01706:  MOVFF  01,FEC
0170A:  MOVFF  02,FEC
0170E:  MOVFF  03,FEC
....................           adc_values[i]=1023; 
01712:  BCF    FD8.0
01714:  MOVLB  2
01716:  RLCF   xFF,W
01718:  CLRF   03
0171A:  ADDLW  57
0171C:  MOVWF  FE9
0171E:  MOVLW  01
01720:  ADDWFC 03,W
01722:  MOVWF  FEA
01724:  MOVLW  03
01726:  MOVWF  FEC
01728:  MOVF   FED,F
0172A:  SETF   FEF
0172C:  INCF   xFF,F
0172E:  BRA    15FC
....................        } 
....................        change(); 
01730:  MOVLB  0
01732:  BRA    1440
....................        return 0; 
01734:  MOVLW  00
01736:  MOVWF  01
01738:  BRA    1742
0173A:  MOVLB  1
....................     } 
....................      
....................     return 1; 
0173C:  MOVLW  01
0173E:  MOVWF  01
01740:  MOVLB  0
01742:  RETURN 0
....................  } 
....................   
....................   
....................  // === Show Phase Sequence === 
.................... void display_sequence() { 
....................        
....................     if (seq_index == 3) { 
*
0127C:  MOVLB  1
0127E:  MOVF   x8E,W
01280:  SUBLW  03
01282:  BNZ   12F0
....................         if (sequence[0] == PHASE_R && sequence[1] == PHASE_Y && sequence[2] == PHASE_B) { 
01284:  MOVF   x8B,F
01286:  BNZ   12A2
01288:  DECFSZ x8C,W
0128A:  BRA    12A2
0128C:  MOVF   x8D,W
0128E:  SUBLW  02
01290:  BNZ   12A2
....................              delay_ms(10); 
01292:  MOVLW  0A
01294:  MOVLB  3
01296:  MOVWF  xA9
01298:  MOVLB  0
0129A:  RCALL  0DA4
....................              seq_flag =0; 
0129C:  BCF    1C.1
....................         } else if (sequence[0] == PHASE_R && sequence[1] == PHASE_B && sequence[2] == PHASE_Y) { 
0129E:  BRA    12EC
012A0:  MOVLB  1
012A2:  MOVF   x8B,F
012A4:  BNZ   12C2
012A6:  MOVF   x8C,W
012A8:  SUBLW  02
012AA:  BNZ   12C2
012AC:  DECFSZ x8D,W
012AE:  BRA    12C2
....................             ryb_detected++; 
012B0:  INCF   x8F,F
....................             seq_flag =1; 
012B2:  BSF    1C.1
....................             delay_ms(10); 
012B4:  MOVLW  0A
012B6:  MOVLB  3
012B8:  MOVWF  xA9
012BA:  MOVLB  0
012BC:  RCALL  0DA4
....................         } else if (sequence[0] == PHASE_Y && sequence[1] == PHASE_R && sequence[2] == PHASE_B) { 
012BE:  BRA    12EC
012C0:  MOVLB  1
012C2:  DECFSZ x8B,W
012C4:  BRA    12E2
012C6:  MOVF   x8C,F
012C8:  BNZ   12E2
012CA:  MOVF   x8D,W
012CC:  SUBLW  02
012CE:  BNZ   12E2
....................             ryb_detected++; 
012D0:  INCF   x8F,F
....................             seq_flag =1; 
012D2:  BSF    1C.1
....................             delay_ms(10); 
012D4:  MOVLW  0A
012D6:  MOVLB  3
012D8:  MOVWF  xA9
012DA:  MOVLB  0
012DC:  RCALL  0DA4
....................         } else { 
012DE:  BRA    12EC
012E0:  MOVLB  1
....................             delay_ms(10); 
012E2:  MOVLW  0A
012E4:  MOVLB  3
012E6:  MOVWF  xA9
012E8:  MOVLB  0
012EA:  RCALL  0DA4
....................         } 
....................     } else { 
012EC:  BRA    12FA
012EE:  MOVLB  1
....................         delay_ms(10); 
012F0:  MOVLW  0A
012F2:  MOVLB  3
012F4:  MOVWF  xA9
012F6:  MOVLB  0
012F8:  RCALL  0DA4
....................     } 
012FA:  GOTO   8662 (RETURN)
.................... } 
....................  
....................  
....................  
.................... void cyclic_mode(){ 
....................  
.................... if(cyclic_state==1 && volt_level==0 && amps_level==0 ){ 
....................  
....................  
.................... if(c_cycle != 0){ 
....................  
.................... if( h_time == 0 && m_time ==0 && c_cycle <= 10){ 
....................              if(c_cycle < 10) 
....................              { 
....................              c_cycle++; 
....................              }else{c_cycle =0;return;} 
....................              h_time =  cyclic_time[c_cycle-1][0]; 
....................              m_time =  cyclic_time[c_cycle -1][1]; 
....................              s_time=59; 
....................              s_c=1; 
....................              if(h_time !=0 || m_time != 0){ 
....................              if ((c_cycle-1) % 2 ==0){ 
....................              state=1; 
....................              }else{ 
....................              state=0; 
....................              } 
....................              } 
.................... } 
.................... else { 
....................    if(t_h != h_time || t_m != m_time || t_s != s_time){ 
....................      t_h = h_time; 
....................       t_m = m_time; 
....................       t_s = s_time; 
....................         write_eeprom(0, c_cycle); 
....................          write_eeprom(1, h_time); 
....................           write_eeprom(2, m_time); 
....................             write_eeprom(3, s_time); 
....................    } 
....................  
....................      if ((c_cycle-1) % 2 == 0 ){ 
....................      if(state != 1){ 
....................              state=1; 
....................         } 
....................              }else{ 
....................                  if(state != 0){ 
....................              state=0; 
....................         } 
....................              } 
.................... } 
.................... }else{ 
....................              h_time = cyclic_time[0][0]; 
....................              m_time = cyclic_time[0][1]; 
....................               s_time=59; 
....................              s_c=1; 
....................              c_cycle=1; 
....................              state=1; 
.................... } 
....................  
.................... } 
....................  
.................... } 
....................  
.................... //////////////////////////////////Menu///////////////////////////////////////// 
....................  
....................   
.................... long extract_num(char *src, int pos, int len) { 
....................     char b[8]; 
....................     memcpy(b, &src[pos], len); 
....................     b[len] = '\0'; 
....................     return atol(b); 
.................... } 
.................... void reset_sequence() { 
....................     crossed[0] = 0; 
012FE:  MOVLB  1
01300:  BCF    x8A.0
....................     crossed[1] = 0; 
01302:  BCF    x8A.1
....................     crossed[2] = 0; 
01304:  BCF    x8A.2
....................     seq_index = 0; 
01306:  CLRF   x8E
01308:  MOVLB  0
0130A:  RETURN 0
.................... } 
.................... /////////////////////////////////////////////////////////////////////////////// 
.................... void advance_to_next_menu(void) { 
....................    menu_number++; 
*
02244:  INCF   4B,F
....................    if (menu_number > MAX_MENU_INDEX) { 
02246:  MOVF   4B,W
02248:  SUBLW  0F
0224A:  BC    2250
....................       menu_number = 1; 
0224C:  MOVLW  01
0224E:  MOVWF  4B
....................    } 
....................    in_menu_selection = 1; 
02250:  MOVLW  01
02252:  MOVWF  4C
02254:  RETURN 0
.................... } 
....................  
.................... void show_menu_selection(void) { 
....................    static int8 last_displayed_menu = 255;   
....................     
....................    if (menu_number != last_displayed_menu) { 
*
020DA:  MOVLB  2
020DC:  MOVF   xE4,W
020DE:  SUBWF  4B,W
020E0:  BZ    2156
....................       lcd_cmd(LCD_CLEAR);    
020E2:  MOVLW  01
020E4:  MOVLB  3
020E6:  MOVWF  xA8
020E8:  MOVLB  0
020EA:  CALL   0E5E
....................        
....................       lcd_goto(1, 1); 
020EE:  MOVLW  01
020F0:  MOVLB  3
020F2:  MOVWF  xA5
020F4:  MOVWF  xA6
020F6:  MOVLB  0
020F8:  CALL   119A
....................       printf(lcd_out, "%s", menu_titles[menu_number]); 
020FC:  BCF    FD8.0
020FE:  RLCF   4B,W
02100:  CLRF   03
02102:  ADDLW  4E
02104:  MOVWF  FE9
02106:  MOVLW  00
02108:  ADDWFC 03,W
0210A:  MOVWF  FEA
0210C:  MOVFF  FEC,301
02110:  MOVF   FED,F
02112:  MOVFF  FEF,300
02116:  MOVFF  301,FEA
0211A:  MOVFF  300,FE9
0211E:  RCALL  20B4
....................        
....................        lcd_goto(1, 2); 
02120:  MOVLW  01
02122:  MOVLB  3
02124:  MOVWF  xA5
02126:  MOVLW  02
02128:  MOVWF  xA6
0212A:  MOVLB  0
0212C:  CALL   119A
....................       if (menu_number == MAX_MENU_INDEX) { 
02130:  MOVF   4B,W
02132:  SUBLW  0F
02134:  BNZ   2144
....................          printf(lcd_out, "Press to EXIT"); 
02136:  MOVLW  D4
02138:  MOVWF  FF6
0213A:  MOVLW  04
0213C:  MOVWF  FF7
0213E:  CALL   125C
....................       } else { 
02142:  BRA    2150
....................          printf(lcd_out, "Press to ENTER"); 
02144:  MOVLW  E2
02146:  MOVWF  FF6
02148:  MOVLW  04
0214A:  MOVWF  FF7
0214C:  CALL   125C
....................       } 
....................        
....................       last_displayed_menu = menu_number; 
02150:  MOVFF  4B,2E4
02154:  MOVLB  2
....................    } 
02156:  MOVLB  0
02158:  GOTO   2164 (RETURN)
.................... } 
....................  
.................... void handle_menu_navigation(void) { 
....................    while (in_menu_selection) { 
0215C:  MOVF   4C,F
0215E:  BTFSC  FD8.2
02160:  BRA    2240
....................       show_menu_selection(); 
02162:  BRA    20DA
....................        
....................       if (input(ENCODER_A) == 0 && input(ENCODER_B) != 0) { 
02164:  BTFSC  F82.5
02166:  BRA    218C
02168:  BSF    F92.4
0216A:  BTFSS  F80.4
0216C:  BRA    218C
....................          delay_ms(5); 
0216E:  MOVLW  05
02170:  MOVLB  3
02172:  MOVWF  xA9
02174:  MOVLB  0
02176:  CALL   0DA4
....................          menu_number++; 
0217A:  INCF   4B,F
....................          if (menu_number > MAX_MENU_INDEX) menu_number = 1; 
0217C:  MOVF   4B,W
0217E:  SUBLW  0F
02180:  BC    2186
02182:  MOVLW  01
02184:  MOVWF  4B
....................          while (input(ENCODER_A) == 0); 
02186:  BTFSS  F82.5
02188:  BRA    2186
....................       } 
0218A:  BRA    21B4
....................       else if (input(ENCODER_B) == 0 && input(ENCODER_A) != 0) { 
0218C:  BSF    F92.4
0218E:  BTFSC  F80.4
02190:  BRA    21B4
02192:  BTFSS  F82.5
02194:  BRA    21B4
....................          delay_ms(5); 
02196:  MOVLW  05
02198:  MOVLB  3
0219A:  MOVWF  xA9
0219C:  MOVLB  0
0219E:  CALL   0DA4
....................          if (menu_number == 1)  
021A2:  DECFSZ 4B,W
021A4:  BRA    21AC
....................             menu_number = MAX_MENU_INDEX; 
021A6:  MOVLW  0F
021A8:  MOVWF  4B
021AA:  BRA    21AE
....................          else  
....................             menu_number--; 
021AC:  DECF   4B,F
....................          while (input(ENCODER_B) == 0); 
021AE:  BSF    F92.4
021B0:  BTFSS  F80.4
021B2:  BRA    21AE
....................       } 
....................        
....................       if (input(ENCODER_SW) == 0) { 
021B4:  BTFSC  F81.6
021B6:  BRA    2232
....................          delay_ms(20); 
021B8:  MOVLW  14
021BA:  MOVLB  3
021BC:  MOVWF  xA9
021BE:  MOVLB  0
021C0:  CALL   0DA4
....................          if (input(ENCODER_SW) == 0) { 
021C4:  BTFSC  F81.6
021C6:  BRA    2232
....................             while (input(ENCODER_SW) == 0) { 
021C8:  BTFSC  F81.6
021CA:  BRA    21DA
....................                delay_ms(10); 
021CC:  MOVLW  0A
021CE:  MOVLB  3
021D0:  MOVWF  xA9
021D2:  MOVLB  0
021D4:  CALL   0DA4
021D8:  BRA    21C8
....................             } 
....................              
....................             if (menu_number == MAX_MENU_INDEX) { 
021DA:  MOVF   4B,W
021DC:  SUBLW  0F
021DE:  BNZ   222E
....................                prog = 0; 
021E0:  CLRF   3F
....................                in_menu_selection = 0; 
021E2:  CLRF   4C
....................                lcd_cmd(LCD_CLEAR);   
021E4:  MOVLW  01
021E6:  MOVLB  3
021E8:  MOVWF  xA8
021EA:  MOVLB  0
021EC:  CALL   0E5E
....................                lcd_goto(1, 1);   
021F0:  MOVLW  01
021F2:  MOVLB  3
021F4:  MOVWF  xA5
021F6:  MOVWF  xA6
021F8:  MOVLB  0
021FA:  CALL   119A
....................                printf(lcd_out, "EXITING MENU..."); 
021FE:  MOVLW  F2
02200:  MOVWF  FF6
02202:  MOVLW  04
02204:  MOVWF  FF7
02206:  CALL   125C
....................                delay_ms(1000); 
0220A:  MOVLW  04
0220C:  MOVLB  3
0220E:  MOVWF  x00
02210:  MOVLW  FA
02212:  MOVWF  xA9
02214:  MOVLB  0
02216:  CALL   0DA4
0221A:  MOVLB  3
0221C:  DECFSZ x00,F
0221E:  BRA    2210
....................                 lcd_cmd(LCD_CLEAR);  
02220:  MOVLW  01
02222:  MOVWF  xA8
02224:  MOVLB  0
02226:  CALL   0E5E
....................                return; 
0222A:  BRA    2240
....................             } else { 
0222C:  BRA    2232
....................                in_menu_selection = 0; 
0222E:  CLRF   4C
....................                return; 
02230:  BRA    2240
....................             } 
....................          } 
....................       } 
....................        
....................       delay_ms(1); 
02232:  MOVLW  01
02234:  MOVLB  3
02236:  MOVWF  xA9
02238:  MOVLB  0
0223A:  CALL   0DA4
0223E:  BRA    215C
....................    } 
02240:  GOTO   73C2 (RETURN)
.................... } 
....................  
....................  
.................... // ==================== MENU FUNCTIONS ==================== 
....................  
.................... void handle_phase_menu(void) { 
....................    while (input(ENCODER_SW) == 0); 
*
02256:  BTFSS  F81.6
02258:  BRA    2256
....................    lcd_cmd(LCD_CLEAR);   
0225A:  MOVLW  01
0225C:  MOVLB  3
0225E:  MOVWF  xA8
02260:  MOVLB  0
02262:  CALL   0E5E
....................    lcd_goto(1, 1);   
02266:  MOVLW  01
02268:  MOVLB  3
0226A:  MOVWF  xA5
0226C:  MOVWF  xA6
0226E:  MOVLB  0
02270:  CALL   119A
....................    printf(lcd_out, "1.PHASE SETTING"); 
02274:  MOVLW  02
02276:  MOVWF  FF6
02278:  MOVLW  05
0227A:  MOVWF  FF7
0227C:  CALL   125C
....................     
....................    int8 selected_phase = read_eeprom(0x00); 
....................    int8 original_phase = selected_phase; 
....................    int8 last_displayed = 255; 
02280:  MOVFF  FF2,302
02284:  BCF    FF2.7
02286:  CLRF   FAA
02288:  CLRF   FA9
0228A:  BCF    FA6.6
0228C:  BCF    FA6.7
0228E:  BSF    FA6.0
02290:  MOVF   FA8,W
02292:  MOVLB  3
02294:  BTFSC  x02.7
02296:  BSF    FF2.7
02298:  MOVLB  2
0229A:  MOVWF  xFF
0229C:  MOVFF  2FF,300
022A0:  MOVLB  3
022A2:  SETF   x01
....................     
....................    lcd_goto(1, 2);   
022A4:  MOVLW  01
022A6:  MOVWF  xA5
022A8:  MOVLW  02
022AA:  MOVWF  xA6
022AC:  MOVLB  0
022AE:  CALL   119A
....................    if (selected_phase == 0) 
022B2:  MOVLB  2
022B4:  MOVF   xFF,F
022B6:  BNZ   22CA
....................       printf(lcd_out, ">> 2 PHASE        "); 
022B8:  MOVLW  12
022BA:  MOVWF  FF6
022BC:  MOVLW  05
022BE:  MOVWF  FF7
022C0:  MOVLB  0
022C2:  CALL   125C
022C6:  BRA    22D8
022C8:  MOVLB  2
....................    else 
....................       printf(lcd_out, ">> 3 PHASE        "); 
022CA:  MOVLW  26
022CC:  MOVWF  FF6
022CE:  MOVLW  05
022D0:  MOVWF  FF7
022D2:  MOVLB  0
022D4:  CALL   125C
....................     
....................    while (1) { 
....................       if (input(ENCODER_A) == 0 && input(ENCODER_B) != 0) { 
022D8:  BTFSC  F82.5
022DA:  BRA    2300
022DC:  BSF    F92.4
022DE:  BTFSS  F80.4
022E0:  BRA    2300
....................          delay_ms(5); 
022E2:  MOVLW  05
022E4:  MOVLB  3
022E6:  MOVWF  xA9
022E8:  MOVLB  0
022EA:  CALL   0DA4
....................          selected_phase = (selected_phase + 1) % 2; 
022EE:  MOVLW  01
022F0:  MOVLB  2
022F2:  ADDWF  xFF,W
022F4:  ANDLW  01
022F6:  MOVWF  xFF
....................          while (input(ENCODER_A) == 0); 
022F8:  BTFSS  F82.5
022FA:  BRA    22F8
....................       } 
022FC:  BRA    232A
022FE:  MOVLB  0
....................       else if (input(ENCODER_B) == 0 && input(ENCODER_A) != 0) { 
02300:  BSF    F92.4
02302:  BTFSC  F80.4
02304:  BRA    232C
02306:  BTFSS  F82.5
02308:  BRA    232C
....................          delay_ms(5); 
0230A:  MOVLW  05
0230C:  MOVLB  3
0230E:  MOVWF  xA9
02310:  MOVLB  0
02312:  CALL   0DA4
....................          selected_phase = (selected_phase == 0) ? 1 : 0; 
02316:  MOVLB  2
02318:  MOVF   xFF,F
0231A:  BNZ   2320
0231C:  MOVLW  01
0231E:  BRA    2322
02320:  MOVLW  00
02322:  MOVWF  xFF
....................          while (input(ENCODER_B) == 0); 
02324:  BSF    F92.4
02326:  BTFSS  F80.4
02328:  BRA    2324
0232A:  MOVLB  0
....................       } 
....................        
....................       if (selected_phase != last_displayed) { 
0232C:  MOVLB  3
0232E:  MOVF   x01,W
02330:  MOVLB  2
02332:  SUBWF  xFF,W
02334:  BZ    2372
....................          lcd_goto(1, 2);  
02336:  MOVLW  01
02338:  MOVLB  3
0233A:  MOVWF  xA5
0233C:  MOVLW  02
0233E:  MOVWF  xA6
02340:  MOVLB  0
02342:  CALL   119A
....................          if (selected_phase == 0) 
02346:  MOVLB  2
02348:  MOVF   xFF,F
0234A:  BNZ   235E
....................             printf(lcd_out, ">> 2 PHASE        "); 
0234C:  MOVLW  3A
0234E:  MOVWF  FF6
02350:  MOVLW  05
02352:  MOVWF  FF7
02354:  MOVLB  0
02356:  CALL   125C
0235A:  BRA    236C
0235C:  MOVLB  2
....................          else 
....................             printf(lcd_out, ">> 3 PHASE        "); 
0235E:  MOVLW  4E
02360:  MOVWF  FF6
02362:  MOVLW  05
02364:  MOVWF  FF7
02366:  MOVLB  0
02368:  CALL   125C
....................          last_displayed = selected_phase; 
0236C:  MOVFF  2FF,301
02370:  MOVLB  2
....................       } 
....................        
....................       if (input(ENCODER_SW) == 0) { 
02372:  BTFSC  F81.6
02374:  BRA    24D4
....................          delay_ms(20); 
02376:  MOVLW  14
02378:  MOVLB  3
0237A:  MOVWF  xA9
0237C:  MOVLB  0
0237E:  CALL   0DA4
....................          if (input(ENCODER_SW) == 0) { 
02382:  BTFSC  F81.6
02384:  BRA    24D2
....................             if (selected_phase != original_phase) { 
02386:  MOVLB  3
02388:  MOVF   x00,W
0238A:  MOVLB  2
0238C:  SUBWF  xFF,W
0238E:  BZ    2468
....................                write_eeprom(0x00, selected_phase); 
02390:  MOVF   FF2,W
02392:  MOVWF  00
02394:  BCF    FF2.7
02396:  CLRF   FAA
02398:  CLRF   FA9
0239A:  MOVFF  2FF,FA8
0239E:  BCF    FA6.6
023A0:  BCF    FA6.7
023A2:  BSF    FA6.2
023A4:  MOVLB  F
023A6:  MOVLW  55
023A8:  MOVWF  FA7
023AA:  MOVLW  AA
023AC:  MOVWF  FA7
023AE:  BSF    FA6.1
023B0:  BTFSC  FA6.1
023B2:  BRA    23B0
023B4:  BCF    FA6.2
023B6:  MOVF   00,W
023B8:  IORWF  FF2,F
....................                lcd_cmd(LCD_CLEAR);   
023BA:  MOVLW  01
023BC:  MOVLB  3
023BE:  MOVWF  xA8
023C0:  MOVLB  0
023C2:  CALL   0E5E
....................                lcd_goto(1, 1);   
023C6:  MOVLW  01
023C8:  MOVLB  3
023CA:  MOVWF  xA5
023CC:  MOVWF  xA6
023CE:  MOVLB  0
023D0:  CALL   119A
....................                printf(lcd_out, "PHASE SAVED"); 
023D4:  MOVLW  62
023D6:  MOVWF  FF6
023D8:  MOVLW  05
023DA:  MOVWF  FF7
023DC:  CALL   125C
....................                lcd_goto(1, 2);   
023E0:  MOVLW  01
023E2:  MOVLB  3
023E4:  MOVWF  xA5
023E6:  MOVLW  02
023E8:  MOVWF  xA6
023EA:  MOVLB  0
023EC:  CALL   119A
....................                if (selected_phase == 0) 
023F0:  MOVLB  2
023F2:  MOVF   xFF,F
023F4:  BNZ   240C
....................                { 
....................                   printf(lcd_out, "2 PHASE"); 
023F6:  MOVLW  6E
023F8:  MOVWF  FF6
023FA:  MOVLW  05
023FC:  MOVWF  FF7
023FE:  MOVLB  0
02400:  CALL   125C
....................                   phase=selected_phase; 
02404:  MOVFF  2FF,153
....................                } 
02408:  BRA    241E
0240A:  MOVLB  2
....................                else{ 
....................                   printf(lcd_out, "3 PHASE"); 
0240C:  MOVLW  76
0240E:  MOVWF  FF6
02410:  MOVLW  05
02412:  MOVWF  FF7
02414:  MOVLB  0
02416:  CALL   125C
....................                   phase=selected_phase; 
0241A:  MOVFF  2FF,153
....................                } 
....................                while (input(ENCODER_SW) == 0); 
0241E:  BTFSS  F81.6
02420:  BRA    241E
....................                // ===== CHANGED: Show Press ENTER instead of delay ===== 
....................                lcd_goto(1, 2); 
02422:  MOVLW  01
02424:  MOVLB  3
02426:  MOVWF  xA5
02428:  MOVLW  02
0242A:  MOVWF  xA6
0242C:  MOVLB  0
0242E:  CALL   119A
....................                printf(lcd_out, "Press ENTER     "); 
02432:  MOVLW  7E
02434:  MOVWF  FF6
02436:  MOVLW  05
02438:  MOVWF  FF7
0243A:  CALL   125C
....................                while(input(ENCODER_SW) == 1); 
0243E:  BTFSC  F81.6
02440:  BRA    243E
....................                delay_ms(20); 
02442:  MOVLW  14
02444:  MOVLB  3
02446:  MOVWF  xA9
02448:  MOVLB  0
0244A:  CALL   0DA4
....................                while(input(ENCODER_SW) == 0); 
0244E:  BTFSS  F81.6
02450:  BRA    244E
....................                delay_ms(50); 
02452:  MOVLW  32
02454:  MOVLB  3
02456:  MOVWF  xA9
02458:  MOVLB  0
0245A:  CALL   0DA4
....................                // ===== END CHANGE ===== 
....................                phase_setting = selected_phase; 
0245E:  MOVFF  2FF,40
....................                advance_to_next_menu(); 
02462:  RCALL  2244
....................             } 
02464:  BRA    24D0
02466:  MOVLB  2
....................             else { 
....................                while (input(ENCODER_SW) == 0); 
02468:  BTFSS  F81.6
0246A:  BRA    2468
....................                // ===== CHANGED: Show No Change + Press ENTER ===== 
....................                lcd_cmd(LCD_CLEAR); 
0246C:  MOVLW  01
0246E:  MOVLB  3
02470:  MOVWF  xA8
02472:  MOVLB  0
02474:  CALL   0E5E
....................                lcd_goto(1, 1); 
02478:  MOVLW  01
0247A:  MOVLB  3
0247C:  MOVWF  xA5
0247E:  MOVWF  xA6
02480:  MOVLB  0
02482:  CALL   119A
....................                printf(lcd_out, "No Change"); 
02486:  MOVLW  90
02488:  MOVWF  FF6
0248A:  MOVLW  05
0248C:  MOVWF  FF7
0248E:  CALL   125C
....................                lcd_goto(1, 2); 
02492:  MOVLW  01
02494:  MOVLB  3
02496:  MOVWF  xA5
02498:  MOVLW  02
0249A:  MOVWF  xA6
0249C:  MOVLB  0
0249E:  CALL   119A
....................                printf(lcd_out, "Press ENTER"); 
024A2:  MOVLW  9A
024A4:  MOVWF  FF6
024A6:  MOVLW  05
024A8:  MOVWF  FF7
024AA:  CALL   125C
....................                while(input(ENCODER_SW) == 1); 
024AE:  BTFSC  F81.6
024B0:  BRA    24AE
....................                delay_ms(20); 
024B2:  MOVLW  14
024B4:  MOVLB  3
024B6:  MOVWF  xA9
024B8:  MOVLB  0
024BA:  CALL   0DA4
....................                while(input(ENCODER_SW) == 0); 
024BE:  BTFSS  F81.6
024C0:  BRA    24BE
....................                delay_ms(50); 
024C2:  MOVLW  32
024C4:  MOVLB  3
024C6:  MOVWF  xA9
024C8:  MOVLB  0
024CA:  CALL   0DA4
....................                // ===== END CHANGE ===== 
....................                advance_to_next_menu(); 
024CE:  RCALL  2244
....................             } 
....................             break; 
024D0:  BRA    24E2
024D2:  MOVLB  2
....................          } 
....................       } 
....................       delay_ms(1); 
024D4:  MOVLW  01
024D6:  MOVLB  3
024D8:  MOVWF  xA9
024DA:  MOVLB  0
024DC:  CALL   0DA4
024E0:  BRA    22D8
....................    } 
024E2:  GOTO   73D2 (RETURN)
.................... } 
....................  
.................... int16 handle_parameter_input(char* title, int16 value, int16 min, int16 max) {  
*
0355E:  MOVLB  3
03560:  SETF   xA0
03562:  SETF   x9F
03564:  MOVLW  01
03566:  MOVWF  xA1
03568:  SETF   xA2
....................    int16 last_value = 65535; 
....................    int8 increment_mode = 1; 
....................    int8 last_mode = -1; 
....................     
....................    while (TRUE) { 
....................       if (value > max) value = max; 
0356A:  MOVF   x9E,W
0356C:  SUBWF  x9A,W
0356E:  BNC   3580
03570:  BNZ   3578
03572:  MOVF   x99,W
03574:  SUBWF  x9D,W
03576:  BC    3580
03578:  MOVFF  39E,39A
0357C:  MOVFF  39D,399
....................       if (value < min) value = min; 
03580:  MOVF   x9A,W
03582:  SUBWF  x9C,W
03584:  BNC   3596
03586:  BNZ   358E
03588:  MOVF   x9B,W
0358A:  SUBWF  x99,W
0358C:  BC    3596
0358E:  MOVFF  39C,39A
03592:  MOVFF  39B,399
....................        
....................       if (input(key1) == 0) { 
03596:  BTFSC  F81.3
03598:  BRA    35DE
....................          delay_ms(50); 
0359A:  MOVLW  32
0359C:  MOVWF  xA9
0359E:  MOVLB  0
035A0:  CALL   0DA4
....................          if (increment_mode == 1) increment_mode = 10; 
035A4:  MOVLB  3
035A6:  DECFSZ xA1,W
035A8:  BRA    35B0
035AA:  MOVLW  0A
035AC:  MOVWF  xA1
035AE:  BRA    35C0
....................          else if (increment_mode == 10) increment_mode = 100; 
035B0:  MOVF   xA1,W
035B2:  SUBLW  0A
035B4:  BNZ   35BC
035B6:  MOVLW  64
035B8:  MOVWF  xA1
035BA:  BRA    35C0
....................          else increment_mode = 1; 
035BC:  MOVLW  01
035BE:  MOVWF  xA1
....................          last_mode = -1; 
035C0:  SETF   xA2
....................          int8 timeout = 50; 
035C2:  MOVLW  32
035C4:  MOVWF  xA3
....................          while (input(key1) == 0 && timeout > 0) { 
035C6:  BTFSC  F81.3
035C8:  BRA    35DE
035CA:  MOVF   xA3,F
035CC:  BZ    35DE
....................             delay_ms(10); 
035CE:  MOVLW  0A
035D0:  MOVWF  xA9
035D2:  MOVLB  0
035D4:  CALL   0DA4
....................             timeout--; 
035D8:  MOVLB  3
035DA:  DECF   xA3,F
035DC:  BRA    35C6
....................          } 
....................       } 
....................       if (input(key2) == 0) { 
035DE:  BTFSC  F81.2
035E0:  BRA    3610
....................          delay_ms(50); 
035E2:  MOVLW  32
035E4:  MOVWF  xA9
035E6:  MOVLB  0
035E8:  CALL   0DA4
....................          increment_mode = 1; 
035EC:  MOVLW  01
035EE:  MOVLB  3
035F0:  MOVWF  xA1
....................          last_mode = -1; 
035F2:  SETF   xA2
....................          int8 timeout = 50; 
035F4:  MOVLW  32
035F6:  MOVWF  xA4
....................          while (input(key2) == 0 && timeout > 0) { 
035F8:  BTFSC  F81.2
035FA:  BRA    3610
035FC:  MOVF   xA4,F
035FE:  BZ    3610
....................             delay_ms(10); 
03600:  MOVLW  0A
03602:  MOVWF  xA9
03604:  MOVLB  0
03606:  CALL   0DA4
....................             timeout--; 
0360A:  MOVLB  3
0360C:  DECF   xA4,F
0360E:  BRA    35F8
....................          } 
....................       } 
....................        
....................       if (input(ENCODER_A) == 0 && input(ENCODER_B) != 0) { 
03610:  BTFSC  F82.5
03612:  BRA    3676
03614:  BSF    F92.4
03616:  BTFSS  F80.4
03618:  BRA    3676
....................          delay_ms(5); 
0361A:  MOVLW  05
0361C:  MOVWF  xA9
0361E:  MOVLB  0
03620:  CALL   0DA4
....................          if (value <= (max - increment_mode)) { 
03624:  MOVLB  3
03626:  MOVF   xA1,W
03628:  SUBWF  x9D,W
0362A:  MOVWF  00
0362C:  MOVLW  00
0362E:  SUBWFB x9E,W
03630:  MOVWF  03
03632:  MOVFF  00,01
03636:  MOVF   x9A,W
03638:  SUBWF  03,W
0363A:  BNC   364E
0363C:  BNZ   3644
0363E:  MOVF   x99,W
03640:  SUBWF  01,W
03642:  BNC   364E
....................             value += increment_mode; 
03644:  MOVF   xA1,W
03646:  ADDWF  x99,F
03648:  MOVLW  00
0364A:  ADDWFC x9A,F
....................          } else if (value < max) { 
0364C:  BRA    3664
0364E:  MOVF   x9A,W
03650:  SUBWF  x9E,W
03652:  BNC   3664
03654:  BNZ   365C
03656:  MOVF   x9D,W
03658:  SUBWF  x99,W
0365A:  BC    3664
....................             value = max; 
0365C:  MOVFF  39E,39A
03660:  MOVFF  39D,399
....................          } 
....................          delay_ms(40); 
03664:  MOVLW  28
03666:  MOVWF  xA9
03668:  MOVLB  0
0366A:  CALL   0DA4
....................          while (input(ENCODER_A) == 0); 
0366E:  BTFSS  F82.5
03670:  BRA    366E
....................       } 
03672:  BRA    36D6
03674:  MOVLB  3
....................       else if (input(ENCODER_B) == 0 && input(ENCODER_A) != 0) { 
03676:  BSF    F92.4
03678:  BTFSC  F80.4
0367A:  BRA    36D8
0367C:  BTFSS  F82.5
0367E:  BRA    36D8
....................          delay_ms(5); 
03680:  MOVLW  05
03682:  MOVWF  xA9
03684:  MOVLB  0
03686:  CALL   0DA4
....................          if (value >= (min + increment_mode)) { 
0368A:  MOVLB  3
0368C:  MOVF   xA1,W
0368E:  ADDWF  x9B,W
03690:  MOVWF  01
03692:  MOVLW  00
03694:  ADDWFC x9C,W
03696:  MOVWF  03
03698:  MOVF   03,W
0369A:  SUBWF  x9A,W
0369C:  BNC   36B0
0369E:  BNZ   36A6
036A0:  MOVF   01,W
036A2:  SUBWF  x99,W
036A4:  BNC   36B0
....................             value -= increment_mode; 
036A6:  MOVF   xA1,W
036A8:  SUBWF  x99,F
036AA:  MOVLW  00
036AC:  SUBWFB x9A,F
....................          } else if (value > min) { 
036AE:  BRA    36C6
036B0:  MOVF   x9C,W
036B2:  SUBWF  x9A,W
036B4:  BNC   36C6
036B6:  BNZ   36BE
036B8:  MOVF   x99,W
036BA:  SUBWF  x9B,W
036BC:  BC    36C6
....................             value = min; 
036BE:  MOVFF  39C,39A
036C2:  MOVFF  39B,399
....................          } 
....................          delay_ms(40); 
036C6:  MOVLW  28
036C8:  MOVWF  xA9
036CA:  MOVLB  0
036CC:  CALL   0DA4
....................          while (input(ENCODER_B) == 0); 
036D0:  BSF    F92.4
036D2:  BTFSS  F80.4
036D4:  BRA    36D0
036D6:  MOVLB  3
....................       } 
....................        
....................       if (value != last_value || increment_mode != last_mode) { 
036D8:  MOVF   x9F,W
036DA:  SUBWF  x99,W
036DC:  BNZ   36EA
036DE:  MOVF   xA0,W
036E0:  SUBWF  x9A,W
036E2:  BNZ   36EA
036E4:  MOVF   xA2,W
036E6:  SUBWF  xA1,W
036E8:  BZ    37CA
....................          lcd_cmd(LCD_CLEAR);   
036EA:  MOVLW  01
036EC:  MOVWF  xA8
036EE:  MOVLB  0
036F0:  CALL   0E5E
....................          delay_ms(50); 
036F4:  MOVLW  32
036F6:  MOVLB  3
036F8:  MOVWF  xA9
036FA:  MOVLB  0
036FC:  CALL   0DA4
....................           
....................          lcd_goto(1, 1);  
03700:  MOVLW  01
03702:  MOVLB  3
03704:  MOVWF  xA5
03706:  MOVWF  xA6
03708:  MOVLB  0
0370A:  CALL   119A
....................          if (increment_mode == 1) { 
0370E:  MOVLB  3
03710:  DECFSZ xA1,W
03712:  BRA    373A
....................             printf(lcd_out, "%s NRM", title); 
03714:  MOVFF  398,FEA
03718:  MOVFF  397,FE9
0371C:  MOVLB  0
0371E:  CALL   20B4
03722:  MOVLW  A8
03724:  MOVWF  FF6
03726:  MOVLW  05
03728:  MOVWF  FF7
0372A:  MOVLW  04
0372C:  MOVLB  3
0372E:  MOVWF  xA5
03730:  MOVLB  0
03732:  CALL   18B8
....................          } 
03736:  BRA    3788
03738:  MOVLB  3
....................          else if (increment_mode == 10) { 
0373A:  MOVF   xA1,W
0373C:  SUBLW  0A
0373E:  BNZ   3766
....................             printf(lcd_out, "%s FST", title); 
03740:  MOVFF  398,FEA
03744:  MOVFF  397,FE9
03748:  MOVLB  0
0374A:  CALL   20B4
0374E:  MOVLW  B0
03750:  MOVWF  FF6
03752:  MOVLW  05
03754:  MOVWF  FF7
03756:  MOVLW  04
03758:  MOVLB  3
0375A:  MOVWF  xA5
0375C:  MOVLB  0
0375E:  CALL   18B8
....................          } 
03762:  BRA    3788
03764:  MOVLB  3
....................          else { 
....................             printf(lcd_out, "%s SUF", title); 
03766:  MOVFF  398,FEA
0376A:  MOVFF  397,FE9
0376E:  MOVLB  0
03770:  CALL   20B4
03774:  MOVLW  B8
03776:  MOVWF  FF6
03778:  MOVLW  05
0377A:  MOVWF  FF7
0377C:  MOVLW  04
0377E:  MOVLB  3
03780:  MOVWF  xA5
03782:  MOVLB  0
03784:  CALL   18B8
....................          } 
....................           
....................          lcd_goto(1, 2);  
03788:  MOVLW  01
0378A:  MOVLB  3
0378C:  MOVWF  xA5
0378E:  MOVLW  02
03790:  MOVWF  xA6
03792:  MOVLB  0
03794:  CALL   119A
....................          printf(lcd_out, ">> %ld", (long)value); 
03798:  MOVLW  BE
0379A:  MOVWF  FF6
0379C:  MOVLW  05
0379E:  MOVWF  FF7
037A0:  MOVLW  03
037A2:  MOVLB  3
037A4:  MOVWF  xA5
037A6:  MOVLB  0
037A8:  CALL   18B8
037AC:  MOVLW  10
037AE:  MOVWF  FE9
037B0:  MOVFF  39A,3A6
037B4:  MOVFF  399,3A5
037B8:  CALL   18E0
....................           
....................          last_value = value; 
037BC:  MOVFF  39A,3A0
037C0:  MOVFF  399,39F
....................          last_mode = increment_mode; 
037C4:  MOVFF  3A1,3A2
037C8:  MOVLB  3
....................       } 
....................        
....................       if (!input(ENCODER_SW)) { 
037CA:  BTFSC  F81.6
037CC:  BRA    37E0
....................          delay_ms(50); 
037CE:  MOVLW  32
037D0:  MOVWF  xA9
037D2:  MOVLB  0
037D4:  CALL   0DA4
....................          while (!input(ENCODER_SW)); 
037D8:  BTFSS  F81.6
037DA:  BRA    37D8
....................          break; 
037DC:  BRA    37F0
037DE:  MOVLB  3
....................          } 
....................           delay_ms(5); 
037E0:  MOVLW  05
037E2:  MOVWF  xA9
037E4:  MOVLB  0
037E6:  CALL   0DA4
037EA:  MOVLB  3
037EC:  BRA    356A
037EE:  MOVLB  0
....................    } 
....................    return value; 
037F0:  MOVLB  3
037F2:  MOVFF  399,01
037F6:  MOVFF  39A,02
037FA:  MOVLB  0
037FC:  RETURN 0
.................... } 
....................  
.................... void handle_juice_menu(void) { 
....................  
....................    while (input(ENCODER_SW) == 0); 
*
024E6:  BTFSS  F81.6
024E8:  BRA    24E6
....................     
....................    int8 juice_enable = read_eeprom(0x03); 
024EA:  MOVFF  FF2,301
024EE:  BCF    FF2.7
024F0:  CLRF   FAA
024F2:  MOVLW  03
024F4:  MOVWF  FA9
024F6:  BCF    FA6.6
024F8:  BCF    FA6.7
024FA:  BSF    FA6.0
024FC:  MOVF   FA8,W
024FE:  MOVLB  3
02500:  BTFSC  x01.7
02502:  BSF    FF2.7
02504:  MOVLB  2
02506:  MOVWF  xFF
....................    if (juice_enable != 0 && juice_enable != 1) { 
02508:  MOVF   xFF,F
0250A:  BZ    2516
0250C:  DECFSZ xFF,W
0250E:  BRA    2512
02510:  BRA    2516
....................       juice_enable = 1; 
02512:  MOVLW  01
02514:  MOVWF  xFF
....................    } 
....................    int8 last_juice = 255; 
02516:  MOVLB  3
02518:  SETF   x00
....................  
....................    lcd_cmd(LCD_CLEAR); 
0251A:  MOVLW  01
0251C:  MOVWF  xA8
0251E:  MOVLB  0
02520:  CALL   0E5E
....................    lcd_goto(1, 1); 
02524:  MOVLW  01
02526:  MOVLB  3
02528:  MOVWF  xA5
0252A:  MOVWF  xA6
0252C:  MOVLB  0
0252E:  CALL   119A
....................    printf(lcd_out, "2.JUICE CONTROL"); 
02532:  MOVLW  C6
02534:  MOVWF  FF6
02536:  MOVLW  05
02538:  MOVWF  FF7
0253A:  CALL   125C
....................  
....................    lcd_goto(1, 2); 
0253E:  MOVLW  01
02540:  MOVLB  3
02542:  MOVWF  xA5
02544:  MOVLW  02
02546:  MOVWF  xA6
02548:  MOVLB  0
0254A:  CALL   119A
....................    if (juice_enable == 1) 
0254E:  MOVLB  2
02550:  DECFSZ xFF,W
02552:  BRA    2566
....................       printf(lcd_out, ">> ENABLE        "); 
02554:  MOVLW  D6
02556:  MOVWF  FF6
02558:  MOVLW  05
0255A:  MOVWF  FF7
0255C:  MOVLB  0
0255E:  CALL   125C
02562:  BRA    2574
02564:  MOVLB  2
....................    else 
....................       printf(lcd_out, ">> DISABLE       "); 
02566:  MOVLW  E8
02568:  MOVWF  FF6
0256A:  MOVLW  05
0256C:  MOVWF  FF7
0256E:  MOVLB  0
02570:  CALL   125C
....................  
....................    while (1) { 
....................  
....................       if (input(ENCODER_A) == 0 && input(ENCODER_B) != 0) { 
02574:  BTFSC  F82.5
02576:  BRA    25A0
02578:  BSF    F92.4
0257A:  BTFSS  F80.4
0257C:  BRA    25A0
....................          delay_ms(5); 
0257E:  MOVLW  05
02580:  MOVLB  3
02582:  MOVWF  xA9
02584:  MOVLB  0
02586:  CALL   0DA4
....................          juice_enable = (juice_enable == 1) ? 0 : 1; 
0258A:  MOVLB  2
0258C:  DECFSZ xFF,W
0258E:  BRA    2594
02590:  MOVLW  00
02592:  BRA    2596
02594:  MOVLW  01
02596:  MOVWF  xFF
....................          while (input(ENCODER_A) == 0); 
02598:  BTFSS  F82.5
0259A:  BRA    2598
....................       } 
0259C:  BRA    25CA
0259E:  MOVLB  0
....................       else if (input(ENCODER_B) == 0 && input(ENCODER_A) != 0) { 
025A0:  BSF    F92.4
025A2:  BTFSC  F80.4
025A4:  BRA    25CC
025A6:  BTFSS  F82.5
025A8:  BRA    25CC
....................          delay_ms(5); 
025AA:  MOVLW  05
025AC:  MOVLB  3
025AE:  MOVWF  xA9
025B0:  MOVLB  0
025B2:  CALL   0DA4
....................          juice_enable = (juice_enable == 1) ? 0 : 1; 
025B6:  MOVLB  2
025B8:  DECFSZ xFF,W
025BA:  BRA    25C0
025BC:  MOVLW  00
025BE:  BRA    25C2
025C0:  MOVLW  01
025C2:  MOVWF  xFF
....................          while (input(ENCODER_B) == 0); 
025C4:  BSF    F92.4
025C6:  BTFSS  F80.4
025C8:  BRA    25C4
025CA:  MOVLB  0
....................       } 
....................  
....................       if (juice_enable != last_juice) { 
025CC:  MOVLB  3
025CE:  MOVF   x00,W
025D0:  MOVLB  2
025D2:  SUBWF  xFF,W
025D4:  BZ    2612
....................          lcd_goto(1, 2); 
025D6:  MOVLW  01
025D8:  MOVLB  3
025DA:  MOVWF  xA5
025DC:  MOVLW  02
025DE:  MOVWF  xA6
025E0:  MOVLB  0
025E2:  CALL   119A
....................          if (juice_enable == 1) 
025E6:  MOVLB  2
025E8:  DECFSZ xFF,W
025EA:  BRA    25FE
....................             printf(lcd_out, ">> ENABLE        "); 
025EC:  MOVLW  FA
025EE:  MOVWF  FF6
025F0:  MOVLW  05
025F2:  MOVWF  FF7
025F4:  MOVLB  0
025F6:  CALL   125C
025FA:  BRA    260C
025FC:  MOVLB  2
....................          else 
....................             printf(lcd_out, ">> DISABLE       "); 
025FE:  MOVLW  0C
02600:  MOVWF  FF6
02602:  MOVLW  06
02604:  MOVWF  FF7
02606:  MOVLB  0
02608:  CALL   125C
....................          last_juice = juice_enable; 
0260C:  MOVFF  2FF,300
02610:  MOVLB  2
....................       } 
....................  
....................       if (input(ENCODER_SW) == 0) { 
02612:  BTFSC  F81.6
02614:  BRA    2700
....................          delay_ms(20); 
02616:  MOVLW  14
02618:  MOVLB  3
0261A:  MOVWF  xA9
0261C:  MOVLB  0
0261E:  CALL   0DA4
....................          if (input(ENCODER_SW) == 0) { 
02622:  BTFSC  F81.6
02624:  BRA    26FE
....................           
....................             write_eeprom(0x03, juice_enable); 
02626:  MOVF   FF2,W
02628:  MOVWF  00
0262A:  BCF    FF2.7
0262C:  CLRF   FAA
0262E:  MOVLW  03
02630:  MOVWF  FA9
02632:  MOVFF  2FF,FA8
02636:  BCF    FA6.6
02638:  BCF    FA6.7
0263A:  BSF    FA6.2
0263C:  MOVLB  F
0263E:  MOVLW  55
02640:  MOVWF  FA7
02642:  MOVLW  AA
02644:  MOVWF  FA7
02646:  BSF    FA6.1
02648:  BTFSC  FA6.1
0264A:  BRA    2648
0264C:  BCF    FA6.2
0264E:  MOVF   00,W
02650:  IORWF  FF2,F
....................              
....................             lcd_cmd(LCD_CLEAR); 
02652:  MOVLW  01
02654:  MOVLB  3
02656:  MOVWF  xA8
02658:  MOVLB  0
0265A:  CALL   0E5E
....................             lcd_goto(1, 1); 
0265E:  MOVLW  01
02660:  MOVLB  3
02662:  MOVWF  xA5
02664:  MOVWF  xA6
02666:  MOVLB  0
02668:  CALL   119A
....................             printf(lcd_out, "JUICE CTRL SAVED"); 
0266C:  MOVLW  1E
0266E:  MOVWF  FF6
02670:  MOVLW  06
02672:  MOVWF  FF7
02674:  CALL   125C
....................             lcd_goto(1, 2); 
02678:  MOVLW  01
0267A:  MOVLB  3
0267C:  MOVWF  xA5
0267E:  MOVLW  02
02680:  MOVWF  xA6
02682:  MOVLB  0
02684:  CALL   119A
....................             if (juice_enable == 1) 
02688:  MOVLB  2
0268A:  DECFSZ xFF,W
0268C:  BRA    26A0
....................                printf(lcd_out, "STATUS: ENABLE  "); 
0268E:  MOVLW  30
02690:  MOVWF  FF6
02692:  MOVLW  06
02694:  MOVWF  FF7
02696:  MOVLB  0
02698:  CALL   125C
0269C:  BRA    26AE
0269E:  MOVLB  2
....................             else 
....................                printf(lcd_out, "STATUS: DISABLE "); 
026A0:  MOVLW  42
026A2:  MOVWF  FF6
026A4:  MOVLW  06
026A6:  MOVWF  FF7
026A8:  MOVLB  0
026AA:  CALL   125C
....................                 
....................             while (input(ENCODER_SW) == 0); 
026AE:  BTFSS  F81.6
026B0:  BRA    26AE
....................             // ===== CHANGED: Press ENTER to proceed ===== 
....................             lcd_goto(1, 2); 
026B2:  MOVLW  01
026B4:  MOVLB  3
026B6:  MOVWF  xA5
026B8:  MOVLW  02
026BA:  MOVWF  xA6
026BC:  MOVLB  0
026BE:  CALL   119A
....................             printf(lcd_out, "Press ENTER     "); 
026C2:  MOVLW  54
026C4:  MOVWF  FF6
026C6:  MOVLW  06
026C8:  MOVWF  FF7
026CA:  CALL   125C
....................             while(input(ENCODER_SW) == 1); 
026CE:  BTFSC  F81.6
026D0:  BRA    26CE
....................             delay_ms(20); 
026D2:  MOVLW  14
026D4:  MOVLB  3
026D6:  MOVWF  xA9
026D8:  MOVLB  0
026DA:  CALL   0DA4
....................             while(input(ENCODER_SW) == 0); 
026DE:  BTFSS  F81.6
026E0:  BRA    26DE
....................             delay_ms(50); 
026E2:  MOVLW  32
026E4:  MOVLB  3
026E6:  MOVWF  xA9
026E8:  MOVLB  0
026EA:  CALL   0DA4
....................             // ===== END CHANGE ===== 
....................             lcd_cmd(LCD_CLEAR); 
026EE:  MOVLW  01
026F0:  MOVLB  3
026F2:  MOVWF  xA8
026F4:  MOVLB  0
026F6:  CALL   0E5E
....................             advance_to_next_menu(); 
026FA:  RCALL  2244
....................             break; 
026FC:  BRA    270E
026FE:  MOVLB  2
....................          } 
....................       } 
....................       delay_ms(1); 
02700:  MOVLW  01
02702:  MOVLB  3
02704:  MOVWF  xA9
02706:  MOVLB  0
02708:  CALL   0DA4
0270C:  BRA    2574
....................    } 
0270E:  GOTO   73DE (RETURN)
.................... } 
....................  
.................... void handle_power_on_delay(void) { 
....................    while (input(ENCODER_SW) == 0); 
02712:  BTFSS  F81.6
02714:  BRA    2712
....................     
....................    int16 delay_time = make16(read_eeprom(0x11), read_eeprom(0x10)); 
02716:  MOVFF  FF2,30A
0271A:  BCF    FF2.7
0271C:  CLRF   FAA
0271E:  MOVLW  11
02720:  MOVWF  FA9
02722:  BCF    FA6.6
02724:  BCF    FA6.7
02726:  BSF    FA6.0
02728:  MOVF   FA8,W
0272A:  MOVLB  3
0272C:  BTFSC  x0A.7
0272E:  BSF    FF2.7
02730:  MOVWF  x0B
02732:  MOVFF  FF2,30C
02736:  BCF    FF2.7
02738:  CLRF   FAA
0273A:  MOVLW  10
0273C:  MOVWF  FA9
0273E:  BCF    FA6.6
02740:  BCF    FA6.7
02742:  BSF    FA6.0
02744:  MOVF   FA8,W
02746:  BTFSC  x0C.7
02748:  BSF    FF2.7
0274A:  MOVWF  x0D
0274C:  MOVFF  30B,300
02750:  MOVFF  30D,2FF
....................    if (delay_time > 999) delay_time = 999; 
02754:  MOVF   x00,W
02756:  SUBLW  02
02758:  BC    277A
0275A:  XORLW  FF
0275C:  BNZ   276E
0275E:  MOVLB  2
02760:  MOVF   xFF,W
02762:  SUBLW  E7
02764:  BTFSS  FD8.0
02766:  BRA    276C
02768:  MOVLB  3
0276A:  BRA    277A
0276C:  MOVLB  3
0276E:  MOVLW  03
02770:  MOVWF  x00
02772:  MOVLW  E7
02774:  MOVLB  2
02776:  MOVWF  xFF
02778:  MOVLB  3
....................    if (delay_time < 0)   delay_time = 0; 
....................     
....................    int16 original_delay = delay_time; 
....................    int8 increment_mode = 1; 
....................    int16 last_value = -1; 
....................    int8 last_mode = -1; 
....................    int1 button_pressed_flag = 0; 
0277A:  MOVFF  300,302
0277E:  MOVFF  2FF,301
02782:  MOVLW  01
02784:  MOVWF  x03
02786:  SETF   x05
02788:  SETF   x04
0278A:  SETF   x06
0278C:  BCF    x07.0
....................     
....................    lcd_cmd(LCD_CLEAR); 
0278E:  MOVWF  xA8
02790:  MOVLB  0
02792:  CALL   0E5E
....................    delay_ms(100); 
02796:  MOVLW  64
02798:  MOVLB  3
0279A:  MOVWF  xA9
0279C:  MOVLB  0
0279E:  CALL   0DA4
....................     
....................    while (1) { 
....................       if (delay_time > 999) delay_time = 999; 
027A2:  MOVLB  3
027A4:  MOVF   x00,W
027A6:  SUBLW  02
027A8:  BC    27CA
027AA:  XORLW  FF
027AC:  BNZ   27BE
027AE:  MOVLB  2
027B0:  MOVF   xFF,W
027B2:  SUBLW  E7
027B4:  BTFSS  FD8.0
027B6:  BRA    27BC
027B8:  MOVLB  3
027BA:  BRA    27CA
027BC:  MOVLB  3
027BE:  MOVLW  03
027C0:  MOVWF  x00
027C2:  MOVLW  E7
027C4:  MOVLB  2
027C6:  MOVWF  xFF
027C8:  MOVLB  3
....................       if (delay_time < 0) delay_time = 0; 
....................        
....................       if (delay_time != last_value || increment_mode != last_mode) { 
027CA:  MOVF   x04,W
027CC:  MOVLB  2
027CE:  SUBWF  xFF,W
027D0:  BNZ   27E8
027D2:  MOVLB  3
027D4:  MOVF   x05,W
027D6:  SUBWF  x00,W
027D8:  BTFSC  FD8.2
027DA:  BRA    27E0
027DC:  MOVLB  2
027DE:  BRA    27E8
027E0:  MOVF   x06,W
027E2:  SUBWF  x03,W
027E4:  BZ    28A2
027E6:  MOVLB  2
....................          lcd_cmd(LCD_CLEAR); 
027E8:  MOVLW  01
027EA:  MOVLB  3
027EC:  MOVWF  xA8
027EE:  MOVLB  0
027F0:  CALL   0E5E
....................          lcd_goto(1, 1);    
027F4:  MOVLW  01
027F6:  MOVLB  3
027F8:  MOVWF  xA5
027FA:  MOVWF  xA6
027FC:  MOVLB  0
027FE:  CALL   119A
....................          if (increment_mode == 1) { 
02802:  MOVLB  3
02804:  DECFSZ x03,W
02806:  BRA    281A
....................             printf(lcd_out, "3.PWR DLY NORM"); 
02808:  MOVLW  66
0280A:  MOVWF  FF6
0280C:  MOVLW  06
0280E:  MOVWF  FF7
02810:  MOVLB  0
02812:  CALL   125C
....................          } 
02816:  BRA    2840
02818:  MOVLB  3
....................          else if (increment_mode == 10) { 
0281A:  MOVF   x03,W
0281C:  SUBLW  0A
0281E:  BNZ   2832
....................             printf(lcd_out, "3.PWR DLY FAST"); 
02820:  MOVLW  76
02822:  MOVWF  FF6
02824:  MOVLW  06
02826:  MOVWF  FF7
02828:  MOVLB  0
0282A:  CALL   125C
....................          } 
0282E:  BRA    2840
02830:  MOVLB  3
....................          else { 
....................             printf(lcd_out, "3.PWR DLY SUFA"); 
02832:  MOVLW  86
02834:  MOVWF  FF6
02836:  MOVLW  06
02838:  MOVWF  FF7
0283A:  MOVLB  0
0283C:  CALL   125C
....................          } 
....................           
....................          lcd_goto(1, 2);  
02840:  MOVLW  01
02842:  MOVLB  3
02844:  MOVWF  xA5
02846:  MOVLW  02
02848:  MOVWF  xA6
0284A:  MOVLB  0
0284C:  CALL   119A
....................          printf(lcd_out, "   %ld sec   ", (long)delay_time); 
02850:  MOVLW  96
02852:  MOVWF  FF6
02854:  MOVLW  06
02856:  MOVWF  FF7
02858:  MOVLW  03
0285A:  MOVLB  3
0285C:  MOVWF  xA5
0285E:  MOVLB  0
02860:  CALL   18B8
02864:  MOVLW  10
02866:  MOVWF  FE9
02868:  MOVFF  300,3A6
0286C:  MOVFF  2FF,3A5
02870:  CALL   18E0
02874:  MOVLW  9C
02876:  MOVWF  FF6
02878:  MOVLW  06
0287A:  MOVWF  FF7
0287C:  MOVLW  07
0287E:  MOVLB  3
02880:  MOVWF  xA5
02882:  MOVLB  0
02884:  CALL   18B8
....................           
....................          last_value = delay_time; 
02888:  MOVFF  300,305
0288C:  MOVFF  2FF,304
....................          last_mode = increment_mode; 
02890:  MOVFF  303,306
....................          delay_ms(50); 
02894:  MOVLW  32
02896:  MOVLB  3
02898:  MOVWF  xA9
0289A:  MOVLB  0
0289C:  CALL   0DA4
028A0:  MOVLB  3
....................       } 
....................        
....................       if (input(key1) == 0) { 
028A2:  BTFSC  F81.3
028A4:  BRA    28EA
....................          delay_ms(50); 
028A6:  MOVLW  32
028A8:  MOVWF  xA9
028AA:  MOVLB  0
028AC:  CALL   0DA4
....................          if (increment_mode == 1) increment_mode = 10; 
028B0:  MOVLB  3
028B2:  DECFSZ x03,W
028B4:  BRA    28BC
028B6:  MOVLW  0A
028B8:  MOVWF  x03
028BA:  BRA    28CC
....................          else if (increment_mode == 10) increment_mode = 100; 
028BC:  MOVF   x03,W
028BE:  SUBLW  0A
028C0:  BNZ   28C8
028C2:  MOVLW  64
028C4:  MOVWF  x03
028C6:  BRA    28CC
....................          else increment_mode = 1; 
028C8:  MOVLW  01
028CA:  MOVWF  x03
....................          last_mode = -1; 
028CC:  SETF   x06
....................          int8 timeout = 50; 
028CE:  MOVLW  32
028D0:  MOVWF  x08
....................          while (input(key1) == 0 && timeout > 0) { 
028D2:  BTFSC  F81.3
028D4:  BRA    28EA
028D6:  MOVF   x08,F
028D8:  BZ    28EA
....................             delay_ms(10); 
028DA:  MOVLW  0A
028DC:  MOVWF  xA9
028DE:  MOVLB  0
028E0:  CALL   0DA4
....................             timeout--; 
028E4:  MOVLB  3
028E6:  DECF   x08,F
028E8:  BRA    28D2
....................          } 
....................       } 
....................        
....................       if (input(key2) == 0) { 
028EA:  BTFSC  F81.2
028EC:  BRA    291C
....................          delay_ms(50); 
028EE:  MOVLW  32
028F0:  MOVWF  xA9
028F2:  MOVLB  0
028F4:  CALL   0DA4
....................          increment_mode = 1; 
028F8:  MOVLW  01
028FA:  MOVLB  3
028FC:  MOVWF  x03
....................          last_mode = -1; 
028FE:  SETF   x06
....................          int8 timeout = 50; 
02900:  MOVLW  32
02902:  MOVWF  x09
....................          while (input(key2) == 0 && timeout > 0) { 
02904:  BTFSC  F81.2
02906:  BRA    291C
02908:  MOVF   x09,F
0290A:  BZ    291C
....................             delay_ms(10); 
0290C:  MOVLW  0A
0290E:  MOVWF  xA9
02910:  MOVLB  0
02912:  CALL   0DA4
....................             timeout--; 
02916:  MOVLB  3
02918:  DECF   x09,F
0291A:  BRA    2904
....................          } 
....................       } 
....................        
....................       if (input(ENCODER_A) == 0 && input(ENCODER_B) != 0 && !encoder_blocked) { 
0291C:  BTFSC  F82.5
0291E:  BRA    2988
02920:  BSF    F92.4
02922:  BTFSS  F80.4
02924:  BRA    2988
02926:  MOVF   4D,F
02928:  BNZ   2988
....................          delay_ms(5); 
0292A:  MOVLW  05
0292C:  MOVWF  xA9
0292E:  MOVLB  0
02930:  CALL   0DA4
....................          if (delay_time <= (999 - increment_mode)) { 
02934:  MOVLW  E7
02936:  BSF    FD8.0
02938:  MOVLB  3
0293A:  SUBFWB x03,W
0293C:  MOVWF  00
0293E:  MOVLW  03
02940:  BTFSS  FD8.0
02942:  DECF   FE8,F
02944:  MOVWF  03
02946:  MOVFF  00,01
0294A:  MOVF   x00,W
0294C:  SUBWF  03,W
0294E:  BNC   2972
02950:  BNZ   2962
02952:  MOVLB  2
02954:  MOVF   xFF,W
02956:  SUBWF  01,W
02958:  BTFSC  FD8.0
0295A:  BRA    2960
0295C:  MOVLB  3
0295E:  BRA    2972
02960:  MOVLB  3
....................             delay_time += increment_mode; 
02962:  MOVF   x03,W
02964:  MOVLB  2
02966:  ADDWF  xFF,F
02968:  MOVLW  00
0296A:  MOVLB  3
0296C:  ADDWFC x00,F
....................             encoder_blocked = 0; 
0296E:  CLRF   4D
....................          } else { 
02970:  BRA    2976
....................             encoder_blocked = 1; 
02972:  MOVLW  01
02974:  MOVWF  4D
....................          } 
....................          delay_ms(40); 
02976:  MOVLW  28
02978:  MOVWF  xA9
0297A:  MOVLB  0
0297C:  CALL   0DA4
....................          while (input(ENCODER_A) == 0); 
02980:  BTFSS  F82.5
02982:  BRA    2980
....................       } 
02984:  BRA    29D8
02986:  MOVLB  3
....................       else if (input(ENCODER_B) == 0 && input(ENCODER_A) != 0 && !encoder_blocked) { 
02988:  BSF    F92.4
0298A:  BTFSC  F80.4
0298C:  BRA    29DA
0298E:  BTFSS  F82.5
02990:  BRA    29DA
02992:  MOVF   4D,F
02994:  BNZ   29DA
....................          delay_ms(5); 
02996:  MOVLW  05
02998:  MOVWF  xA9
0299A:  MOVLB  0
0299C:  CALL   0DA4
....................          if (delay_time >= increment_mode) { 
029A0:  MOVLB  3
029A2:  MOVF   x00,F
029A4:  BNZ   29B0
029A6:  MOVF   x03,W
029A8:  MOVLB  2
029AA:  SUBWF  xFF,W
029AC:  BNC   29C2
029AE:  MOVLB  3
....................             delay_time -= increment_mode; 
029B0:  MOVF   x03,W
029B2:  MOVLB  2
029B4:  SUBWF  xFF,F
029B6:  MOVLW  00
029B8:  MOVLB  3
029BA:  SUBWFB x00,F
....................             encoder_blocked = 0; 
029BC:  CLRF   4D
....................          } else { 
029BE:  BRA    29C8
029C0:  MOVLB  2
....................             encoder_blocked = 1; 
029C2:  MOVLW  01
029C4:  MOVWF  4D
029C6:  MOVLB  3
....................          } 
....................          delay_ms(40); 
029C8:  MOVLW  28
029CA:  MOVWF  xA9
029CC:  MOVLB  0
029CE:  CALL   0DA4
....................          while (input(ENCODER_B) == 0); 
029D2:  BSF    F92.4
029D4:  BTFSS  F80.4
029D6:  BRA    29D2
029D8:  MOVLB  3
....................       } 
....................       if (input(ENCODER_A) == 1 && input(ENCODER_B) == 1) { 
029DA:  BTFSS  F82.5
029DC:  BRA    29E6
029DE:  BSF    F92.4
029E0:  BTFSS  F80.4
029E2:  BRA    29E6
....................          encoder_blocked = 0; 
029E4:  CLRF   4D
....................       } 
....................  
....................       if (input(ENCODER_SW) == 0 && button_pressed_flag == 0) { 
029E6:  BTFSC  F81.6
029E8:  BRA    2BFC
029EA:  BTFSC  x07.0
029EC:  BRA    2BFC
....................          delay_ms(20); 
029EE:  MOVLW  14
029F0:  MOVWF  xA9
029F2:  MOVLB  0
029F4:  CALL   0DA4
....................          if (input(ENCODER_SW) == 0) { 
029F8:  BTFSC  F81.6
029FA:  BRA    2BF8
....................             button_pressed_flag = 1; 
029FC:  MOVLB  3
029FE:  BSF    x07.0
....................              
....................             if (delay_time != original_delay) { 
02A00:  MOVF   x01,W
02A02:  MOVLB  2
02A04:  SUBWF  xFF,W
02A06:  BNZ   2A14
02A08:  MOVLB  3
02A0A:  MOVF   x02,W
02A0C:  SUBWF  x00,W
02A0E:  BTFSC  FD8.2
02A10:  BRA    2B66
02A12:  MOVLB  2
....................                if (delay_time > 999) delay_time = 999; 
02A14:  MOVLB  3
02A16:  MOVF   x00,W
02A18:  SUBLW  02
02A1A:  BC    2A3C
02A1C:  XORLW  FF
02A1E:  BNZ   2A30
02A20:  MOVLB  2
02A22:  MOVF   xFF,W
02A24:  SUBLW  E7
02A26:  BTFSS  FD8.0
02A28:  BRA    2A2E
02A2A:  MOVLB  3
02A2C:  BRA    2A3C
02A2E:  MOVLB  3
02A30:  MOVLW  03
02A32:  MOVWF  x00
02A34:  MOVLW  E7
02A36:  MOVLB  2
02A38:  MOVWF  xFF
02A3A:  MOVLB  3
....................                if (delay_time < 0) delay_time = 0; 
....................                 
....................                write_eeprom(0x10, make8(delay_time, 0)); 
02A3C:  MOVFF  2FF,30A
02A40:  MOVF   FF2,W
02A42:  MOVWF  00
02A44:  BCF    FF2.7
02A46:  CLRF   FAA
02A48:  MOVLW  10
02A4A:  MOVWF  FA9
02A4C:  MOVFF  30A,FA8
02A50:  BCF    FA6.6
02A52:  BCF    FA6.7
02A54:  BSF    FA6.2
02A56:  MOVLB  F
02A58:  MOVLW  55
02A5A:  MOVWF  FA7
02A5C:  MOVLW  AA
02A5E:  MOVWF  FA7
02A60:  BSF    FA6.1
02A62:  BTFSC  FA6.1
02A64:  BRA    2A62
02A66:  BCF    FA6.2
02A68:  MOVF   00,W
02A6A:  IORWF  FF2,F
....................                write_eeprom(0x11, make8(delay_time, 1)); 
02A6C:  MOVFF  300,30A
02A70:  MOVFF  FF2,00
02A74:  BCF    FF2.7
02A76:  CLRF   FAA
02A78:  MOVLW  11
02A7A:  MOVWF  FA9
02A7C:  MOVFF  300,FA8
02A80:  BCF    FA6.6
02A82:  BCF    FA6.7
02A84:  BSF    FA6.2
02A86:  MOVLW  55
02A88:  MOVWF  FA7
02A8A:  MOVLW  AA
02A8C:  MOVWF  FA7
02A8E:  BSF    FA6.1
02A90:  BTFSC  FA6.1
02A92:  BRA    2A90
02A94:  BCF    FA6.2
02A96:  MOVF   00,W
02A98:  IORWF  FF2,F
....................                 
....................                lcd_cmd(LCD_CLEAR); 
02A9A:  MOVLW  01
02A9C:  MOVLB  3
02A9E:  MOVWF  xA8
02AA0:  MOVLB  0
02AA2:  CALL   0E5E
....................                lcd_goto(1, 1);    
02AA6:  MOVLW  01
02AA8:  MOVLB  3
02AAA:  MOVWF  xA5
02AAC:  MOVWF  xA6
02AAE:  MOVLB  0
02AB0:  CALL   119A
....................                printf(lcd_out, "DELAY SAVED!"); 
02AB4:  MOVLW  A4
02AB6:  MOVWF  FF6
02AB8:  MOVLW  06
02ABA:  MOVWF  FF7
02ABC:  CALL   125C
....................                lcd_goto(1, 2);  
02AC0:  MOVLW  01
02AC2:  MOVLB  3
02AC4:  MOVWF  xA5
02AC6:  MOVLW  02
02AC8:  MOVWF  xA6
02ACA:  MOVLB  0
02ACC:  CALL   119A
....................                printf(lcd_out, "   %ld sec   ", (long)delay_time); 
02AD0:  MOVLW  B2
02AD2:  MOVWF  FF6
02AD4:  MOVLW  06
02AD6:  MOVWF  FF7
02AD8:  MOVLW  03
02ADA:  MOVLB  3
02ADC:  MOVWF  xA5
02ADE:  MOVLB  0
02AE0:  CALL   18B8
02AE4:  MOVLW  10
02AE6:  MOVWF  FE9
02AE8:  MOVFF  300,3A6
02AEC:  MOVFF  2FF,3A5
02AF0:  CALL   18E0
02AF4:  MOVLW  B8
02AF6:  MOVWF  FF6
02AF8:  MOVLW  06
02AFA:  MOVWF  FF7
02AFC:  MOVLW  07
02AFE:  MOVLB  3
02B00:  MOVWF  xA5
02B02:  MOVLB  0
02B04:  CALL   18B8
....................                delay_time1 = delay_time;  
02B08:  MOVFF  300,3D
02B0C:  MOVFF  2FF,3C
....................                 
....................                while (input(ENCODER_SW) == 0) { 
02B10:  BTFSC  F81.6
02B12:  BRA    2B22
....................                   delay_ms(10); 
02B14:  MOVLW  0A
02B16:  MOVLB  3
02B18:  MOVWF  xA9
02B1A:  MOVLB  0
02B1C:  CALL   0DA4
02B20:  BRA    2B10
....................                } 
....................                // ===== CHANGED: Press ENTER to proceed ===== 
....................                lcd_goto(1, 2); 
02B22:  MOVLW  01
02B24:  MOVLB  3
02B26:  MOVWF  xA5
02B28:  MOVLW  02
02B2A:  MOVWF  xA6
02B2C:  MOVLB  0
02B2E:  CALL   119A
....................                printf(lcd_out, "Press ENTER     "); 
02B32:  MOVLW  C0
02B34:  MOVWF  FF6
02B36:  MOVLW  06
02B38:  MOVWF  FF7
02B3A:  CALL   125C
....................                while(input(ENCODER_SW) == 1); 
02B3E:  BTFSC  F81.6
02B40:  BRA    2B3E
....................                delay_ms(20); 
02B42:  MOVLW  14
02B44:  MOVLB  3
02B46:  MOVWF  xA9
02B48:  MOVLB  0
02B4A:  CALL   0DA4
....................                while(input(ENCODER_SW) == 0); 
02B4E:  BTFSS  F81.6
02B50:  BRA    2B4E
....................                delay_ms(50); 
02B52:  MOVLW  32
02B54:  MOVLB  3
02B56:  MOVWF  xA9
02B58:  MOVLB  0
02B5A:  CALL   0DA4
....................                // ===== END CHANGE ===== 
....................                advance_to_next_menu(); 
02B5E:  CALL   2244
....................             } 
02B62:  BRA    2BDC
02B64:  MOVLB  3
....................             else { 
....................                while (input(ENCODER_SW) == 0) { 
02B66:  BTFSC  F81.6
02B68:  BRA    2B78
....................                   delay_ms(10); 
02B6A:  MOVLW  0A
02B6C:  MOVWF  xA9
02B6E:  MOVLB  0
02B70:  CALL   0DA4
02B74:  MOVLB  3
02B76:  BRA    2B66
....................                } 
....................                // ===== CHANGED: No Change + Press ENTER ===== 
....................                lcd_cmd(LCD_CLEAR); 
02B78:  MOVLW  01
02B7A:  MOVWF  xA8
02B7C:  MOVLB  0
02B7E:  CALL   0E5E
....................                lcd_goto(1, 1); 
02B82:  MOVLW  01
02B84:  MOVLB  3
02B86:  MOVWF  xA5
02B88:  MOVWF  xA6
02B8A:  MOVLB  0
02B8C:  CALL   119A
....................                printf(lcd_out, "No Change"); 
02B90:  MOVLW  D2
02B92:  MOVWF  FF6
02B94:  MOVLW  06
02B96:  MOVWF  FF7
02B98:  CALL   125C
....................                lcd_goto(1, 2); 
02B9C:  MOVLW  01
02B9E:  MOVLB  3
02BA0:  MOVWF  xA5
02BA2:  MOVLW  02
02BA4:  MOVWF  xA6
02BA6:  MOVLB  0
02BA8:  CALL   119A
....................                printf(lcd_out, "Press ENTER"); 
02BAC:  MOVLW  DC
02BAE:  MOVWF  FF6
02BB0:  MOVLW  06
02BB2:  MOVWF  FF7
02BB4:  CALL   125C
....................                while(input(ENCODER_SW) == 1); 
02BB8:  BTFSC  F81.6
02BBA:  BRA    2BB8
....................                delay_ms(20); 
02BBC:  MOVLW  14
02BBE:  MOVLB  3
02BC0:  MOVWF  xA9
02BC2:  MOVLB  0
02BC4:  CALL   0DA4
....................                while(input(ENCODER_SW) == 0); 
02BC8:  BTFSS  F81.6
02BCA:  BRA    2BC8
....................                delay_ms(50); 
02BCC:  MOVLW  32
02BCE:  MOVLB  3
02BD0:  MOVWF  xA9
02BD2:  MOVLB  0
02BD4:  CALL   0DA4
....................                // ===== END CHANGE ===== 
....................                advance_to_next_menu(); 
02BD8:  CALL   2244
....................             } 
....................              
....................             lcd_cmd(LCD_CLEAR);  
02BDC:  MOVLW  01
02BDE:  MOVLB  3
02BE0:  MOVWF  xA8
02BE2:  MOVLB  0
02BE4:  CALL   0E5E
....................             delay_ms(100); 
02BE8:  MOVLW  64
02BEA:  MOVLB  3
02BEC:  MOVWF  xA9
02BEE:  MOVLB  0
02BF0:  CALL   0DA4
....................             break; 
02BF4:  BRA    2C16
....................          } 
02BF6:  BRA    2BFE
....................          else { 
....................             button_pressed_flag = 0; 
02BF8:  MOVLB  3
02BFA:  BCF    x07.0
02BFC:  MOVLB  0
....................          } 
....................       } 
....................        
....................       if (input(ENCODER_SW) != 0) { 
02BFE:  BTFSS  F81.6
02C00:  BRA    2C08
....................          button_pressed_flag = 0; 
02C02:  MOVLB  3
02C04:  BCF    x07.0
02C06:  MOVLB  0
....................       } 
....................        
....................       delay_ms(1); 
02C08:  MOVLW  01
02C0A:  MOVLB  3
02C0C:  MOVWF  xA9
02C0E:  MOVLB  0
02C10:  CALL   0DA4
02C14:  BRA    27A2
....................    } 
02C16:  GOTO   73EA (RETURN)
.................... } 
....................  
.................... void handle_star_delta_delay() { 
....................    delay_ms(50); 
*
030E8:  MOVLW  32
030EA:  MOVLB  3
030EC:  MOVWF  xA9
030EE:  MOVLB  0
030F0:  CALL   0DA4
....................    while (input(ENCODER_SW) == 0); 
030F4:  BTFSS  F81.6
030F6:  BRA    30F4
....................     
....................    sd_delay = make16(read_eeprom(0x15), read_eeprom(0x14)); 
030F8:  MOVFF  FF2,308
030FC:  BCF    FF2.7
030FE:  CLRF   FAA
03100:  MOVLW  15
03102:  MOVWF  FA9
03104:  BCF    FA6.6
03106:  BCF    FA6.7
03108:  BSF    FA6.0
0310A:  MOVF   FA8,W
0310C:  MOVLB  3
0310E:  BTFSC  x08.7
03110:  BSF    FF2.7
03112:  MOVWF  x09
03114:  MOVFF  FF2,30A
03118:  BCF    FF2.7
0311A:  CLRF   FAA
0311C:  MOVLW  14
0311E:  MOVWF  FA9
03120:  BCF    FA6.6
03122:  BCF    FA6.7
03124:  BSF    FA6.0
03126:  MOVF   FA8,W
03128:  BTFSC  x0A.7
0312A:  BSF    FF2.7
0312C:  MOVWF  x0B
0312E:  MOVFF  309,20
03132:  MOVFF  30B,1F
....................    if (sd_delay > 60) sd_delay = 60; 
03136:  MOVF   20,F
03138:  BNZ   3140
0313A:  MOVF   1F,W
0313C:  SUBLW  3C
0313E:  BC    3146
03140:  CLRF   20
03142:  MOVLW  3C
03144:  MOVWF  1F
....................    if (sd_delay < 0)  sd_delay = 0; 
....................     
....................    int16 original_delay = sd_delay; 
03146:  MOVFF  20,300
0314A:  MOVFF  1F,2FF
....................    on_delay = (int8)sd_delay; 
0314E:  MOVLB  2
03150:  CLRF   xBA
03152:  MOVFF  1F,2B9
....................    int8 increment_mode = 1; 
....................    int16 last_value = -1; 
....................    int8 last_mode = -1; 
....................    int1 button_pressed_flag = 0; 
03156:  MOVLW  01
03158:  MOVLB  3
0315A:  MOVWF  x01
0315C:  SETF   x03
0315E:  SETF   x02
03160:  SETF   x04
03162:  BCF    x05.0
....................     
....................    lcd_cmd(LCD_CLEAR);  
03164:  MOVWF  xA8
03166:  MOVLB  0
03168:  CALL   0E5E
....................    delay_ms(100); 
0316C:  MOVLW  64
0316E:  MOVLB  3
03170:  MOVWF  xA9
03172:  MOVLB  0
03174:  CALL   0DA4
....................     
....................    while (true) { 
....................       if (sd_delay > 60) sd_delay = 60; 
03178:  MOVF   20,F
0317A:  BNZ   3182
0317C:  MOVF   1F,W
0317E:  SUBLW  3C
03180:  BC    3188
03182:  CLRF   20
03184:  MOVLW  3C
03186:  MOVWF  1F
....................       if (sd_delay < 0) sd_delay = 0; 
....................        
....................       if (sd_delay != last_value || increment_mode != last_mode) { 
03188:  MOVLB  3
0318A:  MOVF   x02,W
0318C:  SUBWF  1F,W
0318E:  BNZ   319C
03190:  MOVF   x03,W
03192:  SUBWF  20,W
03194:  BNZ   319C
03196:  MOVF   x04,W
03198:  SUBWF  x01,W
0319A:  BZ    323C
....................          lcd_cmd(LCD_CLEAR); 
0319C:  MOVLW  01
0319E:  MOVWF  xA8
031A0:  MOVLB  0
031A2:  CALL   0E5E
....................          lcd_goto(1, 1);    
031A6:  MOVLW  01
031A8:  MOVLB  3
031AA:  MOVWF  xA5
031AC:  MOVWF  xA6
031AE:  MOVLB  0
031B0:  CALL   119A
....................          if (increment_mode == 1) { 
031B4:  MOVLB  3
031B6:  DECFSZ x01,W
031B8:  BRA    31CC
....................             printf(lcd_out, "5.STAR DELT NRM"); 
031BA:  MOVLW  E8
031BC:  MOVWF  FF6
031BE:  MOVLW  06
031C0:  MOVWF  FF7
031C2:  MOVLB  0
031C4:  CALL   125C
....................          } 
031C8:  BRA    31DA
031CA:  MOVLB  3
....................          else { 
....................             printf(lcd_out, "5.STAR DELT FST"); 
031CC:  MOVLW  F8
031CE:  MOVWF  FF6
031D0:  MOVLW  06
031D2:  MOVWF  FF7
031D4:  MOVLB  0
031D6:  CALL   125C
....................          } 
....................           
....................          lcd_goto(1, 2);   
031DA:  MOVLW  01
031DC:  MOVLB  3
031DE:  MOVWF  xA5
031E0:  MOVLW  02
031E2:  MOVWF  xA6
031E4:  MOVLB  0
031E6:  CALL   119A
....................          printf(lcd_out, "   %ld sec   ", (long)sd_delay); 
031EA:  MOVLW  08
031EC:  MOVWF  FF6
031EE:  MOVLW  07
031F0:  MOVWF  FF7
031F2:  MOVLW  03
031F4:  MOVLB  3
031F6:  MOVWF  xA5
031F8:  MOVLB  0
031FA:  CALL   18B8
031FE:  MOVLW  10
03200:  MOVWF  FE9
03202:  MOVFF  20,3A6
03206:  MOVFF  1F,3A5
0320A:  CALL   18E0
0320E:  MOVLW  0E
03210:  MOVWF  FF6
03212:  MOVLW  07
03214:  MOVWF  FF7
03216:  MOVLW  07
03218:  MOVLB  3
0321A:  MOVWF  xA5
0321C:  MOVLB  0
0321E:  CALL   18B8
....................           
....................          last_value = sd_delay; 
03222:  MOVFF  20,303
03226:  MOVFF  1F,302
....................          last_mode = increment_mode; 
0322A:  MOVFF  301,304
....................          delay_ms(50); 
0322E:  MOVLW  32
03230:  MOVLB  3
03232:  MOVWF  xA9
03234:  MOVLB  0
03236:  CALL   0DA4
0323A:  MOVLB  3
....................       } 
....................        
....................       if (input(key1) == 0) { 
0323C:  BTFSC  F81.3
0323E:  BRA    3276
....................          delay_ms(50); 
03240:  MOVLW  32
03242:  MOVWF  xA9
03244:  MOVLB  0
03246:  CALL   0DA4
....................          increment_mode = (increment_mode == 1) ? 10 : 1; 
0324A:  MOVLB  3
0324C:  DECFSZ x01,W
0324E:  BRA    3254
03250:  MOVLW  0A
03252:  BRA    3256
03254:  MOVLW  01
03256:  MOVWF  x01
....................          last_mode = -1; 
03258:  SETF   x04
....................          int8 timeout = 50; 
0325A:  MOVLW  32
0325C:  MOVWF  x06
....................          while (input(key1) == 0 && timeout > 0) { 
0325E:  BTFSC  F81.3
03260:  BRA    3276
03262:  MOVF   x06,F
03264:  BZ    3276
....................             delay_ms(10); 
03266:  MOVLW  0A
03268:  MOVWF  xA9
0326A:  MOVLB  0
0326C:  CALL   0DA4
....................             timeout--; 
03270:  MOVLB  3
03272:  DECF   x06,F
03274:  BRA    325E
....................          } 
....................       } 
....................        
....................       if (input(KEY2) == 0) { 
03276:  BTFSC  F81.2
03278:  BRA    32A8
....................          delay_ms(50); 
0327A:  MOVLW  32
0327C:  MOVWF  xA9
0327E:  MOVLB  0
03280:  CALL   0DA4
....................          increment_mode = 1; 
03284:  MOVLW  01
03286:  MOVLB  3
03288:  MOVWF  x01
....................          last_mode = -1; 
0328A:  SETF   x04
....................          int8 timeout = 50; 
0328C:  MOVLW  32
0328E:  MOVWF  x07
....................          while (input(key2) == 0 && timeout > 0) { 
03290:  BTFSC  F81.2
03292:  BRA    32A8
03294:  MOVF   x07,F
03296:  BZ    32A8
....................             delay_ms(10); 
03298:  MOVLW  0A
0329A:  MOVWF  xA9
0329C:  MOVLB  0
0329E:  CALL   0DA4
....................             timeout--; 
032A2:  MOVLB  3
032A4:  DECF   x07,F
032A6:  BRA    3290
....................          } 
....................       } 
....................        
....................       if (input(ENCODER_A) == 0 && input(ENCODER_B) != 0 && !encoder_blocked) { 
032A8:  BTFSC  F82.5
032AA:  BRA    32F4
032AC:  BSF    F92.4
032AE:  BTFSS  F80.4
032B0:  BRA    32F4
032B2:  MOVF   4D,F
032B4:  BNZ   32F4
....................          delay_ms(5); 
032B6:  MOVLW  05
032B8:  MOVWF  xA9
032BA:  MOVLB  0
032BC:  CALL   0DA4
....................          if (sd_delay <= (60 - increment_mode)) { 
032C0:  MOVLW  3C
032C2:  BSF    FD8.0
032C4:  MOVLB  3
032C6:  SUBFWB x01,W
032C8:  MOVF   20,F
032CA:  BNZ   32DE
032CC:  SUBWF  1F,W
032CE:  BZ    32D2
032D0:  BC    32DE
....................             sd_delay += increment_mode; 
032D2:  MOVF   x01,W
032D4:  ADDWF  1F,F
032D6:  MOVLW  00
032D8:  ADDWFC 20,F
....................             encoder_blocked = 0; 
032DA:  CLRF   4D
....................          } else { 
032DC:  BRA    32E2
....................             encoder_blocked = 1; 
032DE:  MOVLW  01
032E0:  MOVWF  4D
....................          } 
....................          delay_ms(40); 
032E2:  MOVLW  28
032E4:  MOVWF  xA9
032E6:  MOVLB  0
032E8:  CALL   0DA4
....................          while (input(ENCODER_A) == 0); 
032EC:  BTFSS  F82.5
032EE:  BRA    32EC
....................       } 
032F0:  BRA    333C
032F2:  MOVLB  3
....................       else if (input(ENCODER_B) == 0 && input(ENCODER_A) != 0 && !encoder_blocked) { 
032F4:  BSF    F92.4
032F6:  BTFSC  F80.4
032F8:  BRA    333E
032FA:  BTFSS  F82.5
032FC:  BRA    333E
032FE:  MOVF   4D,F
03300:  BNZ   333E
....................          delay_ms(5); 
03302:  MOVLW  05
03304:  MOVWF  xA9
03306:  MOVLB  0
03308:  CALL   0DA4
....................          if (sd_delay >= increment_mode) { 
0330C:  MOVF   20,F
0330E:  BNZ   331A
03310:  MOVLB  3
03312:  MOVF   x01,W
03314:  SUBWF  1F,W
03316:  BNC   3328
03318:  MOVLB  0
....................             sd_delay -= increment_mode; 
0331A:  MOVLB  3
0331C:  MOVF   x01,W
0331E:  SUBWF  1F,F
03320:  MOVLW  00
03322:  SUBWFB 20,F
....................             encoder_blocked = 0; 
03324:  CLRF   4D
....................          } else { 
03326:  BRA    332C
....................             encoder_blocked = 1; 
03328:  MOVLW  01
0332A:  MOVWF  4D
....................          } 
....................          delay_ms(40); 
0332C:  MOVLW  28
0332E:  MOVWF  xA9
03330:  MOVLB  0
03332:  CALL   0DA4
....................          while (input(ENCODER_B) == 0); 
03336:  BSF    F92.4
03338:  BTFSS  F80.4
0333A:  BRA    3336
0333C:  MOVLB  3
....................       } 
....................       if (input(ENCODER_A) == 1 && input(ENCODER_B) == 1) { 
0333E:  BTFSS  F82.5
03340:  BRA    334A
03342:  BSF    F92.4
03344:  BTFSS  F80.4
03346:  BRA    334A
....................          encoder_blocked = 0; 
03348:  CLRF   4D
....................       } 
....................        
....................       if (input(ENCODER_SW) == 0 && button_pressed_flag == 0) { 
0334A:  BTFSC  F81.6
0334C:  BRA    3540
0334E:  BTFSC  x05.0
03350:  BRA    3540
....................          delay_ms(20); 
03352:  MOVLW  14
03354:  MOVWF  xA9
03356:  MOVLB  0
03358:  CALL   0DA4
....................          if (input(ENCODER_SW) == 0) { 
0335C:  BTFSC  F81.6
0335E:  BRA    353C
....................             button_pressed_flag = 1; 
03360:  MOVLB  3
03362:  BSF    x05.0
....................              
....................             if (sd_delay != original_delay) { 
03364:  MOVLB  2
03366:  MOVF   xFF,W
03368:  SUBWF  1F,W
0336A:  BNZ   3378
0336C:  MOVLB  3
0336E:  MOVF   x00,W
03370:  SUBWF  20,W
03372:  BTFSC  FD8.2
03374:  BRA    34AA
03376:  MOVLB  2
....................                if (sd_delay > 60) sd_delay = 60; 
03378:  MOVF   20,F
0337A:  BNZ   3382
0337C:  MOVF   1F,W
0337E:  SUBLW  3C
03380:  BC    3388
03382:  CLRF   20
03384:  MOVLW  3C
03386:  MOVWF  1F
....................                if (sd_delay < 0) sd_delay = 0; 
....................                 
....................                write_eeprom(0x14, make8(sd_delay, 0)); 
03388:  MOVFF  1F,308
0338C:  MOVF   FF2,W
0338E:  MOVWF  00
03390:  BCF    FF2.7
03392:  CLRF   FAA
03394:  MOVLW  14
03396:  MOVWF  FA9
03398:  MOVFF  308,FA8
0339C:  BCF    FA6.6
0339E:  BCF    FA6.7
033A0:  BSF    FA6.2
033A2:  MOVLB  F
033A4:  MOVLW  55
033A6:  MOVWF  FA7
033A8:  MOVLW  AA
033AA:  MOVWF  FA7
033AC:  BSF    FA6.1
033AE:  BTFSC  FA6.1
033B0:  BRA    33AE
033B2:  BCF    FA6.2
033B4:  MOVF   00,W
033B6:  IORWF  FF2,F
....................                write_eeprom(0x15, make8(sd_delay, 1)); 
033B8:  MOVFF  20,308
033BC:  MOVFF  FF2,00
033C0:  BCF    FF2.7
033C2:  CLRF   FAA
033C4:  MOVLW  15
033C6:  MOVWF  FA9
033C8:  MOVFF  20,FA8
033CC:  BCF    FA6.6
033CE:  BCF    FA6.7
033D0:  BSF    FA6.2
033D2:  MOVLW  55
033D4:  MOVWF  FA7
033D6:  MOVLW  AA
033D8:  MOVWF  FA7
033DA:  BSF    FA6.1
033DC:  BTFSC  FA6.1
033DE:  BRA    33DC
033E0:  BCF    FA6.2
033E2:  MOVF   00,W
033E4:  IORWF  FF2,F
....................                 
....................                lcd_cmd(LCD_CLEAR); 
033E6:  MOVLW  01
033E8:  MOVLB  3
033EA:  MOVWF  xA8
033EC:  MOVLB  0
033EE:  CALL   0E5E
....................                lcd_goto(1, 1);    
033F2:  MOVLW  01
033F4:  MOVLB  3
033F6:  MOVWF  xA5
033F8:  MOVWF  xA6
033FA:  MOVLB  0
033FC:  CALL   119A
....................                printf(lcd_out, " DELAY SAVED! "); 
03400:  MOVLW  16
03402:  MOVWF  FF6
03404:  MOVLW  07
03406:  MOVWF  FF7
03408:  CALL   125C
....................                lcd_goto(1, 2);  
0340C:  MOVLW  01
0340E:  MOVLB  3
03410:  MOVWF  xA5
03412:  MOVLW  02
03414:  MOVWF  xA6
03416:  MOVLB  0
03418:  CALL   119A
....................                printf(lcd_out, "   %ld sec   ", (long)sd_delay); 
0341C:  MOVLW  26
0341E:  MOVWF  FF6
03420:  MOVLW  07
03422:  MOVWF  FF7
03424:  MOVLW  03
03426:  MOVLB  3
03428:  MOVWF  xA5
0342A:  MOVLB  0
0342C:  CALL   18B8
03430:  MOVLW  10
03432:  MOVWF  FE9
03434:  MOVFF  20,3A6
03438:  MOVFF  1F,3A5
0343C:  CALL   18E0
03440:  MOVLW  2C
03442:  MOVWF  FF6
03444:  MOVLW  07
03446:  MOVWF  FF7
03448:  MOVLW  07
0344A:  MOVLB  3
0344C:  MOVWF  xA5
0344E:  MOVLB  0
03450:  CALL   18B8
....................                 
....................                while (input(ENCODER_SW) == 0) { 
03454:  BTFSC  F81.6
03456:  BRA    3466
....................                   delay_ms(10); 
03458:  MOVLW  0A
0345A:  MOVLB  3
0345C:  MOVWF  xA9
0345E:  MOVLB  0
03460:  CALL   0DA4
03464:  BRA    3454
....................                } 
....................                // ===== CHANGED: Press ENTER to proceed ===== 
....................                lcd_goto(1, 2); 
03466:  MOVLW  01
03468:  MOVLB  3
0346A:  MOVWF  xA5
0346C:  MOVLW  02
0346E:  MOVWF  xA6
03470:  MOVLB  0
03472:  CALL   119A
....................                printf(lcd_out, "Press ENTER     "); 
03476:  MOVLW  34
03478:  MOVWF  FF6
0347A:  MOVLW  07
0347C:  MOVWF  FF7
0347E:  CALL   125C
....................                while(input(ENCODER_SW) == 1); 
03482:  BTFSC  F81.6
03484:  BRA    3482
....................                delay_ms(20); 
03486:  MOVLW  14
03488:  MOVLB  3
0348A:  MOVWF  xA9
0348C:  MOVLB  0
0348E:  CALL   0DA4
....................                while(input(ENCODER_SW) == 0); 
03492:  BTFSS  F81.6
03494:  BRA    3492
....................                delay_ms(50); 
03496:  MOVLW  32
03498:  MOVLB  3
0349A:  MOVWF  xA9
0349C:  MOVLB  0
0349E:  CALL   0DA4
....................                // ===== END CHANGE ===== 
....................                advance_to_next_menu(); 
034A2:  CALL   2244
....................             } 
034A6:  BRA    3520
034A8:  MOVLB  3
....................             else { 
....................                while (input(ENCODER_SW) == 0) { 
034AA:  BTFSC  F81.6
034AC:  BRA    34BC
....................                   delay_ms(10); 
034AE:  MOVLW  0A
034B0:  MOVWF  xA9
034B2:  MOVLB  0
034B4:  CALL   0DA4
034B8:  MOVLB  3
034BA:  BRA    34AA
....................                } 
....................                // ===== CHANGED: No Change + Press ENTER ===== 
....................                lcd_cmd(LCD_CLEAR); 
034BC:  MOVLW  01
034BE:  MOVWF  xA8
034C0:  MOVLB  0
034C2:  CALL   0E5E
....................                lcd_goto(1, 1); 
034C6:  MOVLW  01
034C8:  MOVLB  3
034CA:  MOVWF  xA5
034CC:  MOVWF  xA6
034CE:  MOVLB  0
034D0:  CALL   119A
....................                printf(lcd_out, "No Change"); 
034D4:  MOVLW  46
034D6:  MOVWF  FF6
034D8:  MOVLW  07
034DA:  MOVWF  FF7
034DC:  CALL   125C
....................                lcd_goto(1, 2); 
034E0:  MOVLW  01
034E2:  MOVLB  3
034E4:  MOVWF  xA5
034E6:  MOVLW  02
034E8:  MOVWF  xA6
034EA:  MOVLB  0
034EC:  CALL   119A
....................                printf(lcd_out, "Press ENTER"); 
034F0:  MOVLW  50
034F2:  MOVWF  FF6
034F4:  MOVLW  07
034F6:  MOVWF  FF7
034F8:  CALL   125C
....................                while(input(ENCODER_SW) == 1); 
034FC:  BTFSC  F81.6
034FE:  BRA    34FC
....................                delay_ms(20); 
03500:  MOVLW  14
03502:  MOVLB  3
03504:  MOVWF  xA9
03506:  MOVLB  0
03508:  CALL   0DA4
....................                while(input(ENCODER_SW) == 0); 
0350C:  BTFSS  F81.6
0350E:  BRA    350C
....................                delay_ms(50); 
03510:  MOVLW  32
03512:  MOVLB  3
03514:  MOVWF  xA9
03516:  MOVLB  0
03518:  CALL   0DA4
....................                // ===== END CHANGE ===== 
....................                advance_to_next_menu(); 
0351C:  CALL   2244
....................             } 
....................              
....................             lcd_cmd(LCD_CLEAR);    
03520:  MOVLW  01
03522:  MOVLB  3
03524:  MOVWF  xA8
03526:  MOVLB  0
03528:  CALL   0E5E
....................             delay_ms(100); 
0352C:  MOVLW  64
0352E:  MOVLB  3
03530:  MOVWF  xA9
03532:  MOVLB  0
03534:  CALL   0DA4
....................             break; 
03538:  BRA    355A
....................          } 
0353A:  BRA    3542
....................          else { 
....................             button_pressed_flag = 0; 
0353C:  MOVLB  3
0353E:  BCF    x05.0
03540:  MOVLB  0
....................          } 
....................       } 
....................        
....................       if (input(ENCODER_SW) != 0) { 
03542:  BTFSS  F81.6
03544:  BRA    354C
....................          button_pressed_flag = 0; 
03546:  MOVLB  3
03548:  BCF    x05.0
0354A:  MOVLB  0
....................       } 
....................        
....................       delay_ms(1); 
0354C:  MOVLW  01
0354E:  MOVLB  3
03550:  MOVWF  xA9
03552:  MOVLB  0
03554:  CALL   0DA4
03558:  BRA    3178
....................    } 
0355A:  GOTO   7402 (RETURN)
.................... } 
....................  
.................... void handle_voltage_setting(void) { 
....................    while (input(ENCODER_SW) == 0); 
*
038C6:  BTFSS  F81.6
038C8:  BRA    38C6
....................    delay_ms(50); 
038CA:  MOVLW  32
038CC:  MOVLB  3
038CE:  MOVWF  xA9
038D0:  MOVLB  0
038D2:  CALL   0DA4
....................  
....................    // Sub menu options 
....................    char* volt_submenu[] = { 
....................       "> LOW VOLT      ", 
....................       "> HIGH VOLT     ", 
....................       "> OVERLOAD      ", 
....................       "> EXIT->NEXT    " 
....................    }; 
038D6:  MOVLW  3E
038D8:  MOVLB  3
038DA:  MOVWF  x07
038DC:  MOVLW  20
038DE:  MOVWF  x08
038E0:  MOVLW  4C
038E2:  MOVWF  x09
038E4:  MOVLW  4F
038E6:  MOVWF  x0A
038E8:  MOVLW  57
038EA:  MOVWF  x0B
038EC:  MOVLW  20
038EE:  MOVWF  x0C
038F0:  MOVLW  56
038F2:  MOVWF  x0D
038F4:  MOVLW  4F
038F6:  MOVWF  x0E
038F8:  MOVLW  4C
038FA:  MOVWF  x0F
038FC:  MOVLW  54
038FE:  MOVWF  x10
03900:  MOVLW  20
03902:  MOVWF  x11
03904:  MOVWF  x12
03906:  MOVWF  x13
03908:  MOVWF  x14
0390A:  MOVWF  x15
0390C:  MOVWF  x16
0390E:  CLRF   x17
03910:  MOVLW  3E
03912:  MOVWF  x18
03914:  MOVLW  20
03916:  MOVWF  x19
03918:  MOVLW  48
0391A:  MOVWF  x1A
0391C:  MOVLW  49
0391E:  MOVWF  x1B
03920:  MOVLW  47
03922:  MOVWF  x1C
03924:  MOVLW  48
03926:  MOVWF  x1D
03928:  MOVLW  20
0392A:  MOVWF  x1E
0392C:  MOVLW  56
0392E:  MOVWF  x1F
03930:  MOVLW  4F
03932:  MOVWF  x20
03934:  MOVLW  4C
03936:  MOVWF  x21
03938:  MOVLW  54
0393A:  MOVWF  x22
0393C:  MOVLW  20
0393E:  MOVWF  x23
03940:  MOVWF  x24
03942:  MOVWF  x25
03944:  MOVWF  x26
03946:  MOVWF  x27
03948:  CLRF   x28
0394A:  MOVLW  3E
0394C:  MOVWF  x29
0394E:  MOVLW  20
03950:  MOVWF  x2A
03952:  MOVLW  4F
03954:  MOVWF  x2B
03956:  MOVLW  56
03958:  MOVWF  x2C
0395A:  MOVLW  45
0395C:  MOVWF  x2D
0395E:  MOVLW  52
03960:  MOVWF  x2E
03962:  MOVLW  4C
03964:  MOVWF  x2F
03966:  MOVLW  4F
03968:  MOVWF  x30
0396A:  MOVLW  41
0396C:  MOVWF  x31
0396E:  MOVLW  44
03970:  MOVWF  x32
03972:  MOVLW  20
03974:  MOVWF  x33
03976:  MOVWF  x34
03978:  MOVWF  x35
0397A:  MOVWF  x36
0397C:  MOVWF  x37
0397E:  MOVWF  x38
03980:  CLRF   x39
03982:  MOVLW  3E
03984:  MOVWF  x3A
03986:  MOVLW  20
03988:  MOVWF  x3B
0398A:  MOVLW  45
0398C:  MOVWF  x3C
0398E:  MOVLW  58
03990:  MOVWF  x3D
03992:  MOVLW  49
03994:  MOVWF  x3E
03996:  MOVLW  54
03998:  MOVWF  x3F
0399A:  MOVLW  2D
0399C:  MOVWF  x40
0399E:  MOVLW  3E
039A0:  MOVWF  x41
039A2:  MOVLW  4E
039A4:  MOVWF  x42
039A6:  MOVLW  45
039A8:  MOVWF  x43
039AA:  MOVLW  58
039AC:  MOVWF  x44
039AE:  MOVLW  54
039B0:  MOVWF  x45
039B2:  MOVLW  20
039B4:  MOVWF  x46
039B6:  MOVWF  x47
039B8:  MOVWF  x48
039BA:  MOVWF  x49
039BC:  CLRF   x4A
039BE:  MOVLW  03
039C0:  MOVWF  x00
039C2:  MOVLW  07
039C4:  MOVLB  2
039C6:  MOVWF  xFF
039C8:  MOVLW  03
039CA:  MOVLB  3
039CC:  MOVWF  x02
039CE:  MOVLW  18
039D0:  MOVWF  x01
039D2:  MOVLW  03
039D4:  MOVWF  x04
039D6:  MOVLW  29
039D8:  MOVWF  x03
039DA:  MOVLW  03
039DC:  MOVWF  x06
039DE:  MOVLW  3A
039E0:  MOVWF  x05
....................    int8 total_options = 4; 
....................    int8 sub_sel = 0; 
....................    int8 last_sub_sel = 255; 
039E2:  MOVLW  04
039E4:  MOVWF  x4B
039E6:  CLRF   x4C
039E8:  SETF   x4D
....................  
....................    while(1) { 
....................  
....................       // -- Sub Menu Display -- 
....................       if(sub_sel != last_sub_sel) { 
039EA:  MOVF   x4D,W
039EC:  SUBWF  x4C,W
039EE:  BZ    3A54
....................          lcd_cmd(LCD_CLEAR); 
039F0:  MOVLW  01
039F2:  MOVWF  xA8
039F4:  MOVLB  0
039F6:  CALL   0E5E
....................          lcd_goto(1, 1); 
039FA:  MOVLW  01
039FC:  MOVLB  3
039FE:  MOVWF  xA5
03A00:  MOVWF  xA6
03A02:  MOVLB  0
03A04:  CALL   119A
....................          printf(lcd_out, "6.VOLT SETTING  "); 
03A08:  MOVLW  5C
03A0A:  MOVWF  FF6
03A0C:  MOVLW  07
03A0E:  MOVWF  FF7
03A10:  CALL   125C
....................          lcd_goto(1, 2); 
03A14:  MOVLW  01
03A16:  MOVLB  3
03A18:  MOVWF  xA5
03A1A:  MOVLW  02
03A1C:  MOVWF  xA6
03A1E:  MOVLB  0
03A20:  CALL   119A
....................          printf(lcd_out, "%s", volt_submenu[sub_sel]); 
03A24:  BCF    FD8.0
03A26:  MOVLB  3
03A28:  RLCF   x4C,W
03A2A:  CLRF   03
03A2C:  ADDLW  FF
03A2E:  MOVWF  FE9
03A30:  MOVLW  02
03A32:  ADDWFC 03,W
03A34:  MOVWF  FEA
03A36:  MOVFF  FEC,397
03A3A:  MOVF   FED,F
03A3C:  MOVFF  FEF,396
03A40:  MOVFF  397,FEA
03A44:  MOVFF  396,FE9
03A48:  MOVLB  0
03A4A:  CALL   20B4
....................          last_sub_sel = sub_sel; 
03A4E:  MOVFF  34C,34D
03A52:  MOVLB  3
....................       } 
....................  
....................       // -- Encoder Rotate -- 
....................       if(input(ENCODER_A) == 0 && input(ENCODER_B) != 0) { 
03A54:  BTFSC  F82.5
03A56:  BRA    3A86
03A58:  BSF    F92.4
03A5A:  BTFSS  F80.4
03A5C:  BRA    3A86
....................          delay_ms(5); 
03A5E:  MOVLW  05
03A60:  MOVWF  xA9
03A62:  MOVLB  0
03A64:  CALL   0DA4
....................          sub_sel++; 
03A68:  MOVLB  3
03A6A:  INCF   x4C,F
....................          if(sub_sel >= total_options) sub_sel = 0; 
03A6C:  MOVF   x4B,W
03A6E:  SUBWF  x4C,W
03A70:  BNC   3A74
03A72:  CLRF   x4C
....................          while(input(ENCODER_A) == 0); 
03A74:  BTFSS  F82.5
03A76:  BRA    3A74
....................          delay_ms(20); 
03A78:  MOVLW  14
03A7A:  MOVWF  xA9
03A7C:  MOVLB  0
03A7E:  CALL   0DA4
....................       } 
03A82:  BRA    3ABA
03A84:  MOVLB  3
....................       else if(input(ENCODER_B) == 0 && input(ENCODER_A) != 0) { 
03A86:  BSF    F92.4
03A88:  BTFSC  F80.4
03A8A:  BRA    3ABC
03A8C:  BTFSS  F82.5
03A8E:  BRA    3ABC
....................          delay_ms(5); 
03A90:  MOVLW  05
03A92:  MOVWF  xA9
03A94:  MOVLB  0
03A96:  CALL   0DA4
....................          if(sub_sel == 0) sub_sel = total_options - 1; 
03A9A:  MOVLB  3
03A9C:  MOVF   x4C,F
03A9E:  BNZ   3AA8
03AA0:  MOVLW  01
03AA2:  SUBWF  x4B,W
03AA4:  MOVWF  x4C
03AA6:  BRA    3AAA
....................          else sub_sel--; 
03AA8:  DECF   x4C,F
....................          while(input(ENCODER_B) == 0); 
03AAA:  BSF    F92.4
03AAC:  BTFSS  F80.4
03AAE:  BRA    3AAA
....................          delay_ms(20); 
03AB0:  MOVLW  14
03AB2:  MOVWF  xA9
03AB4:  MOVLB  0
03AB6:  CALL   0DA4
03ABA:  MOVLB  3
....................       } 
....................  
....................       // -- SW Press ? Enter selected option -- 
....................       if(input(ENCODER_SW) == 0) { 
03ABC:  BTFSC  F81.6
03ABE:  GOTO   4748
....................          delay_ms(20); 
03AC2:  MOVLW  14
03AC4:  MOVWF  xA9
03AC6:  MOVLB  0
03AC8:  CALL   0DA4
....................          if(input(ENCODER_SW) == 0) { 
03ACC:  BTFSC  F81.6
03ACE:  GOTO   4746
....................             while(input(ENCODER_SW) == 0); 
03AD2:  BTFSS  F81.6
03AD4:  BRA    3AD2
....................             delay_ms(50); 
03AD6:  MOVLW  32
03AD8:  MOVLB  3
03ADA:  MOVWF  xA9
03ADC:  MOVLB  0
03ADE:  CALL   0DA4
....................  
....................             // -------------------------------- 
....................             // OPTION 0  LOW VOLT 
....................             // -------------------------------- 
....................             if(sub_sel == 0) { 
03AE2:  MOVLB  3
03AE4:  MOVF   x4C,F
03AE6:  BTFSS  FD8.2
03AE8:  BRA    3EDE
....................  
....................                char lbl_lv_r[] = "LV R:"; 
03AEA:  MOVLW  4C
03AEC:  MOVWF  x4E
03AEE:  MOVLW  56
03AF0:  MOVWF  x4F
03AF2:  MOVLW  20
03AF4:  MOVWF  x50
03AF6:  MOVLW  52
03AF8:  MOVWF  x51
03AFA:  MOVLW  3A
03AFC:  MOVWF  x52
03AFE:  CLRF   x53
....................                char lbl_lv_y[] = "LV Y:"; 
03B00:  MOVLW  4C
03B02:  MOVWF  x54
03B04:  MOVLW  56
03B06:  MOVWF  x55
03B08:  MOVLW  20
03B0A:  MOVWF  x56
03B0C:  MOVLW  59
03B0E:  MOVWF  x57
03B10:  MOVLW  3A
03B12:  MOVWF  x58
03B14:  CLRF   x59
....................                char lbl_lv_b[] = "LV B:"; 
03B16:  MOVLW  4C
03B18:  MOVWF  x5A
03B1A:  MOVLW  56
03B1C:  MOVWF  x5B
03B1E:  MOVLW  20
03B20:  MOVWF  x5C
03B22:  MOVLW  42
03B24:  MOVWF  x5D
03B26:  MOVLW  3A
03B28:  MOVWF  x5E
03B2A:  CLRF   x5F
03B2C:  MOVFF  FF2,396
03B30:  BCF    FF2.7
....................  
....................                int16 lv_r = make16(read_eeprom(0x05), read_eeprom(0x04)); 
....................                int16 lv_y = make16(read_eeprom(0x09), read_eeprom(0x08)); 
....................                int16 lv_b = make16(read_eeprom(0x47), read_eeprom(0x46)); 
03B32:  CLRF   FAA
03B34:  MOVLW  05
03B36:  MOVWF  FA9
03B38:  BCF    FA6.6
03B3A:  BCF    FA6.7
03B3C:  BSF    FA6.0
03B3E:  MOVF   FA8,W
03B40:  BTFSC  x96.7
03B42:  BSF    FF2.7
03B44:  MOVWF  x97
03B46:  MOVFF  FF2,398
03B4A:  BCF    FF2.7
03B4C:  CLRF   FAA
03B4E:  MOVLW  04
03B50:  MOVWF  FA9
03B52:  BCF    FA6.6
03B54:  BCF    FA6.7
03B56:  BSF    FA6.0
03B58:  MOVF   FA8,W
03B5A:  BTFSC  x98.7
03B5C:  BSF    FF2.7
03B5E:  MOVWF  x99
03B60:  MOVFF  397,361
03B64:  MOVFF  399,360
03B68:  MOVFF  FF2,39A
03B6C:  BCF    FF2.7
03B6E:  CLRF   FAA
03B70:  MOVLW  09
03B72:  MOVWF  FA9
03B74:  BCF    FA6.6
03B76:  BCF    FA6.7
03B78:  BSF    FA6.0
03B7A:  MOVF   FA8,W
03B7C:  BTFSC  x9A.7
03B7E:  BSF    FF2.7
03B80:  MOVWF  x9B
03B82:  MOVFF  FF2,39C
03B86:  BCF    FF2.7
03B88:  CLRF   FAA
03B8A:  MOVLW  08
03B8C:  MOVWF  FA9
03B8E:  BCF    FA6.6
03B90:  BCF    FA6.7
03B92:  BSF    FA6.0
03B94:  MOVF   FA8,W
03B96:  BTFSC  x9C.7
03B98:  BSF    FF2.7
03B9A:  MOVWF  x9D
03B9C:  MOVFF  39B,363
03BA0:  MOVFF  39D,362
03BA4:  MOVFF  FF2,39E
03BA8:  BCF    FF2.7
03BAA:  CLRF   FAA
03BAC:  MOVLW  47
03BAE:  MOVWF  FA9
03BB0:  BCF    FA6.6
03BB2:  BCF    FA6.7
03BB4:  BSF    FA6.0
03BB6:  MOVF   FA8,W
03BB8:  BTFSC  x9E.7
03BBA:  BSF    FF2.7
03BBC:  MOVWF  x9F
03BBE:  MOVFF  FF2,3A0
03BC2:  BCF    FF2.7
03BC4:  CLRF   FAA
03BC6:  MOVLW  46
03BC8:  MOVWF  FA9
03BCA:  BCF    FA6.6
03BCC:  BCF    FA6.7
03BCE:  BSF    FA6.0
03BD0:  MOVF   FA8,W
03BD2:  BTFSC  xA0.7
03BD4:  BSF    FF2.7
03BD6:  MOVWF  xA1
03BD8:  MOVFF  39F,365
03BDC:  MOVFF  3A1,364
....................  
....................                if(lv_r > 400 || lv_r < 100) lv_r = 200; 
03BE0:  MOVF   x61,W
03BE2:  SUBLW  00
03BE4:  BC    3BF0
03BE6:  XORLW  FF
03BE8:  BNZ   3BFA
03BEA:  MOVF   x60,W
03BEC:  SUBLW  90
03BEE:  BNC   3BFA
03BF0:  MOVF   x61,F
03BF2:  BNZ   3C00
03BF4:  MOVF   x60,W
03BF6:  SUBLW  63
03BF8:  BNC   3C00
03BFA:  CLRF   x61
03BFC:  MOVLW  C8
03BFE:  MOVWF  x60
....................                if(lv_y > 400 || lv_y < 100) lv_y = 200; 
03C00:  MOVF   x63,W
03C02:  SUBLW  00
03C04:  BC    3C10
03C06:  XORLW  FF
03C08:  BNZ   3C1A
03C0A:  MOVF   x62,W
03C0C:  SUBLW  90
03C0E:  BNC   3C1A
03C10:  MOVF   x63,F
03C12:  BNZ   3C20
03C14:  MOVF   x62,W
03C16:  SUBLW  63
03C18:  BNC   3C20
03C1A:  CLRF   x63
03C1C:  MOVLW  C8
03C1E:  MOVWF  x62
....................                if(lv_b > 400 || lv_b < 100) lv_b = 200; 
03C20:  MOVF   x65,W
03C22:  SUBLW  00
03C24:  BC    3C30
03C26:  XORLW  FF
03C28:  BNZ   3C3A
03C2A:  MOVF   x64,W
03C2C:  SUBLW  90
03C2E:  BNC   3C3A
03C30:  MOVF   x65,F
03C32:  BNZ   3C40
03C34:  MOVF   x64,W
03C36:  SUBLW  63
03C38:  BNC   3C40
03C3A:  CLRF   x65
03C3C:  MOVLW  C8
03C3E:  MOVWF  x64
....................  
....................                lcd_cmd(LCD_CLEAR); 
03C40:  MOVLW  01
03C42:  MOVWF  xA8
03C44:  MOVLB  0
03C46:  CALL   0E5E
....................                lcd_goto(1, 1); 
03C4A:  MOVLW  01
03C4C:  MOVLB  3
03C4E:  MOVWF  xA5
03C50:  MOVWF  xA6
03C52:  MOVLB  0
03C54:  CALL   119A
....................                printf(lcd_out, "LOW VOLT SET    "); 
03C58:  MOVLW  6E
03C5A:  MOVWF  FF6
03C5C:  MOVLW  07
03C5E:  MOVWF  FF7
03C60:  CALL   125C
....................                delay_ms(800); 
03C64:  MOVLW  04
03C66:  MOVLB  3
03C68:  MOVWF  x96
03C6A:  MOVLW  C8
03C6C:  MOVWF  xA9
03C6E:  MOVLB  0
03C70:  CALL   0DA4
03C74:  MOVLB  3
03C76:  DECFSZ x96,F
03C78:  BRA    3C6A
....................  
....................                lv_r = handle_parameter_input(lbl_lv_r, lv_r, 100, 400); 
03C7A:  MOVLW  03
03C7C:  MOVWF  x98
03C7E:  MOVLW  4E
03C80:  MOVWF  x97
03C82:  MOVFF  361,39A
03C86:  MOVFF  360,399
03C8A:  CLRF   x9C
03C8C:  MOVLW  64
03C8E:  MOVWF  x9B
03C90:  MOVLW  01
03C92:  MOVWF  x9E
03C94:  MOVLW  90
03C96:  MOVWF  x9D
03C98:  MOVLB  0
03C9A:  RCALL  355E
03C9C:  MOVFF  02,361
03CA0:  MOVFF  01,360
....................                lv_y = handle_parameter_input(lbl_lv_y, lv_y, 100, 400); 
03CA4:  MOVLW  03
03CA6:  MOVLB  3
03CA8:  MOVWF  x98
03CAA:  MOVLW  54
03CAC:  MOVWF  x97
03CAE:  MOVFF  363,39A
03CB2:  MOVFF  362,399
03CB6:  CLRF   x9C
03CB8:  MOVLW  64
03CBA:  MOVWF  x9B
03CBC:  MOVLW  01
03CBE:  MOVWF  x9E
03CC0:  MOVLW  90
03CC2:  MOVWF  x9D
03CC4:  MOVLB  0
03CC6:  RCALL  355E
03CC8:  MOVFF  02,363
03CCC:  MOVFF  01,362
....................                lv_b = handle_parameter_input(lbl_lv_b, lv_b, 100, 400); 
03CD0:  MOVLW  03
03CD2:  MOVLB  3
03CD4:  MOVWF  x98
03CD6:  MOVLW  5A
03CD8:  MOVWF  x97
03CDA:  MOVFF  365,39A
03CDE:  MOVFF  364,399
03CE2:  CLRF   x9C
03CE4:  MOVLW  64
03CE6:  MOVWF  x9B
03CE8:  MOVLW  01
03CEA:  MOVWF  x9E
03CEC:  MOVLW  90
03CEE:  MOVWF  x9D
03CF0:  MOVLB  0
03CF2:  RCALL  355E
03CF4:  MOVFF  02,365
03CF8:  MOVFF  01,364
....................  
....................                write_eeprom(0x04, make8(lv_r, 0)); 
03CFC:  MOVFF  360,396
03D00:  MOVF   FF2,W
03D02:  MOVWF  00
03D04:  BCF    FF2.7
03D06:  CLRF   FAA
03D08:  MOVLW  04
03D0A:  MOVWF  FA9
03D0C:  MOVFF  396,FA8
03D10:  BCF    FA6.6
03D12:  BCF    FA6.7
03D14:  BSF    FA6.2
03D16:  MOVLB  F
03D18:  MOVLW  55
03D1A:  MOVWF  FA7
03D1C:  MOVLW  AA
03D1E:  MOVWF  FA7
03D20:  BSF    FA6.1
03D22:  BTFSC  FA6.1
03D24:  BRA    3D22
03D26:  BCF    FA6.2
03D28:  MOVF   00,W
03D2A:  IORWF  FF2,F
....................                write_eeprom(0x05, make8(lv_r, 1)); 
03D2C:  MOVFF  361,396
03D30:  MOVFF  FF2,00
03D34:  BCF    FF2.7
03D36:  CLRF   FAA
03D38:  MOVLW  05
03D3A:  MOVWF  FA9
03D3C:  MOVFF  361,FA8
03D40:  BCF    FA6.6
03D42:  BCF    FA6.7
03D44:  BSF    FA6.2
03D46:  MOVLW  55
03D48:  MOVWF  FA7
03D4A:  MOVLW  AA
03D4C:  MOVWF  FA7
03D4E:  BSF    FA6.1
03D50:  BTFSC  FA6.1
03D52:  BRA    3D50
03D54:  BCF    FA6.2
03D56:  MOVF   00,W
03D58:  IORWF  FF2,F
....................                write_eeprom(0x08, make8(lv_y, 0)); 
03D5A:  MOVFF  362,396
03D5E:  MOVFF  FF2,00
03D62:  BCF    FF2.7
03D64:  CLRF   FAA
03D66:  MOVLW  08
03D68:  MOVWF  FA9
03D6A:  MOVFF  362,FA8
03D6E:  BCF    FA6.6
03D70:  BCF    FA6.7
03D72:  BSF    FA6.2
03D74:  MOVLW  55
03D76:  MOVWF  FA7
03D78:  MOVLW  AA
03D7A:  MOVWF  FA7
03D7C:  BSF    FA6.1
03D7E:  BTFSC  FA6.1
03D80:  BRA    3D7E
03D82:  BCF    FA6.2
03D84:  MOVF   00,W
03D86:  IORWF  FF2,F
....................                write_eeprom(0x09, make8(lv_y, 1)); 
03D88:  MOVFF  363,396
03D8C:  MOVFF  FF2,00
03D90:  BCF    FF2.7
03D92:  CLRF   FAA
03D94:  MOVLW  09
03D96:  MOVWF  FA9
03D98:  MOVFF  363,FA8
03D9C:  BCF    FA6.6
03D9E:  BCF    FA6.7
03DA0:  BSF    FA6.2
03DA2:  MOVLW  55
03DA4:  MOVWF  FA7
03DA6:  MOVLW  AA
03DA8:  MOVWF  FA7
03DAA:  BSF    FA6.1
03DAC:  BTFSC  FA6.1
03DAE:  BRA    3DAC
03DB0:  BCF    FA6.2
03DB2:  MOVF   00,W
03DB4:  IORWF  FF2,F
....................                write_eeprom(0x46, make8(lv_b, 0)); 
03DB6:  MOVFF  364,396
03DBA:  MOVFF  FF2,00
03DBE:  BCF    FF2.7
03DC0:  CLRF   FAA
03DC2:  MOVLW  46
03DC4:  MOVWF  FA9
03DC6:  MOVFF  364,FA8
03DCA:  BCF    FA6.6
03DCC:  BCF    FA6.7
03DCE:  BSF    FA6.2
03DD0:  MOVLW  55
03DD2:  MOVWF  FA7
03DD4:  MOVLW  AA
03DD6:  MOVWF  FA7
03DD8:  BSF    FA6.1
03DDA:  BTFSC  FA6.1
03DDC:  BRA    3DDA
03DDE:  BCF    FA6.2
03DE0:  MOVF   00,W
03DE2:  IORWF  FF2,F
....................                write_eeprom(0x47, make8(lv_b, 1)); 
03DE4:  MOVFF  365,396
03DE8:  MOVFF  FF2,00
03DEC:  BCF    FF2.7
03DEE:  CLRF   FAA
03DF0:  MOVLW  47
03DF2:  MOVWF  FA9
03DF4:  MOVFF  365,FA8
03DF8:  BCF    FA6.6
03DFA:  BCF    FA6.7
03DFC:  BSF    FA6.2
03DFE:  MOVLW  55
03E00:  MOVWF  FA7
03E02:  MOVLW  AA
03E04:  MOVWF  FA7
03E06:  BSF    FA6.1
03E08:  BTFSC  FA6.1
03E0A:  BRA    3E08
03E0C:  BCF    FA6.2
03E0E:  MOVF   00,W
03E10:  IORWF  FF2,F
....................  
....................                // Update global variables 
....................                l_voltr = lv_r; 
03E12:  MOVFF  361,2AD
03E16:  MOVFF  360,2AC
....................                l_volty = lv_y; 
03E1A:  MOVFF  363,2AF
03E1E:  MOVFF  362,2AE
....................                l_voltb = lv_b; 
03E22:  MOVFF  365,2B1
03E26:  MOVFF  364,2B0
....................  
....................                lcd_cmd(LCD_CLEAR); 
03E2A:  MOVLW  01
03E2C:  MOVLB  3
03E2E:  MOVWF  xA8
03E30:  MOVLB  0
03E32:  CALL   0E5E
....................                lcd_goto(1, 1); 
03E36:  MOVLW  01
03E38:  MOVLB  3
03E3A:  MOVWF  xA5
03E3C:  MOVWF  xA6
03E3E:  MOVLB  0
03E40:  CALL   119A
....................                printf(lcd_out, "LV SAVED        "); 
03E44:  MOVLW  80
03E46:  MOVWF  FF6
03E48:  MOVLW  07
03E4A:  MOVWF  FF7
03E4C:  CALL   125C
....................                lcd_goto(1, 2); 
03E50:  MOVLW  01
03E52:  MOVLB  3
03E54:  MOVWF  xA5
03E56:  MOVLW  02
03E58:  MOVWF  xA6
03E5A:  MOVLB  0
03E5C:  CALL   119A
....................                printf(lcd_out, "%lu:%lu:%lu      ", (long)lv_r, (long)lv_y, (long)lv_b); 
03E60:  MOVLW  10
03E62:  MOVWF  FE9
03E64:  MOVFF  361,398
03E68:  MOVFF  360,397
03E6C:  RCALL  37FE
03E6E:  MOVLW  3A
03E70:  MOVLB  3
03E72:  MOVWF  xAE
03E74:  MOVLB  0
03E76:  CALL   122E
03E7A:  MOVLW  10
03E7C:  MOVWF  FE9
03E7E:  MOVFF  363,398
03E82:  MOVFF  362,397
03E86:  RCALL  37FE
03E88:  MOVLW  3A
03E8A:  MOVLB  3
03E8C:  MOVWF  xAE
03E8E:  MOVLB  0
03E90:  CALL   122E
03E94:  MOVLW  10
03E96:  MOVWF  FE9
03E98:  MOVFF  365,398
03E9C:  MOVFF  364,397
03EA0:  RCALL  37FE
03EA2:  MOVLW  9D
03EA4:  MOVWF  FF6
03EA6:  MOVLW  07
03EA8:  MOVWF  FF7
03EAA:  MOVLW  06
03EAC:  MOVLB  3
03EAE:  MOVWF  xA5
03EB0:  MOVLB  0
03EB2:  CALL   18B8
....................  
....................                // Wait for user to press SW ? back to sub menu 
....................                while(input(ENCODER_SW) == 1); 
03EB6:  BTFSC  F81.6
03EB8:  BRA    3EB6
....................                delay_ms(20); 
03EBA:  MOVLW  14
03EBC:  MOVLB  3
03EBE:  MOVWF  xA9
03EC0:  MOVLB  0
03EC2:  CALL   0DA4
....................                while(input(ENCODER_SW) == 0); 
03EC6:  BTFSS  F81.6
03EC8:  BRA    3EC6
....................                delay_ms(50); 
03ECA:  MOVLW  32
03ECC:  MOVLB  3
03ECE:  MOVWF  xA9
03ED0:  MOVLB  0
03ED2:  CALL   0DA4
....................  
....................                last_sub_sel = 255; // force redraw sub menu 
03ED6:  MOVLB  3
03ED8:  SETF   x4D
....................             } 
03EDA:  GOTO   4748
....................  
....................             // -------------------------------- 
....................             // OPTION 1  HIGH VOLT 
....................             // -------------------------------- 
....................             else if(sub_sel == 1) { 
03EDE:  DECFSZ x4C,W
03EE0:  BRA    42E6
....................  
....................                char lbl_hv_r[] = "HV R:"; 
03EE2:  MOVLW  48
03EE4:  MOVWF  x66
03EE6:  MOVLW  56
03EE8:  MOVWF  x67
03EEA:  MOVLW  20
03EEC:  MOVWF  x68
03EEE:  MOVLW  52
03EF0:  MOVWF  x69
03EF2:  MOVLW  3A
03EF4:  MOVWF  x6A
03EF6:  CLRF   x6B
....................                char lbl_hv_y[] = "HV Y:"; 
03EF8:  MOVLW  48
03EFA:  MOVWF  x6C
03EFC:  MOVLW  56
03EFE:  MOVWF  x6D
03F00:  MOVLW  20
03F02:  MOVWF  x6E
03F04:  MOVLW  59
03F06:  MOVWF  x6F
03F08:  MOVLW  3A
03F0A:  MOVWF  x70
03F0C:  CLRF   x71
....................                char lbl_hv_b[] = "HV B:"; 
03F0E:  MOVLW  48
03F10:  MOVWF  x72
03F12:  MOVLW  56
03F14:  MOVWF  x73
03F16:  MOVLW  20
03F18:  MOVWF  x74
03F1A:  MOVLW  42
03F1C:  MOVWF  x75
03F1E:  MOVLW  3A
03F20:  MOVWF  x76
03F22:  CLRF   x77
03F24:  MOVFF  FF2,396
03F28:  BCF    FF2.7
....................  
....................                int16 hv_r = make16(read_eeprom(0x0B), read_eeprom(0x0A)); 
....................                int16 hv_y = make16(read_eeprom(0x0D), read_eeprom(0x0C)); 
....................                int16 hv_b = make16(read_eeprom(0x0F), read_eeprom(0x0E)); 
03F2A:  CLRF   FAA
03F2C:  MOVLW  0B
03F2E:  MOVWF  FA9
03F30:  BCF    FA6.6
03F32:  BCF    FA6.7
03F34:  BSF    FA6.0
03F36:  MOVF   FA8,W
03F38:  BTFSC  x96.7
03F3A:  BSF    FF2.7
03F3C:  MOVWF  x97
03F3E:  MOVFF  FF2,398
03F42:  BCF    FF2.7
03F44:  CLRF   FAA
03F46:  MOVLW  0A
03F48:  MOVWF  FA9
03F4A:  BCF    FA6.6
03F4C:  BCF    FA6.7
03F4E:  BSF    FA6.0
03F50:  MOVF   FA8,W
03F52:  BTFSC  x98.7
03F54:  BSF    FF2.7
03F56:  MOVWF  x99
03F58:  MOVFF  397,379
03F5C:  MOVFF  399,378
03F60:  MOVFF  FF2,39A
03F64:  BCF    FF2.7
03F66:  CLRF   FAA
03F68:  MOVLW  0D
03F6A:  MOVWF  FA9
03F6C:  BCF    FA6.6
03F6E:  BCF    FA6.7
03F70:  BSF    FA6.0
03F72:  MOVF   FA8,W
03F74:  BTFSC  x9A.7
03F76:  BSF    FF2.7
03F78:  MOVWF  x9B
03F7A:  MOVFF  FF2,39C
03F7E:  BCF    FF2.7
03F80:  CLRF   FAA
03F82:  MOVLW  0C
03F84:  MOVWF  FA9
03F86:  BCF    FA6.6
03F88:  BCF    FA6.7
03F8A:  BSF    FA6.0
03F8C:  MOVF   FA8,W
03F8E:  BTFSC  x9C.7
03F90:  BSF    FF2.7
03F92:  MOVWF  x9D
03F94:  MOVFF  39B,37B
03F98:  MOVFF  39D,37A
03F9C:  MOVFF  FF2,39E
03FA0:  BCF    FF2.7
03FA2:  CLRF   FAA
03FA4:  MOVLW  0F
03FA6:  MOVWF  FA9
03FA8:  BCF    FA6.6
03FAA:  BCF    FA6.7
03FAC:  BSF    FA6.0
03FAE:  MOVF   FA8,W
03FB0:  BTFSC  x9E.7
03FB2:  BSF    FF2.7
03FB4:  MOVWF  x9F
03FB6:  MOVFF  FF2,3A0
03FBA:  BCF    FF2.7
03FBC:  CLRF   FAA
03FBE:  MOVLW  0E
03FC0:  MOVWF  FA9
03FC2:  BCF    FA6.6
03FC4:  BCF    FA6.7
03FC6:  BSF    FA6.0
03FC8:  MOVF   FA8,W
03FCA:  BTFSC  xA0.7
03FCC:  BSF    FF2.7
03FCE:  MOVWF  xA1
03FD0:  MOVFF  39F,37D
03FD4:  MOVFF  3A1,37C
....................  
....................                if(hv_r > 600 || hv_r < 250) hv_r = 480; 
03FD8:  MOVF   x79,W
03FDA:  SUBLW  01
03FDC:  BC    3FE8
03FDE:  XORLW  FF
03FE0:  BNZ   3FF2
03FE2:  MOVF   x78,W
03FE4:  SUBLW  58
03FE6:  BNC   3FF2
03FE8:  MOVF   x79,F
03FEA:  BNZ   3FFA
03FEC:  MOVF   x78,W
03FEE:  SUBLW  F9
03FF0:  BNC   3FFA
03FF2:  MOVLW  01
03FF4:  MOVWF  x79
03FF6:  MOVLW  E0
03FF8:  MOVWF  x78
....................                if(hv_y > 600 || hv_y < 250) hv_y = 480; 
03FFA:  MOVF   x7B,W
03FFC:  SUBLW  01
03FFE:  BC    400A
04000:  XORLW  FF
04002:  BNZ   4014
04004:  MOVF   x7A,W
04006:  SUBLW  58
04008:  BNC   4014
0400A:  MOVF   x7B,F
0400C:  BNZ   401C
0400E:  MOVF   x7A,W
04010:  SUBLW  F9
04012:  BNC   401C
04014:  MOVLW  01
04016:  MOVWF  x7B
04018:  MOVLW  E0
0401A:  MOVWF  x7A
....................                if(hv_b > 600 || hv_b < 250) hv_b = 480; 
0401C:  MOVF   x7D,W
0401E:  SUBLW  01
04020:  BC    402C
04022:  XORLW  FF
04024:  BNZ   4036
04026:  MOVF   x7C,W
04028:  SUBLW  58
0402A:  BNC   4036
0402C:  MOVF   x7D,F
0402E:  BNZ   403E
04030:  MOVF   x7C,W
04032:  SUBLW  F9
04034:  BNC   403E
04036:  MOVLW  01
04038:  MOVWF  x7D
0403A:  MOVLW  E0
0403C:  MOVWF  x7C
....................  
....................                lcd_cmd(LCD_CLEAR); 
0403E:  MOVLW  01
04040:  MOVWF  xA8
04042:  MOVLB  0
04044:  CALL   0E5E
....................                lcd_goto(1, 1); 
04048:  MOVLW  01
0404A:  MOVLB  3
0404C:  MOVWF  xA5
0404E:  MOVWF  xA6
04050:  MOVLB  0
04052:  CALL   119A
....................                printf(lcd_out, "HIGH VOLT SET   "); 
04056:  MOVLW  A4
04058:  MOVWF  FF6
0405A:  MOVLW  07
0405C:  MOVWF  FF7
0405E:  CALL   125C
....................                delay_ms(800); 
04062:  MOVLW  04
04064:  MOVLB  3
04066:  MOVWF  x96
04068:  MOVLW  C8
0406A:  MOVWF  xA9
0406C:  MOVLB  0
0406E:  CALL   0DA4
04072:  MOVLB  3
04074:  DECFSZ x96,F
04076:  BRA    4068
....................  
....................                hv_r = handle_parameter_input(lbl_hv_r, hv_r, 250, 600); 
04078:  MOVLW  03
0407A:  MOVWF  x98
0407C:  MOVLW  66
0407E:  MOVWF  x97
04080:  MOVFF  379,39A
04084:  MOVFF  378,399
04088:  CLRF   x9C
0408A:  MOVLW  FA
0408C:  MOVWF  x9B
0408E:  MOVLW  02
04090:  MOVWF  x9E
04092:  MOVLW  58
04094:  MOVWF  x9D
04096:  MOVLB  0
04098:  CALL   355E
0409C:  MOVFF  02,379
040A0:  MOVFF  01,378
....................                hv_y = handle_parameter_input(lbl_hv_y, hv_y, 250, 600); 
040A4:  MOVLW  03
040A6:  MOVLB  3
040A8:  MOVWF  x98
040AA:  MOVLW  6C
040AC:  MOVWF  x97
040AE:  MOVFF  37B,39A
040B2:  MOVFF  37A,399
040B6:  CLRF   x9C
040B8:  MOVLW  FA
040BA:  MOVWF  x9B
040BC:  MOVLW  02
040BE:  MOVWF  x9E
040C0:  MOVLW  58
040C2:  MOVWF  x9D
040C4:  MOVLB  0
040C6:  CALL   355E
040CA:  MOVFF  02,37B
040CE:  MOVFF  01,37A
....................                hv_b = handle_parameter_input(lbl_hv_b, hv_b, 250, 600); 
040D2:  MOVLW  03
040D4:  MOVLB  3
040D6:  MOVWF  x98
040D8:  MOVLW  72
040DA:  MOVWF  x97
040DC:  MOVFF  37D,39A
040E0:  MOVFF  37C,399
040E4:  CLRF   x9C
040E6:  MOVLW  FA
040E8:  MOVWF  x9B
040EA:  MOVLW  02
040EC:  MOVWF  x9E
040EE:  MOVLW  58
040F0:  MOVWF  x9D
040F2:  MOVLB  0
040F4:  CALL   355E
040F8:  MOVFF  02,37D
040FC:  MOVFF  01,37C
....................  
....................                write_eeprom(0x0A, make8(hv_r, 0)); 
04100:  MOVFF  378,396
04104:  MOVF   FF2,W
04106:  MOVWF  00
04108:  BCF    FF2.7
0410A:  CLRF   FAA
0410C:  MOVLW  0A
0410E:  MOVWF  FA9
04110:  MOVFF  396,FA8
04114:  BCF    FA6.6
04116:  BCF    FA6.7
04118:  BSF    FA6.2
0411A:  MOVLB  F
0411C:  MOVLW  55
0411E:  MOVWF  FA7
04120:  MOVLW  AA
04122:  MOVWF  FA7
04124:  BSF    FA6.1
04126:  BTFSC  FA6.1
04128:  BRA    4126
0412A:  BCF    FA6.2
0412C:  MOVF   00,W
0412E:  IORWF  FF2,F
....................                write_eeprom(0x0B, make8(hv_r, 1)); 
04130:  MOVFF  379,396
04134:  MOVFF  FF2,00
04138:  BCF    FF2.7
0413A:  CLRF   FAA
0413C:  MOVLW  0B
0413E:  MOVWF  FA9
04140:  MOVFF  379,FA8
04144:  BCF    FA6.6
04146:  BCF    FA6.7
04148:  BSF    FA6.2
0414A:  MOVLW  55
0414C:  MOVWF  FA7
0414E:  MOVLW  AA
04150:  MOVWF  FA7
04152:  BSF    FA6.1
04154:  BTFSC  FA6.1
04156:  BRA    4154
04158:  BCF    FA6.2
0415A:  MOVF   00,W
0415C:  IORWF  FF2,F
....................                write_eeprom(0x0C, make8(hv_y, 0)); 
0415E:  MOVFF  37A,396
04162:  MOVFF  FF2,00
04166:  BCF    FF2.7
04168:  CLRF   FAA
0416A:  MOVLW  0C
0416C:  MOVWF  FA9
0416E:  MOVFF  37A,FA8
04172:  BCF    FA6.6
04174:  BCF    FA6.7
04176:  BSF    FA6.2
04178:  MOVLW  55
0417A:  MOVWF  FA7
0417C:  MOVLW  AA
0417E:  MOVWF  FA7
04180:  BSF    FA6.1
04182:  BTFSC  FA6.1
04184:  BRA    4182
04186:  BCF    FA6.2
04188:  MOVF   00,W
0418A:  IORWF  FF2,F
....................                write_eeprom(0x0D, make8(hv_y, 1)); 
0418C:  MOVFF  37B,396
04190:  MOVFF  FF2,00
04194:  BCF    FF2.7
04196:  CLRF   FAA
04198:  MOVLW  0D
0419A:  MOVWF  FA9
0419C:  MOVFF  37B,FA8
041A0:  BCF    FA6.6
041A2:  BCF    FA6.7
041A4:  BSF    FA6.2
041A6:  MOVLW  55
041A8:  MOVWF  FA7
041AA:  MOVLW  AA
041AC:  MOVWF  FA7
041AE:  BSF    FA6.1
041B0:  BTFSC  FA6.1
041B2:  BRA    41B0
041B4:  BCF    FA6.2
041B6:  MOVF   00,W
041B8:  IORWF  FF2,F
....................                write_eeprom(0x0E, make8(hv_b, 0)); 
041BA:  MOVFF  37C,396
041BE:  MOVFF  FF2,00
041C2:  BCF    FF2.7
041C4:  CLRF   FAA
041C6:  MOVLW  0E
041C8:  MOVWF  FA9
041CA:  MOVFF  37C,FA8
041CE:  BCF    FA6.6
041D0:  BCF    FA6.7
041D2:  BSF    FA6.2
041D4:  MOVLW  55
041D6:  MOVWF  FA7
041D8:  MOVLW  AA
041DA:  MOVWF  FA7
041DC:  BSF    FA6.1
041DE:  BTFSC  FA6.1
041E0:  BRA    41DE
041E2:  BCF    FA6.2
041E4:  MOVF   00,W
041E6:  IORWF  FF2,F
....................                write_eeprom(0x0F, make8(hv_b, 1)); 
041E8:  MOVFF  37D,396
041EC:  MOVFF  FF2,00
041F0:  BCF    FF2.7
041F2:  CLRF   FAA
041F4:  MOVLW  0F
041F6:  MOVWF  FA9
041F8:  MOVFF  37D,FA8
041FC:  BCF    FA6.6
041FE:  BCF    FA6.7
04200:  BSF    FA6.2
04202:  MOVLW  55
04204:  MOVWF  FA7
04206:  MOVLW  AA
04208:  MOVWF  FA7
0420A:  BSF    FA6.1
0420C:  BTFSC  FA6.1
0420E:  BRA    420C
04210:  BCF    FA6.2
04212:  MOVF   00,W
04214:  IORWF  FF2,F
....................  
....................                // Update global variables 
....................                h_voltr = hv_r; 
04216:  MOVFF  379,2A7
0421A:  MOVFF  378,2A6
....................                h_volty = hv_y; 
0421E:  MOVFF  37B,2A9
04222:  MOVFF  37A,2A8
....................                h_voltb = hv_b; 
04226:  MOVFF  37D,2AB
0422A:  MOVFF  37C,2AA
....................  
....................                lcd_cmd(LCD_CLEAR); 
0422E:  MOVLW  01
04230:  MOVLB  3
04232:  MOVWF  xA8
04234:  MOVLB  0
04236:  CALL   0E5E
....................                lcd_goto(1, 1); 
0423A:  MOVLW  01
0423C:  MOVLB  3
0423E:  MOVWF  xA5
04240:  MOVWF  xA6
04242:  MOVLB  0
04244:  CALL   119A
....................                printf(lcd_out, "HV SAVED        "); 
04248:  MOVLW  B6
0424A:  MOVWF  FF6
0424C:  MOVLW  07
0424E:  MOVWF  FF7
04250:  CALL   125C
....................                lcd_goto(1, 2); 
04254:  MOVLW  01
04256:  MOVLB  3
04258:  MOVWF  xA5
0425A:  MOVLW  02
0425C:  MOVWF  xA6
0425E:  MOVLB  0
04260:  CALL   119A
....................                printf(lcd_out, "%lu:%lu:%lu      ", (long)hv_r, (long)hv_y, (long)hv_b); 
04264:  MOVLW  10
04266:  MOVWF  FE9
04268:  MOVFF  379,398
0426C:  MOVFF  378,397
04270:  CALL   37FE
04274:  MOVLW  3A
04276:  MOVLB  3
04278:  MOVWF  xAE
0427A:  MOVLB  0
0427C:  CALL   122E
04280:  MOVLW  10
04282:  MOVWF  FE9
04284:  MOVFF  37B,398
04288:  MOVFF  37A,397
0428C:  CALL   37FE
04290:  MOVLW  3A
04292:  MOVLB  3
04294:  MOVWF  xAE
04296:  MOVLB  0
04298:  CALL   122E
0429C:  MOVLW  10
0429E:  MOVWF  FE9
042A0:  MOVFF  37D,398
042A4:  MOVFF  37C,397
042A8:  CALL   37FE
042AC:  MOVLW  D3
042AE:  MOVWF  FF6
042B0:  MOVLW  07
042B2:  MOVWF  FF7
042B4:  MOVLW  06
042B6:  MOVLB  3
042B8:  MOVWF  xA5
042BA:  MOVLB  0
042BC:  CALL   18B8
....................  
....................                // Wait for user to press SW ? back to sub menu 
....................                while(input(ENCODER_SW) == 1); 
042C0:  BTFSC  F81.6
042C2:  BRA    42C0
....................                delay_ms(20); 
042C4:  MOVLW  14
042C6:  MOVLB  3
042C8:  MOVWF  xA9
042CA:  MOVLB  0
042CC:  CALL   0DA4
....................                while(input(ENCODER_SW) == 0); 
042D0:  BTFSS  F81.6
042D2:  BRA    42D0
....................                delay_ms(50); 
042D4:  MOVLW  32
042D6:  MOVLB  3
042D8:  MOVWF  xA9
042DA:  MOVLB  0
042DC:  CALL   0DA4
....................  
....................                last_sub_sel = 255; // force redraw sub menu 
042E0:  MOVLB  3
042E2:  SETF   x4D
....................             } 
042E4:  BRA    4748
....................  
....................             // -------------------------------- 
....................             // OPTION 2  OVERLOAD 
....................             // -------------------------------- 
....................             else if(sub_sel == 2) { 
042E6:  MOVF   x4C,W
042E8:  SUBLW  02
042EA:  BTFSS  FD8.2
042EC:  BRA    46DA
....................  
....................                char lbl_ol_r[] = "OL R:"; 
042EE:  MOVLW  4F
042F0:  MOVWF  x7E
042F2:  MOVLW  4C
042F4:  MOVWF  x7F
042F6:  MOVLW  20
042F8:  MOVWF  x80
042FA:  MOVLW  52
042FC:  MOVWF  x81
042FE:  MOVLW  3A
04300:  MOVWF  x82
04302:  CLRF   x83
....................                char lbl_ol_y[] = "OL Y:"; 
04304:  MOVLW  4F
04306:  MOVWF  x84
04308:  MOVLW  4C
0430A:  MOVWF  x85
0430C:  MOVLW  20
0430E:  MOVWF  x86
04310:  MOVLW  59
04312:  MOVWF  x87
04314:  MOVLW  3A
04316:  MOVWF  x88
04318:  CLRF   x89
....................                char lbl_ol_b[] = "OL B:"; 
0431A:  MOVLW  4F
0431C:  MOVWF  x8A
0431E:  MOVLW  4C
04320:  MOVWF  x8B
04322:  MOVLW  20
04324:  MOVWF  x8C
04326:  MOVLW  42
04328:  MOVWF  x8D
0432A:  MOVLW  3A
0432C:  MOVWF  x8E
0432E:  CLRF   x8F
04330:  MOVFF  FF2,396
04334:  BCF    FF2.7
....................  
....................                int16 ol_r = make16(read_eeprom(0x41), read_eeprom(0x40)); 
....................                int16 ol_y = make16(read_eeprom(0x43), read_eeprom(0x42)); 
....................                int16 ol_b = make16(read_eeprom(0x45), read_eeprom(0x44)); 
04336:  CLRF   FAA
04338:  MOVLW  41
0433A:  MOVWF  FA9
0433C:  BCF    FA6.6
0433E:  BCF    FA6.7
04340:  BSF    FA6.0
04342:  MOVF   FA8,W
04344:  BTFSC  x96.7
04346:  BSF    FF2.7
04348:  MOVWF  x97
0434A:  MOVFF  FF2,398
0434E:  BCF    FF2.7
04350:  CLRF   FAA
04352:  MOVLW  40
04354:  MOVWF  FA9
04356:  BCF    FA6.6
04358:  BCF    FA6.7
0435A:  BSF    FA6.0
0435C:  MOVF   FA8,W
0435E:  BTFSC  x98.7
04360:  BSF    FF2.7
04362:  MOVWF  x99
04364:  MOVFF  397,391
04368:  MOVFF  399,390
0436C:  MOVFF  FF2,39A
04370:  BCF    FF2.7
04372:  CLRF   FAA
04374:  MOVLW  43
04376:  MOVWF  FA9
04378:  BCF    FA6.6
0437A:  BCF    FA6.7
0437C:  BSF    FA6.0
0437E:  MOVF   FA8,W
04380:  BTFSC  x9A.7
04382:  BSF    FF2.7
04384:  MOVWF  x9B
04386:  MOVFF  FF2,39C
0438A:  BCF    FF2.7
0438C:  CLRF   FAA
0438E:  MOVLW  42
04390:  MOVWF  FA9
04392:  BCF    FA6.6
04394:  BCF    FA6.7
04396:  BSF    FA6.0
04398:  MOVF   FA8,W
0439A:  BTFSC  x9C.7
0439C:  BSF    FF2.7
0439E:  MOVWF  x9D
043A0:  MOVFF  39B,393
043A4:  MOVFF  39D,392
043A8:  MOVFF  FF2,39E
043AC:  BCF    FF2.7
043AE:  CLRF   FAA
043B0:  MOVLW  45
043B2:  MOVWF  FA9
043B4:  BCF    FA6.6
043B6:  BCF    FA6.7
043B8:  BSF    FA6.0
043BA:  MOVF   FA8,W
043BC:  BTFSC  x9E.7
043BE:  BSF    FF2.7
043C0:  MOVWF  x9F
043C2:  MOVFF  FF2,3A0
043C6:  BCF    FF2.7
043C8:  CLRF   FAA
043CA:  MOVLW  44
043CC:  MOVWF  FA9
043CE:  BCF    FA6.6
043D0:  BCF    FA6.7
043D2:  BSF    FA6.0
043D4:  MOVF   FA8,W
043D6:  BTFSC  xA0.7
043D8:  BSF    FF2.7
043DA:  MOVWF  xA1
043DC:  MOVFF  39F,395
043E0:  MOVFF  3A1,394
....................  
....................                if(ol_r > 300 || ol_r < 0) ol_r = 30; 
043E4:  MOVF   x91,W
043E6:  SUBLW  00
043E8:  BC    4400
043EA:  XORLW  FF
043EC:  BNZ   43FA
043EE:  MOVF   x90,W
043F0:  SUBLW  2C
043F2:  BC    4400
043F4:  BRA    43FA
043F6:  BTFSS  00.0
043F8:  BRA    4400
043FA:  CLRF   x91
043FC:  MOVLW  1E
043FE:  MOVWF  x90
....................                if(ol_y > 300 || ol_y < 0) ol_y = 30; 
04400:  MOVF   x93,W
04402:  SUBLW  00
04404:  BC    441C
04406:  XORLW  FF
04408:  BNZ   4416
0440A:  MOVF   x92,W
0440C:  SUBLW  2C
0440E:  BC    441C
04410:  BRA    4416
04412:  BTFSS  00.0
04414:  BRA    441C
04416:  CLRF   x93
04418:  MOVLW  1E
0441A:  MOVWF  x92
....................                if(ol_b > 300 || ol_b < 0) ol_b = 30; 
0441C:  MOVF   x95,W
0441E:  SUBLW  00
04420:  BC    4438
04422:  XORLW  FF
04424:  BNZ   4432
04426:  MOVF   x94,W
04428:  SUBLW  2C
0442A:  BC    4438
0442C:  BRA    4432
0442E:  BTFSS  00.0
04430:  BRA    4438
04432:  CLRF   x95
04434:  MOVLW  1E
04436:  MOVWF  x94
....................  
....................                lcd_cmd(LCD_CLEAR); 
04438:  MOVLW  01
0443A:  MOVWF  xA8
0443C:  MOVLB  0
0443E:  CALL   0E5E
....................                lcd_goto(1, 1); 
04442:  MOVLW  01
04444:  MOVLB  3
04446:  MOVWF  xA5
04448:  MOVWF  xA6
0444A:  MOVLB  0
0444C:  CALL   119A
....................                printf(lcd_out, "OVERLOAD SET    "); 
04450:  MOVLW  DA
04452:  MOVWF  FF6
04454:  MOVLW  07
04456:  MOVWF  FF7
04458:  CALL   125C
....................                delay_ms(800); 
0445C:  MOVLW  04
0445E:  MOVLB  3
04460:  MOVWF  x96
04462:  MOVLW  C8
04464:  MOVWF  xA9
04466:  MOVLB  0
04468:  CALL   0DA4
0446C:  MOVLB  3
0446E:  DECFSZ x96,F
04470:  BRA    4462
....................  
....................                ol_r = handle_parameter_input(lbl_ol_r, ol_r, 0, 300); 
04472:  MOVLW  03
04474:  MOVWF  x98
04476:  MOVLW  7E
04478:  MOVWF  x97
0447A:  MOVFF  391,39A
0447E:  MOVFF  390,399
04482:  CLRF   x9C
04484:  CLRF   x9B
04486:  MOVLW  01
04488:  MOVWF  x9E
0448A:  MOVLW  2C
0448C:  MOVWF  x9D
0448E:  MOVLB  0
04490:  CALL   355E
04494:  MOVFF  02,391
04498:  MOVFF  01,390
....................                ol_y = handle_parameter_input(lbl_ol_y, ol_y, 0, 300); 
0449C:  MOVLW  03
0449E:  MOVLB  3
044A0:  MOVWF  x98
044A2:  MOVLW  84
044A4:  MOVWF  x97
044A6:  MOVFF  393,39A
044AA:  MOVFF  392,399
044AE:  CLRF   x9C
044B0:  CLRF   x9B
044B2:  MOVLW  01
044B4:  MOVWF  x9E
044B6:  MOVLW  2C
044B8:  MOVWF  x9D
044BA:  MOVLB  0
044BC:  CALL   355E
044C0:  MOVFF  02,393
044C4:  MOVFF  01,392
....................                ol_b = handle_parameter_input(lbl_ol_b, ol_b, 0, 300); 
044C8:  MOVLW  03
044CA:  MOVLB  3
044CC:  MOVWF  x98
044CE:  MOVLW  8A
044D0:  MOVWF  x97
044D2:  MOVFF  395,39A
044D6:  MOVFF  394,399
044DA:  CLRF   x9C
044DC:  CLRF   x9B
044DE:  MOVLW  01
044E0:  MOVWF  x9E
044E2:  MOVLW  2C
044E4:  MOVWF  x9D
044E6:  MOVLB  0
044E8:  CALL   355E
044EC:  MOVFF  02,395
044F0:  MOVFF  01,394
....................  
....................                write_eeprom(0x40, make8(ol_r, 0)); 
044F4:  MOVFF  390,396
044F8:  MOVF   FF2,W
044FA:  MOVWF  00
044FC:  BCF    FF2.7
044FE:  CLRF   FAA
04500:  MOVLW  40
04502:  MOVWF  FA9
04504:  MOVFF  396,FA8
04508:  BCF    FA6.6
0450A:  BCF    FA6.7
0450C:  BSF    FA6.2
0450E:  MOVLB  F
04510:  MOVLW  55
04512:  MOVWF  FA7
04514:  MOVLW  AA
04516:  MOVWF  FA7
04518:  BSF    FA6.1
0451A:  BTFSC  FA6.1
0451C:  BRA    451A
0451E:  BCF    FA6.2
04520:  MOVF   00,W
04522:  IORWF  FF2,F
....................                write_eeprom(0x41, make8(ol_r, 1)); 
04524:  MOVFF  391,396
04528:  MOVFF  FF2,00
0452C:  BCF    FF2.7
0452E:  CLRF   FAA
04530:  MOVLW  41
04532:  MOVWF  FA9
04534:  MOVFF  391,FA8
04538:  BCF    FA6.6
0453A:  BCF    FA6.7
0453C:  BSF    FA6.2
0453E:  MOVLW  55
04540:  MOVWF  FA7
04542:  MOVLW  AA
04544:  MOVWF  FA7
04546:  BSF    FA6.1
04548:  BTFSC  FA6.1
0454A:  BRA    4548
0454C:  BCF    FA6.2
0454E:  MOVF   00,W
04550:  IORWF  FF2,F
....................                write_eeprom(0x42, make8(ol_y, 0)); 
04552:  MOVFF  392,396
04556:  MOVFF  FF2,00
0455A:  BCF    FF2.7
0455C:  CLRF   FAA
0455E:  MOVLW  42
04560:  MOVWF  FA9
04562:  MOVFF  392,FA8
04566:  BCF    FA6.6
04568:  BCF    FA6.7
0456A:  BSF    FA6.2
0456C:  MOVLW  55
0456E:  MOVWF  FA7
04570:  MOVLW  AA
04572:  MOVWF  FA7
04574:  BSF    FA6.1
04576:  BTFSC  FA6.1
04578:  BRA    4576
0457A:  BCF    FA6.2
0457C:  MOVF   00,W
0457E:  IORWF  FF2,F
....................                write_eeprom(0x43, make8(ol_y, 1)); 
04580:  MOVFF  393,396
04584:  MOVFF  FF2,00
04588:  BCF    FF2.7
0458A:  CLRF   FAA
0458C:  MOVLW  43
0458E:  MOVWF  FA9
04590:  MOVFF  393,FA8
04594:  BCF    FA6.6
04596:  BCF    FA6.7
04598:  BSF    FA6.2
0459A:  MOVLW  55
0459C:  MOVWF  FA7
0459E:  MOVLW  AA
045A0:  MOVWF  FA7
045A2:  BSF    FA6.1
045A4:  BTFSC  FA6.1
045A6:  BRA    45A4
045A8:  BCF    FA6.2
045AA:  MOVF   00,W
045AC:  IORWF  FF2,F
....................                write_eeprom(0x44, make8(ol_b, 0)); 
045AE:  MOVFF  394,396
045B2:  MOVFF  FF2,00
045B6:  BCF    FF2.7
045B8:  CLRF   FAA
045BA:  MOVLW  44
045BC:  MOVWF  FA9
045BE:  MOVFF  394,FA8
045C2:  BCF    FA6.6
045C4:  BCF    FA6.7
045C6:  BSF    FA6.2
045C8:  MOVLW  55
045CA:  MOVWF  FA7
045CC:  MOVLW  AA
045CE:  MOVWF  FA7
045D0:  BSF    FA6.1
045D2:  BTFSC  FA6.1
045D4:  BRA    45D2
045D6:  BCF    FA6.2
045D8:  MOVF   00,W
045DA:  IORWF  FF2,F
....................                write_eeprom(0x45, make8(ol_b, 1)); 
045DC:  MOVFF  395,396
045E0:  MOVFF  FF2,00
045E4:  BCF    FF2.7
045E6:  CLRF   FAA
045E8:  MOVLW  45
045EA:  MOVWF  FA9
045EC:  MOVFF  395,FA8
045F0:  BCF    FA6.6
045F2:  BCF    FA6.7
045F4:  BSF    FA6.2
045F6:  MOVLW  55
045F8:  MOVWF  FA7
045FA:  MOVLW  AA
045FC:  MOVWF  FA7
045FE:  BSF    FA6.1
04600:  BTFSC  FA6.1
04602:  BRA    4600
04604:  BCF    FA6.2
04606:  MOVF   00,W
04608:  IORWF  FF2,F
....................  
....................                // Update global variables 
....................                over_cr = ol_r; 
0460A:  MOVFF  391,2B3
0460E:  MOVFF  390,2B2
....................                over_cy = ol_y; 
04612:  MOVFF  393,2B5
04616:  MOVFF  392,2B4
....................                over_cb = ol_b; 
0461A:  MOVFF  395,2B7
0461E:  MOVFF  394,2B6
....................  
....................                lcd_cmd(LCD_CLEAR); 
04622:  MOVLW  01
04624:  MOVLB  3
04626:  MOVWF  xA8
04628:  MOVLB  0
0462A:  CALL   0E5E
....................                lcd_goto(1, 1); 
0462E:  MOVLW  01
04630:  MOVLB  3
04632:  MOVWF  xA5
04634:  MOVWF  xA6
04636:  MOVLB  0
04638:  CALL   119A
....................                printf(lcd_out, "OL SAVED        "); 
0463C:  MOVLW  EC
0463E:  MOVWF  FF6
04640:  MOVLW  07
04642:  MOVWF  FF7
04644:  CALL   125C
....................                lcd_goto(1, 2); 
04648:  MOVLW  01
0464A:  MOVLB  3
0464C:  MOVWF  xA5
0464E:  MOVLW  02
04650:  MOVWF  xA6
04652:  MOVLB  0
04654:  CALL   119A
....................                printf(lcd_out, "%lu:%lu:%lu      ", (long)ol_r, (long)ol_y, (long)ol_b); 
04658:  MOVLW  10
0465A:  MOVWF  FE9
0465C:  MOVFF  391,398
04660:  MOVFF  390,397
04664:  CALL   37FE
04668:  MOVLW  3A
0466A:  MOVLB  3
0466C:  MOVWF  xAE
0466E:  MOVLB  0
04670:  CALL   122E
04674:  MOVLW  10
04676:  MOVWF  FE9
04678:  MOVFF  393,398
0467C:  MOVFF  392,397
04680:  CALL   37FE
04684:  MOVLW  3A
04686:  MOVLB  3
04688:  MOVWF  xAE
0468A:  MOVLB  0
0468C:  CALL   122E
04690:  MOVLW  10
04692:  MOVWF  FE9
04694:  MOVFF  395,398
04698:  MOVFF  394,397
0469C:  CALL   37FE
046A0:  MOVLW  09
046A2:  MOVWF  FF6
046A4:  MOVLW  08
046A6:  MOVWF  FF7
046A8:  MOVLW  06
046AA:  MOVLB  3
046AC:  MOVWF  xA5
046AE:  MOVLB  0
046B0:  CALL   18B8
....................  
....................                // Wait for user to press SW ? back to sub menu 
....................                while(input(ENCODER_SW) == 1); 
046B4:  BTFSC  F81.6
046B6:  BRA    46B4
....................                delay_ms(20); 
046B8:  MOVLW  14
046BA:  MOVLB  3
046BC:  MOVWF  xA9
046BE:  MOVLB  0
046C0:  CALL   0DA4
....................                while(input(ENCODER_SW) == 0); 
046C4:  BTFSS  F81.6
046C6:  BRA    46C4
....................                delay_ms(50); 
046C8:  MOVLW  32
046CA:  MOVLB  3
046CC:  MOVWF  xA9
046CE:  MOVLB  0
046D0:  CALL   0DA4
....................  
....................                last_sub_sel = 255; // force redraw sub menu 
046D4:  MOVLB  3
046D6:  SETF   x4D
....................             } 
046D8:  BRA    4748
....................  
....................             // -------------------------------- 
....................             // OPTION 3  EXIT -> NEXT MENU 
....................             // -------------------------------- 
....................             else if(sub_sel == 3) { 
046DA:  MOVF   x4C,W
046DC:  SUBLW  03
046DE:  BNZ   4748
....................                lcd_cmd(LCD_CLEAR); 
046E0:  MOVLW  01
046E2:  MOVWF  xA8
046E4:  MOVLB  0
046E6:  CALL   0E5E
....................                lcd_goto(1, 1); 
046EA:  MOVLW  01
046EC:  MOVLB  3
046EE:  MOVWF  xA5
046F0:  MOVWF  xA6
046F2:  MOVLB  0
046F4:  CALL   119A
....................                printf(lcd_out, "VOLT MENU DONE  "); 
046F8:  MOVLW  10
046FA:  MOVWF  FF6
046FC:  MOVLW  08
046FE:  MOVWF  FF7
04700:  CALL   125C
....................                lcd_goto(1, 2); 
04704:  MOVLW  01
04706:  MOVLB  3
04708:  MOVWF  xA5
0470A:  MOVLW  02
0470C:  MOVWF  xA6
0470E:  MOVLB  0
04710:  CALL   119A
....................                printf(lcd_out, "Going to next..."); 
04714:  MOVLW  22
04716:  MOVWF  FF6
04718:  MOVLW  08
0471A:  MOVWF  FF7
0471C:  CALL   125C
....................                delay_ms(1000); 
04720:  MOVLW  04
04722:  MOVLB  3
04724:  MOVWF  x96
04726:  MOVLW  FA
04728:  MOVWF  xA9
0472A:  MOVLB  0
0472C:  CALL   0DA4
04730:  MOVLB  3
04732:  DECFSZ x96,F
04734:  BRA    4726
....................                lcd_cmd(LCD_CLEAR); 
04736:  MOVLW  01
04738:  MOVWF  xA8
0473A:  MOVLB  0
0473C:  CALL   0E5E
....................                advance_to_next_menu(); 
04740:  CALL   2244
....................                return; 
04744:  BRA    4758
04746:  MOVLB  3
....................             } 
....................  
....................          } // end SW debounce 
....................       } // end SW check 
....................  
....................       delay_ms(1); 
04748:  MOVLW  01
0474A:  MOVWF  xA9
0474C:  MOVLB  0
0474E:  CALL   0DA4
04752:  MOVLB  3
04754:  GOTO   39EA
04758:  MOVLB  0
....................  
....................    } // end while(1) 
0475A:  GOTO   740E (RETURN)
.................... } 
....................  
.................... void handle_dryrun_delay() { 
....................    delay_ms(50); 
0475E:  MOVLW  32
04760:  MOVLB  3
04762:  MOVWF  xA9
04764:  MOVLB  0
04766:  CALL   0DA4
....................    while (input(ENCODER_SW) == 0); 
0476A:  BTFSS  F81.6
0476C:  BRA    476A
....................     
....................    int16 dryrun_delay = make16(read_eeprom(0x18), read_eeprom(0x17)); 
0476E:  MOVFF  FF2,30A
04772:  BCF    FF2.7
04774:  CLRF   FAA
04776:  MOVLW  18
04778:  MOVWF  FA9
0477A:  BCF    FA6.6
0477C:  BCF    FA6.7
0477E:  BSF    FA6.0
04780:  MOVF   FA8,W
04782:  MOVLB  3
04784:  BTFSC  x0A.7
04786:  BSF    FF2.7
04788:  MOVWF  x0B
0478A:  MOVFF  FF2,30C
0478E:  BCF    FF2.7
04790:  CLRF   FAA
04792:  MOVLW  17
04794:  MOVWF  FA9
04796:  BCF    FA6.6
04798:  BCF    FA6.7
0479A:  BSF    FA6.0
0479C:  MOVF   FA8,W
0479E:  BTFSC  x0C.7
047A0:  BSF    FF2.7
047A2:  MOVWF  x0D
047A4:  MOVFF  30B,300
047A8:  MOVFF  30D,2FF
....................    if (dryrun_delay > 999) dryrun_delay = 999; 
047AC:  MOVF   x00,W
047AE:  SUBLW  02
047B0:  BC    47D2
047B2:  XORLW  FF
047B4:  BNZ   47C6
047B6:  MOVLB  2
047B8:  MOVF   xFF,W
047BA:  SUBLW  E7
047BC:  BTFSS  FD8.0
047BE:  BRA    47C4
047C0:  MOVLB  3
047C2:  BRA    47D2
047C4:  MOVLB  3
047C6:  MOVLW  03
047C8:  MOVWF  x00
047CA:  MOVLW  E7
047CC:  MOVLB  2
047CE:  MOVWF  xFF
047D0:  MOVLB  3
....................    if (dryrun_delay < 0)   dryrun_delay = 0; 
....................     
....................    int16 original_delay = dryrun_delay; 
....................    int8 increment_mode = 1; 
....................    int16 last_value = -1; 
....................    int8 last_mode = -1; 
....................    int1 button_pressed_flag = 0; 
047D2:  MOVFF  300,302
047D6:  MOVFF  2FF,301
047DA:  MOVLW  01
047DC:  MOVWF  x03
047DE:  SETF   x05
047E0:  SETF   x04
047E2:  SETF   x06
047E4:  BCF    x07.0
....................     
....................    lcd_cmd(LCD_CLEAR);    
047E6:  MOVWF  xA8
047E8:  MOVLB  0
047EA:  CALL   0E5E
....................    delay_ms(100); 
047EE:  MOVLW  64
047F0:  MOVLB  3
047F2:  MOVWF  xA9
047F4:  MOVLB  0
047F6:  CALL   0DA4
....................     
....................    while (1) { 
....................       if (dryrun_delay > 999) dryrun_delay = 999; 
047FA:  MOVLB  3
047FC:  MOVF   x00,W
047FE:  SUBLW  02
04800:  BC    4822
04802:  XORLW  FF
04804:  BNZ   4816
04806:  MOVLB  2
04808:  MOVF   xFF,W
0480A:  SUBLW  E7
0480C:  BTFSS  FD8.0
0480E:  BRA    4814
04810:  MOVLB  3
04812:  BRA    4822
04814:  MOVLB  3
04816:  MOVLW  03
04818:  MOVWF  x00
0481A:  MOVLW  E7
0481C:  MOVLB  2
0481E:  MOVWF  xFF
04820:  MOVLB  3
....................       if (dryrun_delay < 0) dryrun_delay = 0; 
....................        
....................       if (dryrun_delay != last_value || increment_mode != last_mode) { 
04822:  MOVF   x04,W
04824:  MOVLB  2
04826:  SUBWF  xFF,W
04828:  BNZ   4840
0482A:  MOVLB  3
0482C:  MOVF   x05,W
0482E:  SUBWF  x00,W
04830:  BTFSC  FD8.2
04832:  BRA    4838
04834:  MOVLB  2
04836:  BRA    4840
04838:  MOVF   x06,W
0483A:  SUBWF  x03,W
0483C:  BZ    48FA
0483E:  MOVLB  2
....................          lcd_cmd(LCD_CLEAR); 
04840:  MOVLW  01
04842:  MOVLB  3
04844:  MOVWF  xA8
04846:  MOVLB  0
04848:  CALL   0E5E
....................          lcd_goto(1, 1);    
0484C:  MOVLW  01
0484E:  MOVLB  3
04850:  MOVWF  xA5
04852:  MOVWF  xA6
04854:  MOVLB  0
04856:  CALL   119A
....................          if (increment_mode == 1) { 
0485A:  MOVLB  3
0485C:  DECFSZ x03,W
0485E:  BRA    4872
....................             printf(lcd_out, "7.DRYRUN DLY NORM"); 
04860:  MOVLW  34
04862:  MOVWF  FF6
04864:  MOVLW  08
04866:  MOVWF  FF7
04868:  MOVLB  0
0486A:  CALL   125C
....................          } 
0486E:  BRA    4898
04870:  MOVLB  3
....................          else if (increment_mode == 10) { 
04872:  MOVF   x03,W
04874:  SUBLW  0A
04876:  BNZ   488A
....................             printf(lcd_out, "7.DRYRUN DLY FAST"); 
04878:  MOVLW  46
0487A:  MOVWF  FF6
0487C:  MOVLW  08
0487E:  MOVWF  FF7
04880:  MOVLB  0
04882:  CALL   125C
....................          } 
04886:  BRA    4898
04888:  MOVLB  3
....................          else { 
....................             printf(lcd_out, "7.DRYRUN DLY SUFA"); 
0488A:  MOVLW  58
0488C:  MOVWF  FF6
0488E:  MOVLW  08
04890:  MOVWF  FF7
04892:  MOVLB  0
04894:  CALL   125C
....................          } 
....................           
....................          lcd_goto(1, 2);    
04898:  MOVLW  01
0489A:  MOVLB  3
0489C:  MOVWF  xA5
0489E:  MOVLW  02
048A0:  MOVWF  xA6
048A2:  MOVLB  0
048A4:  CALL   119A
....................          printf(lcd_out, "   %ld sec   ", (long)dryrun_delay); 
048A8:  MOVLW  6A
048AA:  MOVWF  FF6
048AC:  MOVLW  08
048AE:  MOVWF  FF7
048B0:  MOVLW  03
048B2:  MOVLB  3
048B4:  MOVWF  xA5
048B6:  MOVLB  0
048B8:  CALL   18B8
048BC:  MOVLW  10
048BE:  MOVWF  FE9
048C0:  MOVFF  300,3A6
048C4:  MOVFF  2FF,3A5
048C8:  CALL   18E0
048CC:  MOVLW  70
048CE:  MOVWF  FF6
048D0:  MOVLW  08
048D2:  MOVWF  FF7
048D4:  MOVLW  07
048D6:  MOVLB  3
048D8:  MOVWF  xA5
048DA:  MOVLB  0
048DC:  CALL   18B8
....................           
....................          last_value = dryrun_delay; 
048E0:  MOVFF  300,305
048E4:  MOVFF  2FF,304
....................          last_mode = increment_mode; 
048E8:  MOVFF  303,306
....................          delay_ms(50); 
048EC:  MOVLW  32
048EE:  MOVLB  3
048F0:  MOVWF  xA9
048F2:  MOVLB  0
048F4:  CALL   0DA4
048F8:  MOVLB  3
....................       } 
....................        
....................       if (input(key1) == 0) { 
048FA:  BTFSC  F81.3
048FC:  BRA    4942
....................          delay_ms(50); 
048FE:  MOVLW  32
04900:  MOVWF  xA9
04902:  MOVLB  0
04904:  CALL   0DA4
....................          if (increment_mode == 1) increment_mode = 10; 
04908:  MOVLB  3
0490A:  DECFSZ x03,W
0490C:  BRA    4914
0490E:  MOVLW  0A
04910:  MOVWF  x03
04912:  BRA    4924
....................          else if (increment_mode == 10) increment_mode = 100; 
04914:  MOVF   x03,W
04916:  SUBLW  0A
04918:  BNZ   4920
0491A:  MOVLW  64
0491C:  MOVWF  x03
0491E:  BRA    4924
....................          else increment_mode = 1; 
04920:  MOVLW  01
04922:  MOVWF  x03
....................          last_mode = -1; 
04924:  SETF   x06
....................          int8 timeout = 50; 
04926:  MOVLW  32
04928:  MOVWF  x08
....................          while (input(key1) == 0 && timeout > 0) { 
0492A:  BTFSC  F81.3
0492C:  BRA    4942
0492E:  MOVF   x08,F
04930:  BZ    4942
....................             delay_ms(10); 
04932:  MOVLW  0A
04934:  MOVWF  xA9
04936:  MOVLB  0
04938:  CALL   0DA4
....................             timeout--; 
0493C:  MOVLB  3
0493E:  DECF   x08,F
04940:  BRA    492A
....................          } 
....................       } 
....................        
....................       if (input(key2) == 0) { 
04942:  BTFSC  F81.2
04944:  BRA    4974
....................          delay_ms(50); 
04946:  MOVLW  32
04948:  MOVWF  xA9
0494A:  MOVLB  0
0494C:  CALL   0DA4
....................          increment_mode = 1; 
04950:  MOVLW  01
04952:  MOVLB  3
04954:  MOVWF  x03
....................          last_mode = -1; 
04956:  SETF   x06
....................          int8 timeout = 50; 
04958:  MOVLW  32
0495A:  MOVWF  x09
....................          while (input(key2) == 0 && timeout > 0) { 
0495C:  BTFSC  F81.2
0495E:  BRA    4974
04960:  MOVF   x09,F
04962:  BZ    4974
....................             delay_ms(10); 
04964:  MOVLW  0A
04966:  MOVWF  xA9
04968:  MOVLB  0
0496A:  CALL   0DA4
....................             timeout--; 
0496E:  MOVLB  3
04970:  DECF   x09,F
04972:  BRA    495C
....................          } 
....................       } 
....................        
....................       if (input(ENCODER_A) == 0 && input(ENCODER_B) != 0 && !encoder_blocked) {  
04974:  BTFSC  F82.5
04976:  BRA    49E0
04978:  BSF    F92.4
0497A:  BTFSS  F80.4
0497C:  BRA    49E0
0497E:  MOVF   4D,F
04980:  BNZ   49E0
....................          delay_ms(5); 
04982:  MOVLW  05
04984:  MOVWF  xA9
04986:  MOVLB  0
04988:  CALL   0DA4
....................          if (dryrun_delay <= (999 - increment_mode)) { 
0498C:  MOVLW  E7
0498E:  BSF    FD8.0
04990:  MOVLB  3
04992:  SUBFWB x03,W
04994:  MOVWF  00
04996:  MOVLW  03
04998:  BTFSS  FD8.0
0499A:  DECF   FE8,F
0499C:  MOVWF  03
0499E:  MOVFF  00,01
049A2:  MOVF   x00,W
049A4:  SUBWF  03,W
049A6:  BNC   49CA
049A8:  BNZ   49BA
049AA:  MOVLB  2
049AC:  MOVF   xFF,W
049AE:  SUBWF  01,W
049B0:  BTFSC  FD8.0
049B2:  BRA    49B8
049B4:  MOVLB  3
049B6:  BRA    49CA
049B8:  MOVLB  3
....................             dryrun_delay += increment_mode; 
049BA:  MOVF   x03,W
049BC:  MOVLB  2
049BE:  ADDWF  xFF,F
049C0:  MOVLW  00
049C2:  MOVLB  3
049C4:  ADDWFC x00,F
....................             encoder_blocked = 0;  
049C6:  CLRF   4D
....................          } else { 
049C8:  BRA    49CE
....................             encoder_blocked = 1; 
049CA:  MOVLW  01
049CC:  MOVWF  4D
....................          } 
....................          delay_ms(40); 
049CE:  MOVLW  28
049D0:  MOVWF  xA9
049D2:  MOVLB  0
049D4:  CALL   0DA4
....................          while (input(ENCODER_A) == 0); 
049D8:  BTFSS  F82.5
049DA:  BRA    49D8
....................       } 
049DC:  BRA    4A30
049DE:  MOVLB  3
....................       else if (input(ENCODER_B) == 0 && input(ENCODER_A) != 0 && !encoder_blocked) {  
049E0:  BSF    F92.4
049E2:  BTFSC  F80.4
049E4:  BRA    4A32
049E6:  BTFSS  F82.5
049E8:  BRA    4A32
049EA:  MOVF   4D,F
049EC:  BNZ   4A32
....................          delay_ms(5); 
049EE:  MOVLW  05
049F0:  MOVWF  xA9
049F2:  MOVLB  0
049F4:  CALL   0DA4
....................          if (dryrun_delay >= increment_mode) { 
049F8:  MOVLB  3
049FA:  MOVF   x00,F
049FC:  BNZ   4A08
049FE:  MOVF   x03,W
04A00:  MOVLB  2
04A02:  SUBWF  xFF,W
04A04:  BNC   4A1A
04A06:  MOVLB  3
....................             dryrun_delay -= increment_mode; 
04A08:  MOVF   x03,W
04A0A:  MOVLB  2
04A0C:  SUBWF  xFF,F
04A0E:  MOVLW  00
04A10:  MOVLB  3
04A12:  SUBWFB x00,F
....................             encoder_blocked = 0; 
04A14:  CLRF   4D
....................          } else { 
04A16:  BRA    4A20
04A18:  MOVLB  2
....................             encoder_blocked = 1; 
04A1A:  MOVLW  01
04A1C:  MOVWF  4D
04A1E:  MOVLB  3
....................          } 
....................          delay_ms(40); 
04A20:  MOVLW  28
04A22:  MOVWF  xA9
04A24:  MOVLB  0
04A26:  CALL   0DA4
....................          while (input(ENCODER_B) == 0); 
04A2A:  BSF    F92.4
04A2C:  BTFSS  F80.4
04A2E:  BRA    4A2A
04A30:  MOVLB  3
....................       } 
....................       if (input(ENCODER_A) == 1 && input(ENCODER_B) == 1) { 
04A32:  BTFSS  F82.5
04A34:  BRA    4A3E
04A36:  BSF    F92.4
04A38:  BTFSS  F80.4
04A3A:  BRA    4A3E
....................          encoder_blocked = 0; 
04A3C:  CLRF   4D
....................       } 
....................        
....................       if (input(ENCODER_SW) == 0 && button_pressed_flag == 0) { 
04A3E:  BTFSC  F81.6
04A40:  BRA    4C4C
04A42:  BTFSC  x07.0
04A44:  BRA    4C4C
....................          delay_ms(20); 
04A46:  MOVLW  14
04A48:  MOVWF  xA9
04A4A:  MOVLB  0
04A4C:  CALL   0DA4
....................          if (input(ENCODER_SW) == 0) { 
04A50:  BTFSC  F81.6
04A52:  BRA    4C48
....................             button_pressed_flag = 1; 
04A54:  MOVLB  3
04A56:  BSF    x07.0
....................              
....................             if (dryrun_delay != original_delay) { 
04A58:  MOVF   x01,W
04A5A:  MOVLB  2
04A5C:  SUBWF  xFF,W
04A5E:  BNZ   4A6C
04A60:  MOVLB  3
04A62:  MOVF   x02,W
04A64:  SUBWF  x00,W
04A66:  BTFSC  FD8.2
04A68:  BRA    4BB6
04A6A:  MOVLB  2
....................                if (dryrun_delay > 999) dryrun_delay = 999; 
04A6C:  MOVLB  3
04A6E:  MOVF   x00,W
04A70:  SUBLW  02
04A72:  BC    4A94
04A74:  XORLW  FF
04A76:  BNZ   4A88
04A78:  MOVLB  2
04A7A:  MOVF   xFF,W
04A7C:  SUBLW  E7
04A7E:  BTFSS  FD8.0
04A80:  BRA    4A86
04A82:  MOVLB  3
04A84:  BRA    4A94
04A86:  MOVLB  3
04A88:  MOVLW  03
04A8A:  MOVWF  x00
04A8C:  MOVLW  E7
04A8E:  MOVLB  2
04A90:  MOVWF  xFF
04A92:  MOVLB  3
....................                if (dryrun_delay < 0) dryrun_delay = 0; 
....................                 
....................                write_eeprom(0x17, make8(dryrun_delay, 0)); 
04A94:  MOVFF  2FF,30A
04A98:  MOVF   FF2,W
04A9A:  MOVWF  00
04A9C:  BCF    FF2.7
04A9E:  CLRF   FAA
04AA0:  MOVLW  17
04AA2:  MOVWF  FA9
04AA4:  MOVFF  30A,FA8
04AA8:  BCF    FA6.6
04AAA:  BCF    FA6.7
04AAC:  BSF    FA6.2
04AAE:  MOVLB  F
04AB0:  MOVLW  55
04AB2:  MOVWF  FA7
04AB4:  MOVLW  AA
04AB6:  MOVWF  FA7
04AB8:  BSF    FA6.1
04ABA:  BTFSC  FA6.1
04ABC:  BRA    4ABA
04ABE:  BCF    FA6.2
04AC0:  MOVF   00,W
04AC2:  IORWF  FF2,F
....................                write_eeprom(0x18, make8(dryrun_delay, 1)); 
04AC4:  MOVFF  300,30A
04AC8:  MOVFF  FF2,00
04ACC:  BCF    FF2.7
04ACE:  CLRF   FAA
04AD0:  MOVLW  18
04AD2:  MOVWF  FA9
04AD4:  MOVFF  300,FA8
04AD8:  BCF    FA6.6
04ADA:  BCF    FA6.7
04ADC:  BSF    FA6.2
04ADE:  MOVLW  55
04AE0:  MOVWF  FA7
04AE2:  MOVLW  AA
04AE4:  MOVWF  FA7
04AE6:  BSF    FA6.1
04AE8:  BTFSC  FA6.1
04AEA:  BRA    4AE8
04AEC:  BCF    FA6.2
04AEE:  MOVF   00,W
04AF0:  IORWF  FF2,F
....................                 
....................                lcd_cmd(LCD_CLEAR); 
04AF2:  MOVLW  01
04AF4:  MOVLB  3
04AF6:  MOVWF  xA8
04AF8:  MOVLB  0
04AFA:  CALL   0E5E
....................                lcd_goto(1, 1);  
04AFE:  MOVLW  01
04B00:  MOVLB  3
04B02:  MOVWF  xA5
04B04:  MOVWF  xA6
04B06:  MOVLB  0
04B08:  CALL   119A
....................                printf(lcd_out, " DELAY SAVED!"); 
04B0C:  MOVLW  78
04B0E:  MOVWF  FF6
04B10:  MOVLW  08
04B12:  MOVWF  FF7
04B14:  CALL   125C
....................                lcd_goto(1, 2);  
04B18:  MOVLW  01
04B1A:  MOVLB  3
04B1C:  MOVWF  xA5
04B1E:  MOVLW  02
04B20:  MOVWF  xA6
04B22:  MOVLB  0
04B24:  CALL   119A
....................                printf(lcd_out, "   %ld sec   ", (long)dryrun_delay); 
04B28:  MOVLW  86
04B2A:  MOVWF  FF6
04B2C:  MOVLW  08
04B2E:  MOVWF  FF7
04B30:  MOVLW  03
04B32:  MOVLB  3
04B34:  MOVWF  xA5
04B36:  MOVLB  0
04B38:  CALL   18B8
04B3C:  MOVLW  10
04B3E:  MOVWF  FE9
04B40:  MOVFF  300,3A6
04B44:  MOVFF  2FF,3A5
04B48:  CALL   18E0
04B4C:  MOVLW  8C
04B4E:  MOVWF  FF6
04B50:  MOVLW  08
04B52:  MOVWF  FF7
04B54:  MOVLW  07
04B56:  MOVLB  3
04B58:  MOVWF  xA5
04B5A:  MOVLB  0
04B5C:  CALL   18B8
....................                 
....................                while (input(ENCODER_SW) == 0) { 
04B60:  BTFSC  F81.6
04B62:  BRA    4B72
....................                   delay_ms(10); 
04B64:  MOVLW  0A
04B66:  MOVLB  3
04B68:  MOVWF  xA9
04B6A:  MOVLB  0
04B6C:  CALL   0DA4
04B70:  BRA    4B60
....................                } 
....................                // ===== CHANGED: Press ENTER to proceed ===== 
....................                lcd_goto(1, 2); 
04B72:  MOVLW  01
04B74:  MOVLB  3
04B76:  MOVWF  xA5
04B78:  MOVLW  02
04B7A:  MOVWF  xA6
04B7C:  MOVLB  0
04B7E:  CALL   119A
....................                printf(lcd_out, "Press ENTER     "); 
04B82:  MOVLW  94
04B84:  MOVWF  FF6
04B86:  MOVLW  08
04B88:  MOVWF  FF7
04B8A:  CALL   125C
....................                while(input(ENCODER_SW) == 1); 
04B8E:  BTFSC  F81.6
04B90:  BRA    4B8E
....................                delay_ms(20); 
04B92:  MOVLW  14
04B94:  MOVLB  3
04B96:  MOVWF  xA9
04B98:  MOVLB  0
04B9A:  CALL   0DA4
....................                while(input(ENCODER_SW) == 0); 
04B9E:  BTFSS  F81.6
04BA0:  BRA    4B9E
....................                delay_ms(50); 
04BA2:  MOVLW  32
04BA4:  MOVLB  3
04BA6:  MOVWF  xA9
04BA8:  MOVLB  0
04BAA:  CALL   0DA4
....................                // ===== END CHANGE ===== 
....................                advance_to_next_menu(); 
04BAE:  CALL   2244
....................             } 
04BB2:  BRA    4C2C
04BB4:  MOVLB  3
....................             else { 
....................                while (input(ENCODER_SW) == 0) { 
04BB6:  BTFSC  F81.6
04BB8:  BRA    4BC8
....................                   delay_ms(10); 
04BBA:  MOVLW  0A
04BBC:  MOVWF  xA9
04BBE:  MOVLB  0
04BC0:  CALL   0DA4
04BC4:  MOVLB  3
04BC6:  BRA    4BB6
....................                } 
....................                // ===== CHANGED: No Change + Press ENTER ===== 
....................                lcd_cmd(LCD_CLEAR); 
04BC8:  MOVLW  01
04BCA:  MOVWF  xA8
04BCC:  MOVLB  0
04BCE:  CALL   0E5E
....................                lcd_goto(1, 1); 
04BD2:  MOVLW  01
04BD4:  MOVLB  3
04BD6:  MOVWF  xA5
04BD8:  MOVWF  xA6
04BDA:  MOVLB  0
04BDC:  CALL   119A
....................                printf(lcd_out, "No Change"); 
04BE0:  MOVLW  A6
04BE2:  MOVWF  FF6
04BE4:  MOVLW  08
04BE6:  MOVWF  FF7
04BE8:  CALL   125C
....................                lcd_goto(1, 2); 
04BEC:  MOVLW  01
04BEE:  MOVLB  3
04BF0:  MOVWF  xA5
04BF2:  MOVLW  02
04BF4:  MOVWF  xA6
04BF6:  MOVLB  0
04BF8:  CALL   119A
....................                printf(lcd_out, "Press ENTER"); 
04BFC:  MOVLW  B0
04BFE:  MOVWF  FF6
04C00:  MOVLW  08
04C02:  MOVWF  FF7
04C04:  CALL   125C
....................                while(input(ENCODER_SW) == 1); 
04C08:  BTFSC  F81.6
04C0A:  BRA    4C08
....................                delay_ms(20); 
04C0C:  MOVLW  14
04C0E:  MOVLB  3
04C10:  MOVWF  xA9
04C12:  MOVLB  0
04C14:  CALL   0DA4
....................                while(input(ENCODER_SW) == 0); 
04C18:  BTFSS  F81.6
04C1A:  BRA    4C18
....................                delay_ms(50); 
04C1C:  MOVLW  32
04C1E:  MOVLB  3
04C20:  MOVWF  xA9
04C22:  MOVLB  0
04C24:  CALL   0DA4
....................                // ===== END CHANGE ===== 
....................                advance_to_next_menu(); 
04C28:  CALL   2244
....................             } 
....................              
....................             lcd_cmd(LCD_CLEAR); 
04C2C:  MOVLW  01
04C2E:  MOVLB  3
04C30:  MOVWF  xA8
04C32:  MOVLB  0
04C34:  CALL   0E5E
....................             delay_ms(100); 
04C38:  MOVLW  64
04C3A:  MOVLB  3
04C3C:  MOVWF  xA9
04C3E:  MOVLB  0
04C40:  CALL   0DA4
....................             break; 
04C44:  BRA    4C66
....................          } 
04C46:  BRA    4C4E
....................          else { 
....................             button_pressed_flag = 0; 
04C48:  MOVLB  3
04C4A:  BCF    x07.0
04C4C:  MOVLB  0
....................          } 
....................       } 
....................        
....................       if (input(ENCODER_SW) != 0) { 
04C4E:  BTFSS  F81.6
04C50:  BRA    4C58
....................          button_pressed_flag = 0; 
04C52:  MOVLB  3
04C54:  BCF    x07.0
04C56:  MOVLB  0
....................       } 
....................        
....................       delay_ms(1); 
04C58:  MOVLW  01
04C5A:  MOVLB  3
04C5C:  MOVWF  xA9
04C5E:  MOVLB  0
04C60:  CALL   0DA4
04C64:  BRA    47FA
....................    } 
04C66:  GOTO   741A (RETURN)
.................... } 
....................  
.................... void handle_dryrun_restart() { 
....................    delay_ms(50); 
04C6A:  MOVLW  32
04C6C:  MOVLB  3
04C6E:  MOVWF  xA9
04C70:  MOVLB  0
04C72:  CALL   0DA4
....................    while (input(ENCODER_SW) == 0); 
04C76:  BTFSS  F81.6
04C78:  BRA    4C76
....................     
....................    int16 restart_delay = make16(read_eeprom(0x1B), read_eeprom(0x1A)); 
04C7A:  MOVFF  FF2,30A
04C7E:  BCF    FF2.7
04C80:  CLRF   FAA
04C82:  MOVLW  1B
04C84:  MOVWF  FA9
04C86:  BCF    FA6.6
04C88:  BCF    FA6.7
04C8A:  BSF    FA6.0
04C8C:  MOVF   FA8,W
04C8E:  MOVLB  3
04C90:  BTFSC  x0A.7
04C92:  BSF    FF2.7
04C94:  MOVWF  x0B
04C96:  MOVFF  FF2,30C
04C9A:  BCF    FF2.7
04C9C:  CLRF   FAA
04C9E:  MOVLW  1A
04CA0:  MOVWF  FA9
04CA2:  BCF    FA6.6
04CA4:  BCF    FA6.7
04CA6:  BSF    FA6.0
04CA8:  MOVF   FA8,W
04CAA:  BTFSC  x0C.7
04CAC:  BSF    FF2.7
04CAE:  MOVWF  x0D
04CB0:  MOVFF  30B,300
04CB4:  MOVFF  30D,2FF
....................    if (restart_delay > 999) restart_delay = 999; 
04CB8:  MOVF   x00,W
04CBA:  SUBLW  02
04CBC:  BC    4CDE
04CBE:  XORLW  FF
04CC0:  BNZ   4CD2
04CC2:  MOVLB  2
04CC4:  MOVF   xFF,W
04CC6:  SUBLW  E7
04CC8:  BTFSS  FD8.0
04CCA:  BRA    4CD0
04CCC:  MOVLB  3
04CCE:  BRA    4CDE
04CD0:  MOVLB  3
04CD2:  MOVLW  03
04CD4:  MOVWF  x00
04CD6:  MOVLW  E7
04CD8:  MOVLB  2
04CDA:  MOVWF  xFF
04CDC:  MOVLB  3
....................    if (restart_delay < 0)   restart_delay = 0; 
....................     
....................    int16 original_delay = restart_delay; 
....................    int8 increment_mode = 1; 
....................    int16 last_value = -1; 
....................    int8 last_mode = -1; 
....................    int1 button_pressed_flag = 0; 
04CDE:  MOVFF  300,302
04CE2:  MOVFF  2FF,301
04CE6:  MOVLW  01
04CE8:  MOVWF  x03
04CEA:  SETF   x05
04CEC:  SETF   x04
04CEE:  SETF   x06
04CF0:  BCF    x07.0
....................     
....................    lcd_cmd(LCD_CLEAR);  
04CF2:  MOVWF  xA8
04CF4:  MOVLB  0
04CF6:  CALL   0E5E
....................    delay_ms(100); 
04CFA:  MOVLW  64
04CFC:  MOVLB  3
04CFE:  MOVWF  xA9
04D00:  MOVLB  0
04D02:  CALL   0DA4
....................     
....................    while (1) { 
....................       if (restart_delay > 999) restart_delay = 999; 
04D06:  MOVLB  3
04D08:  MOVF   x00,W
04D0A:  SUBLW  02
04D0C:  BC    4D2E
04D0E:  XORLW  FF
04D10:  BNZ   4D22
04D12:  MOVLB  2
04D14:  MOVF   xFF,W
04D16:  SUBLW  E7
04D18:  BTFSS  FD8.0
04D1A:  BRA    4D20
04D1C:  MOVLB  3
04D1E:  BRA    4D2E
04D20:  MOVLB  3
04D22:  MOVLW  03
04D24:  MOVWF  x00
04D26:  MOVLW  E7
04D28:  MOVLB  2
04D2A:  MOVWF  xFF
04D2C:  MOVLB  3
....................       if (restart_delay < 0) restart_delay = 0; 
....................        
....................       if (restart_delay != last_value || increment_mode != last_mode) { 
04D2E:  MOVF   x04,W
04D30:  MOVLB  2
04D32:  SUBWF  xFF,W
04D34:  BNZ   4D4C
04D36:  MOVLB  3
04D38:  MOVF   x05,W
04D3A:  SUBWF  x00,W
04D3C:  BTFSC  FD8.2
04D3E:  BRA    4D44
04D40:  MOVLB  2
04D42:  BRA    4D4C
04D44:  MOVF   x06,W
04D46:  SUBWF  x03,W
04D48:  BZ    4E06
04D4A:  MOVLB  2
....................          lcd_cmd(LCD_CLEAR); 
04D4C:  MOVLW  01
04D4E:  MOVLB  3
04D50:  MOVWF  xA8
04D52:  MOVLB  0
04D54:  CALL   0E5E
....................          lcd_goto(1, 1);  
04D58:  MOVLW  01
04D5A:  MOVLB  3
04D5C:  MOVWF  xA5
04D5E:  MOVWF  xA6
04D60:  MOVLB  0
04D62:  CALL   119A
....................          if (increment_mode == 1) { 
04D66:  MOVLB  3
04D68:  DECFSZ x03,W
04D6A:  BRA    4D7E
....................             printf(lcd_out, "8.DRYRUN RST NORM"); 
04D6C:  MOVLW  BC
04D6E:  MOVWF  FF6
04D70:  MOVLW  08
04D72:  MOVWF  FF7
04D74:  MOVLB  0
04D76:  CALL   125C
....................          } 
04D7A:  BRA    4DA4
04D7C:  MOVLB  3
....................          else if (increment_mode == 10) { 
04D7E:  MOVF   x03,W
04D80:  SUBLW  0A
04D82:  BNZ   4D96
....................             printf(lcd_out, "8.DRYRUN RST FAST"); 
04D84:  MOVLW  CE
04D86:  MOVWF  FF6
04D88:  MOVLW  08
04D8A:  MOVWF  FF7
04D8C:  MOVLB  0
04D8E:  CALL   125C
....................          } 
04D92:  BRA    4DA4
04D94:  MOVLB  3
....................          else { 
....................             printf(lcd_out, "8.DRYRUN RST SUFA"); 
04D96:  MOVLW  E0
04D98:  MOVWF  FF6
04D9A:  MOVLW  08
04D9C:  MOVWF  FF7
04D9E:  MOVLB  0
04DA0:  CALL   125C
....................          } 
....................           
....................          lcd_goto(1, 2);  
04DA4:  MOVLW  01
04DA6:  MOVLB  3
04DA8:  MOVWF  xA5
04DAA:  MOVLW  02
04DAC:  MOVWF  xA6
04DAE:  MOVLB  0
04DB0:  CALL   119A
....................          printf(lcd_out, "   %ld sec   ", (long)restart_delay); 
04DB4:  MOVLW  F2
04DB6:  MOVWF  FF6
04DB8:  MOVLW  08
04DBA:  MOVWF  FF7
04DBC:  MOVLW  03
04DBE:  MOVLB  3
04DC0:  MOVWF  xA5
04DC2:  MOVLB  0
04DC4:  CALL   18B8
04DC8:  MOVLW  10
04DCA:  MOVWF  FE9
04DCC:  MOVFF  300,3A6
04DD0:  MOVFF  2FF,3A5
04DD4:  CALL   18E0
04DD8:  MOVLW  F8
04DDA:  MOVWF  FF6
04DDC:  MOVLW  08
04DDE:  MOVWF  FF7
04DE0:  MOVLW  07
04DE2:  MOVLB  3
04DE4:  MOVWF  xA5
04DE6:  MOVLB  0
04DE8:  CALL   18B8
....................           
....................          last_value = restart_delay; 
04DEC:  MOVFF  300,305
04DF0:  MOVFF  2FF,304
....................          last_mode = increment_mode; 
04DF4:  MOVFF  303,306
....................          delay_ms(50); 
04DF8:  MOVLW  32
04DFA:  MOVLB  3
04DFC:  MOVWF  xA9
04DFE:  MOVLB  0
04E00:  CALL   0DA4
04E04:  MOVLB  3
....................       } 
....................        
....................       if (input(KEY1) == 0) { 
04E06:  BTFSC  F81.3
04E08:  BRA    4E4E
....................          delay_ms(50); 
04E0A:  MOVLW  32
04E0C:  MOVWF  xA9
04E0E:  MOVLB  0
04E10:  CALL   0DA4
....................          if (increment_mode == 1) increment_mode = 10; 
04E14:  MOVLB  3
04E16:  DECFSZ x03,W
04E18:  BRA    4E20
04E1A:  MOVLW  0A
04E1C:  MOVWF  x03
04E1E:  BRA    4E30
....................          else if (increment_mode == 10) increment_mode = 100; 
04E20:  MOVF   x03,W
04E22:  SUBLW  0A
04E24:  BNZ   4E2C
04E26:  MOVLW  64
04E28:  MOVWF  x03
04E2A:  BRA    4E30
....................          else increment_mode = 1; 
04E2C:  MOVLW  01
04E2E:  MOVWF  x03
....................          last_mode = -1; 
04E30:  SETF   x06
....................          int8 timeout = 50; 
04E32:  MOVLW  32
04E34:  MOVWF  x08
....................          while (input(key1) == 0 && timeout > 0) { 
04E36:  BTFSC  F81.3
04E38:  BRA    4E4E
04E3A:  MOVF   x08,F
04E3C:  BZ    4E4E
....................             delay_ms(10); 
04E3E:  MOVLW  0A
04E40:  MOVWF  xA9
04E42:  MOVLB  0
04E44:  CALL   0DA4
....................             timeout--; 
04E48:  MOVLB  3
04E4A:  DECF   x08,F
04E4C:  BRA    4E36
....................          } 
....................       } 
....................        
....................       if (input(KEY2) == 0) { 
04E4E:  BTFSC  F81.2
04E50:  BRA    4E80
....................          delay_ms(50); 
04E52:  MOVLW  32
04E54:  MOVWF  xA9
04E56:  MOVLB  0
04E58:  CALL   0DA4
....................          increment_mode = 1; 
04E5C:  MOVLW  01
04E5E:  MOVLB  3
04E60:  MOVWF  x03
....................          last_mode = -1; 
04E62:  SETF   x06
....................          int8 timeout = 50; 
04E64:  MOVLW  32
04E66:  MOVWF  x09
....................          while (input(key2) == 0 && timeout > 0) { 
04E68:  BTFSC  F81.2
04E6A:  BRA    4E80
04E6C:  MOVF   x09,F
04E6E:  BZ    4E80
....................             delay_ms(10); 
04E70:  MOVLW  0A
04E72:  MOVWF  xA9
04E74:  MOVLB  0
04E76:  CALL   0DA4
....................             timeout--; 
04E7A:  MOVLB  3
04E7C:  DECF   x09,F
04E7E:  BRA    4E68
....................          }   
....................       } 
....................        
....................       if (input(ENCODER_A) == 0 && input(ENCODER_B) != 0 && !encoder_blocked) {  
04E80:  BTFSC  F82.5
04E82:  BRA    4EEC
04E84:  BSF    F92.4
04E86:  BTFSS  F80.4
04E88:  BRA    4EEC
04E8A:  MOVF   4D,F
04E8C:  BNZ   4EEC
....................          delay_ms(5); 
04E8E:  MOVLW  05
04E90:  MOVWF  xA9
04E92:  MOVLB  0
04E94:  CALL   0DA4
....................          if (restart_delay <= (999 - increment_mode)) { 
04E98:  MOVLW  E7
04E9A:  BSF    FD8.0
04E9C:  MOVLB  3
04E9E:  SUBFWB x03,W
04EA0:  MOVWF  00
04EA2:  MOVLW  03
04EA4:  BTFSS  FD8.0
04EA6:  DECF   FE8,F
04EA8:  MOVWF  03
04EAA:  MOVFF  00,01
04EAE:  MOVF   x00,W
04EB0:  SUBWF  03,W
04EB2:  BNC   4ED6
04EB4:  BNZ   4EC6
04EB6:  MOVLB  2
04EB8:  MOVF   xFF,W
04EBA:  SUBWF  01,W
04EBC:  BTFSC  FD8.0
04EBE:  BRA    4EC4
04EC0:  MOVLB  3
04EC2:  BRA    4ED6
04EC4:  MOVLB  3
....................             restart_delay += increment_mode; 
04EC6:  MOVF   x03,W
04EC8:  MOVLB  2
04ECA:  ADDWF  xFF,F
04ECC:  MOVLW  00
04ECE:  MOVLB  3
04ED0:  ADDWFC x00,F
....................             encoder_blocked = 0; 
04ED2:  CLRF   4D
....................          } else { 
04ED4:  BRA    4EDA
....................             encoder_blocked = 1; 
04ED6:  MOVLW  01
04ED8:  MOVWF  4D
....................          } 
....................          delay_ms(40); 
04EDA:  MOVLW  28
04EDC:  MOVWF  xA9
04EDE:  MOVLB  0
04EE0:  CALL   0DA4
....................          while (input(ENCODER_A) == 0); 
04EE4:  BTFSS  F82.5
04EE6:  BRA    4EE4
....................       } 
04EE8:  BRA    4F3C
04EEA:  MOVLB  3
....................       else if (input(ENCODER_B) == 0 && input(ENCODER_A) != 0 && !encoder_blocked) {  
04EEC:  BSF    F92.4
04EEE:  BTFSC  F80.4
04EF0:  BRA    4F3E
04EF2:  BTFSS  F82.5
04EF4:  BRA    4F3E
04EF6:  MOVF   4D,F
04EF8:  BNZ   4F3E
....................          delay_ms(5); 
04EFA:  MOVLW  05
04EFC:  MOVWF  xA9
04EFE:  MOVLB  0
04F00:  CALL   0DA4
....................          if (restart_delay >= increment_mode) { 
04F04:  MOVLB  3
04F06:  MOVF   x00,F
04F08:  BNZ   4F14
04F0A:  MOVF   x03,W
04F0C:  MOVLB  2
04F0E:  SUBWF  xFF,W
04F10:  BNC   4F26
04F12:  MOVLB  3
....................             restart_delay -= increment_mode; 
04F14:  MOVF   x03,W
04F16:  MOVLB  2
04F18:  SUBWF  xFF,F
04F1A:  MOVLW  00
04F1C:  MOVLB  3
04F1E:  SUBWFB x00,F
....................             encoder_blocked = 0; 
04F20:  CLRF   4D
....................          } else { 
04F22:  BRA    4F2C
04F24:  MOVLB  2
....................             encoder_blocked = 1; 
04F26:  MOVLW  01
04F28:  MOVWF  4D
04F2A:  MOVLB  3
....................          } 
....................          delay_ms(40); 
04F2C:  MOVLW  28
04F2E:  MOVWF  xA9
04F30:  MOVLB  0
04F32:  CALL   0DA4
....................          while (input(ENCODER_B) == 0); 
04F36:  BSF    F92.4
04F38:  BTFSS  F80.4
04F3A:  BRA    4F36
04F3C:  MOVLB  3
....................       } 
....................       if (input(ENCODER_A) == 1 && input(ENCODER_B) == 1) { 
04F3E:  BTFSS  F82.5
04F40:  BRA    4F4A
04F42:  BSF    F92.4
04F44:  BTFSS  F80.4
04F46:  BRA    4F4A
....................          encoder_blocked = 0; 
04F48:  CLRF   4D
....................       } 
....................        
....................       if (input(ENCODER_SW) == 0 && button_pressed_flag == 0) { 
04F4A:  BTFSC  F81.6
04F4C:  BRA    5158
04F4E:  BTFSC  x07.0
04F50:  BRA    5158
....................          delay_ms(20); 
04F52:  MOVLW  14
04F54:  MOVWF  xA9
04F56:  MOVLB  0
04F58:  CALL   0DA4
....................          if (input(ENCODER_SW) == 0) { 
04F5C:  BTFSC  F81.6
04F5E:  BRA    5154
....................             button_pressed_flag = 1; 
04F60:  MOVLB  3
04F62:  BSF    x07.0
....................              
....................             if (restart_delay != original_delay) { 
04F64:  MOVF   x01,W
04F66:  MOVLB  2
04F68:  SUBWF  xFF,W
04F6A:  BNZ   4F78
04F6C:  MOVLB  3
04F6E:  MOVF   x02,W
04F70:  SUBWF  x00,W
04F72:  BTFSC  FD8.2
04F74:  BRA    50C2
04F76:  MOVLB  2
....................                if (restart_delay > 999) restart_delay = 999; 
04F78:  MOVLB  3
04F7A:  MOVF   x00,W
04F7C:  SUBLW  02
04F7E:  BC    4FA0
04F80:  XORLW  FF
04F82:  BNZ   4F94
04F84:  MOVLB  2
04F86:  MOVF   xFF,W
04F88:  SUBLW  E7
04F8A:  BTFSS  FD8.0
04F8C:  BRA    4F92
04F8E:  MOVLB  3
04F90:  BRA    4FA0
04F92:  MOVLB  3
04F94:  MOVLW  03
04F96:  MOVWF  x00
04F98:  MOVLW  E7
04F9A:  MOVLB  2
04F9C:  MOVWF  xFF
04F9E:  MOVLB  3
....................                if (restart_delay < 0) restart_delay = 0; 
....................                 
....................                write_eeprom(0x1A, make8(restart_delay, 0)); 
04FA0:  MOVFF  2FF,30A
04FA4:  MOVF   FF2,W
04FA6:  MOVWF  00
04FA8:  BCF    FF2.7
04FAA:  CLRF   FAA
04FAC:  MOVLW  1A
04FAE:  MOVWF  FA9
04FB0:  MOVFF  30A,FA8
04FB4:  BCF    FA6.6
04FB6:  BCF    FA6.7
04FB8:  BSF    FA6.2
04FBA:  MOVLB  F
04FBC:  MOVLW  55
04FBE:  MOVWF  FA7
04FC0:  MOVLW  AA
04FC2:  MOVWF  FA7
04FC4:  BSF    FA6.1
04FC6:  BTFSC  FA6.1
04FC8:  BRA    4FC6
04FCA:  BCF    FA6.2
04FCC:  MOVF   00,W
04FCE:  IORWF  FF2,F
....................                write_eeprom(0x1B, make8(restart_delay, 1)); 
04FD0:  MOVFF  300,30A
04FD4:  MOVFF  FF2,00
04FD8:  BCF    FF2.7
04FDA:  CLRF   FAA
04FDC:  MOVLW  1B
04FDE:  MOVWF  FA9
04FE0:  MOVFF  300,FA8
04FE4:  BCF    FA6.6
04FE6:  BCF    FA6.7
04FE8:  BSF    FA6.2
04FEA:  MOVLW  55
04FEC:  MOVWF  FA7
04FEE:  MOVLW  AA
04FF0:  MOVWF  FA7
04FF2:  BSF    FA6.1
04FF4:  BTFSC  FA6.1
04FF6:  BRA    4FF4
04FF8:  BCF    FA6.2
04FFA:  MOVF   00,W
04FFC:  IORWF  FF2,F
....................                 
....................                lcd_cmd(LCD_CLEAR); 
04FFE:  MOVLW  01
05000:  MOVLB  3
05002:  MOVWF  xA8
05004:  MOVLB  0
05006:  CALL   0E5E
....................                lcd_goto(1, 1);  
0500A:  MOVLW  01
0500C:  MOVLB  3
0500E:  MOVWF  xA5
05010:  MOVWF  xA6
05012:  MOVLB  0
05014:  CALL   119A
....................                printf(lcd_out, " DELAY SAVED!   "); 
05018:  MOVLW  00
0501A:  MOVWF  FF6
0501C:  MOVLW  09
0501E:  MOVWF  FF7
05020:  CALL   125C
....................                lcd_goto(1, 2);  
05024:  MOVLW  01
05026:  MOVLB  3
05028:  MOVWF  xA5
0502A:  MOVLW  02
0502C:  MOVWF  xA6
0502E:  MOVLB  0
05030:  CALL   119A
....................                printf(lcd_out, "   %ld sec   ", (long)restart_delay); 
05034:  MOVLW  12
05036:  MOVWF  FF6
05038:  MOVLW  09
0503A:  MOVWF  FF7
0503C:  MOVLW  03
0503E:  MOVLB  3
05040:  MOVWF  xA5
05042:  MOVLB  0
05044:  CALL   18B8
05048:  MOVLW  10
0504A:  MOVWF  FE9
0504C:  MOVFF  300,3A6
05050:  MOVFF  2FF,3A5
05054:  CALL   18E0
05058:  MOVLW  18
0505A:  MOVWF  FF6
0505C:  MOVLW  09
0505E:  MOVWF  FF7
05060:  MOVLW  07
05062:  MOVLB  3
05064:  MOVWF  xA5
05066:  MOVLB  0
05068:  CALL   18B8
....................                 
....................                while (input(ENCODER_SW) == 0) { 
0506C:  BTFSC  F81.6
0506E:  BRA    507E
....................                   delay_ms(10); 
05070:  MOVLW  0A
05072:  MOVLB  3
05074:  MOVWF  xA9
05076:  MOVLB  0
05078:  CALL   0DA4
0507C:  BRA    506C
....................                } 
....................                // ===== CHANGED: Press ENTER to proceed ===== 
....................                lcd_goto(1, 2); 
0507E:  MOVLW  01
05080:  MOVLB  3
05082:  MOVWF  xA5
05084:  MOVLW  02
05086:  MOVWF  xA6
05088:  MOVLB  0
0508A:  CALL   119A
....................                printf(lcd_out, "Press ENTER     "); 
0508E:  MOVLW  20
05090:  MOVWF  FF6
05092:  MOVLW  09
05094:  MOVWF  FF7
05096:  CALL   125C
....................                while(input(ENCODER_SW) == 1); 
0509A:  BTFSC  F81.6
0509C:  BRA    509A
....................                delay_ms(20); 
0509E:  MOVLW  14
050A0:  MOVLB  3
050A2:  MOVWF  xA9
050A4:  MOVLB  0
050A6:  CALL   0DA4
....................                while(input(ENCODER_SW) == 0); 
050AA:  BTFSS  F81.6
050AC:  BRA    50AA
....................                delay_ms(50); 
050AE:  MOVLW  32
050B0:  MOVLB  3
050B2:  MOVWF  xA9
050B4:  MOVLB  0
050B6:  CALL   0DA4
....................                // ===== END CHANGE ===== 
....................                advance_to_next_menu(); 
050BA:  CALL   2244
....................             } 
050BE:  BRA    5138
050C0:  MOVLB  3
....................             else { 
....................                while (input(ENCODER_SW) == 0) { 
050C2:  BTFSC  F81.6
050C4:  BRA    50D4
....................                   delay_ms(10); 
050C6:  MOVLW  0A
050C8:  MOVWF  xA9
050CA:  MOVLB  0
050CC:  CALL   0DA4
050D0:  MOVLB  3
050D2:  BRA    50C2
....................                } 
....................                // ===== CHANGED: No Change + Press ENTER ===== 
....................                lcd_cmd(LCD_CLEAR); 
050D4:  MOVLW  01
050D6:  MOVWF  xA8
050D8:  MOVLB  0
050DA:  CALL   0E5E
....................                lcd_goto(1, 1); 
050DE:  MOVLW  01
050E0:  MOVLB  3
050E2:  MOVWF  xA5
050E4:  MOVWF  xA6
050E6:  MOVLB  0
050E8:  CALL   119A
....................                printf(lcd_out, "No Change"); 
050EC:  MOVLW  32
050EE:  MOVWF  FF6
050F0:  MOVLW  09
050F2:  MOVWF  FF7
050F4:  CALL   125C
....................                lcd_goto(1, 2); 
050F8:  MOVLW  01
050FA:  MOVLB  3
050FC:  MOVWF  xA5
050FE:  MOVLW  02
05100:  MOVWF  xA6
05102:  MOVLB  0
05104:  CALL   119A
....................                printf(lcd_out, "Press ENTER"); 
05108:  MOVLW  3C
0510A:  MOVWF  FF6
0510C:  MOVLW  09
0510E:  MOVWF  FF7
05110:  CALL   125C
....................                while(input(ENCODER_SW) == 1); 
05114:  BTFSC  F81.6
05116:  BRA    5114
....................                delay_ms(20); 
05118:  MOVLW  14
0511A:  MOVLB  3
0511C:  MOVWF  xA9
0511E:  MOVLB  0
05120:  CALL   0DA4
....................                while(input(ENCODER_SW) == 0); 
05124:  BTFSS  F81.6
05126:  BRA    5124
....................                delay_ms(50); 
05128:  MOVLW  32
0512A:  MOVLB  3
0512C:  MOVWF  xA9
0512E:  MOVLB  0
05130:  CALL   0DA4
....................                // ===== END CHANGE ===== 
....................                advance_to_next_menu(); 
05134:  CALL   2244
....................             } 
....................              
....................             lcd_cmd(LCD_CLEAR);  
05138:  MOVLW  01
0513A:  MOVLB  3
0513C:  MOVWF  xA8
0513E:  MOVLB  0
05140:  CALL   0E5E
....................             delay_ms(100); 
05144:  MOVLW  64
05146:  MOVLB  3
05148:  MOVWF  xA9
0514A:  MOVLB  0
0514C:  CALL   0DA4
....................             break; 
05150:  BRA    5172
....................          } 
05152:  BRA    515A
....................          else { 
....................             button_pressed_flag = 0; 
05154:  MOVLB  3
05156:  BCF    x07.0
05158:  MOVLB  0
....................          } 
....................       } 
....................        
....................       if (input(ENCODER_SW) != 0) { 
0515A:  BTFSS  F81.6
0515C:  BRA    5164
....................          button_pressed_flag = 0; 
0515E:  MOVLB  3
05160:  BCF    x07.0
05162:  MOVLB  0
....................       } 
....................        
....................       delay_ms(1); 
05164:  MOVLW  01
05166:  MOVLB  3
05168:  MOVWF  xA9
0516A:  MOVLB  0
0516C:  CALL   0DA4
05170:  BRA    4D06
....................    }   
05172:  GOTO   7426 (RETURN)
.................... } 
....................  
.................... void handle_dryrun_trip() { 
....................    delay_ms(50); 
05176:  MOVLW  32
05178:  MOVLB  3
0517A:  MOVWF  xA9
0517C:  MOVLB  0
0517E:  CALL   0DA4
....................    while (input(ENCODER_SW) == 0); 
05182:  BTFSS  F81.6
05184:  BRA    5182
....................     
....................    int16 trip_current = make16(read_eeprom(0x1E), read_eeprom(0x1D)); 
05186:  MOVFF  FF2,30A
0518A:  BCF    FF2.7
0518C:  CLRF   FAA
0518E:  MOVLW  1E
05190:  MOVWF  FA9
05192:  BCF    FA6.6
05194:  BCF    FA6.7
05196:  BSF    FA6.0
05198:  MOVF   FA8,W
0519A:  MOVLB  3
0519C:  BTFSC  x0A.7
0519E:  BSF    FF2.7
051A0:  MOVWF  x0B
051A2:  MOVFF  FF2,30C
051A6:  BCF    FF2.7
051A8:  CLRF   FAA
051AA:  MOVLW  1D
051AC:  MOVWF  FA9
051AE:  BCF    FA6.6
051B0:  BCF    FA6.7
051B2:  BSF    FA6.0
051B4:  MOVF   FA8,W
051B6:  BTFSC  x0C.7
051B8:  BSF    FF2.7
051BA:  MOVWF  x0D
051BC:  MOVFF  30B,300
051C0:  MOVFF  30D,2FF
....................    if (trip_current > 100) trip_current = 100; 
051C4:  MOVF   x00,F
051C6:  BNZ   51D2
051C8:  MOVLB  2
051CA:  MOVF   xFF,W
051CC:  SUBLW  64
051CE:  BC    51DA
051D0:  MOVLB  3
051D2:  CLRF   x00
051D4:  MOVLW  64
051D6:  MOVLB  2
051D8:  MOVWF  xFF
....................    if (trip_current < 0)   trip_current = 0; 
....................     
....................    int16 original_current = trip_current; 
....................    int8 increment_mode = 1; 
....................    int16 last_value = -1; 
....................    int8 last_mode = -1; 
....................    int1 button_pressed_flag = 0; 
051DA:  MOVFF  300,302
051DE:  MOVFF  2FF,301
051E2:  MOVLW  01
051E4:  MOVLB  3
051E6:  MOVWF  x03
051E8:  SETF   x05
051EA:  SETF   x04
051EC:  SETF   x06
051EE:  BCF    x07.0
....................     
....................    lcd_cmd(LCD_CLEAR);  
051F0:  MOVWF  xA8
051F2:  MOVLB  0
051F4:  CALL   0E5E
....................    delay_ms(100); 
051F8:  MOVLW  64
051FA:  MOVLB  3
051FC:  MOVWF  xA9
051FE:  MOVLB  0
05200:  CALL   0DA4
....................     
....................    while (1) { 
....................       if (trip_current > 100) trip_current = 100; 
05204:  MOVLB  3
05206:  MOVF   x00,F
05208:  BNZ   5214
0520A:  MOVLB  2
0520C:  MOVF   xFF,W
0520E:  SUBLW  64
05210:  BC    521C
05212:  MOVLB  3
05214:  CLRF   x00
05216:  MOVLW  64
05218:  MOVLB  2
0521A:  MOVWF  xFF
....................       if (trip_current < 0) trip_current = 0; 
....................        
....................       if (trip_current != last_value || increment_mode != last_mode) { 
0521C:  MOVLB  3
0521E:  MOVF   x04,W
05220:  MOVLB  2
05222:  SUBWF  xFF,W
05224:  BNZ   523C
05226:  MOVLB  3
05228:  MOVF   x05,W
0522A:  SUBWF  x00,W
0522C:  BTFSC  FD8.2
0522E:  BRA    5234
05230:  MOVLB  2
05232:  BRA    523C
05234:  MOVF   x06,W
05236:  SUBWF  x03,W
05238:  BZ    52DE
0523A:  MOVLB  2
....................          lcd_cmd(LCD_CLEAR); 
0523C:  MOVLW  01
0523E:  MOVLB  3
05240:  MOVWF  xA8
05242:  MOVLB  0
05244:  CALL   0E5E
....................          lcd_goto(1, 1);  
05248:  MOVLW  01
0524A:  MOVLB  3
0524C:  MOVWF  xA5
0524E:  MOVWF  xA6
05250:  MOVLB  0
05252:  CALL   119A
....................          if (increment_mode == 1) { 
05256:  MOVLB  3
05258:  DECFSZ x03,W
0525A:  BRA    526E
....................             printf(lcd_out, "9.DRYRUN TRP NRM"); 
0525C:  MOVLW  48
0525E:  MOVWF  FF6
05260:  MOVLW  09
05262:  MOVWF  FF7
05264:  MOVLB  0
05266:  CALL   125C
....................          } 
0526A:  BRA    527C
0526C:  MOVLB  3
....................          else { 
....................             printf(lcd_out, "9.DRYRUN TRP FST"); 
0526E:  MOVLW  5A
05270:  MOVWF  FF6
05272:  MOVLW  09
05274:  MOVWF  FF7
05276:  MOVLB  0
05278:  CALL   125C
....................          } 
....................           
....................          lcd_goto(1, 2);  
0527C:  MOVLW  01
0527E:  MOVLB  3
05280:  MOVWF  xA5
05282:  MOVLW  02
05284:  MOVWF  xA6
05286:  MOVLB  0
05288:  CALL   119A
....................          printf(lcd_out, "   %ld Amps   ", (long)trip_current); 
0528C:  MOVLW  6C
0528E:  MOVWF  FF6
05290:  MOVLW  09
05292:  MOVWF  FF7
05294:  MOVLW  03
05296:  MOVLB  3
05298:  MOVWF  xA5
0529A:  MOVLB  0
0529C:  CALL   18B8
052A0:  MOVLW  10
052A2:  MOVWF  FE9
052A4:  MOVFF  300,3A6
052A8:  MOVFF  2FF,3A5
052AC:  CALL   18E0
052B0:  MOVLW  72
052B2:  MOVWF  FF6
052B4:  MOVLW  09
052B6:  MOVWF  FF7
052B8:  MOVLW  08
052BA:  MOVLB  3
052BC:  MOVWF  xA5
052BE:  MOVLB  0
052C0:  CALL   18B8
....................           
....................          last_value = trip_current; 
052C4:  MOVFF  300,305
052C8:  MOVFF  2FF,304
....................          last_mode = increment_mode; 
052CC:  MOVFF  303,306
....................          delay_ms(50); 
052D0:  MOVLW  32
052D2:  MOVLB  3
052D4:  MOVWF  xA9
052D6:  MOVLB  0
052D8:  CALL   0DA4
052DC:  MOVLB  3
....................       } 
....................        
....................       if (input(KEY1) == 0) { 
052DE:  BTFSC  F81.3
052E0:  BRA    5318
....................          delay_ms(50); 
052E2:  MOVLW  32
052E4:  MOVWF  xA9
052E6:  MOVLB  0
052E8:  CALL   0DA4
....................          increment_mode = (increment_mode == 1) ? 10 : 1; 
052EC:  MOVLB  3
052EE:  DECFSZ x03,W
052F0:  BRA    52F6
052F2:  MOVLW  0A
052F4:  BRA    52F8
052F6:  MOVLW  01
052F8:  MOVWF  x03
....................          last_mode = -1; 
052FA:  SETF   x06
....................          int8 timeout = 50; 
052FC:  MOVLW  32
052FE:  MOVWF  x08
....................          while (input(key1) == 0 && timeout > 0) { 
05300:  BTFSC  F81.3
05302:  BRA    5318
05304:  MOVF   x08,F
05306:  BZ    5318
....................             delay_ms(10); 
05308:  MOVLW  0A
0530A:  MOVWF  xA9
0530C:  MOVLB  0
0530E:  CALL   0DA4
....................             timeout--; 
05312:  MOVLB  3
05314:  DECF   x08,F
05316:  BRA    5300
....................          } 
....................       }      
....................        
....................       if (input(KEY2) == 0) { 
05318:  BTFSC  F81.2
0531A:  BRA    534A
....................          delay_ms(50); 
0531C:  MOVLW  32
0531E:  MOVWF  xA9
05320:  MOVLB  0
05322:  CALL   0DA4
....................          increment_mode = 1; 
05326:  MOVLW  01
05328:  MOVLB  3
0532A:  MOVWF  x03
....................          last_mode = -1; 
0532C:  SETF   x06
....................          int8 timeout = 50; 
0532E:  MOVLW  32
05330:  MOVWF  x09
....................          while (input(key2) == 0 && timeout > 0) { 
05332:  BTFSC  F81.2
05334:  BRA    534A
05336:  MOVF   x09,F
05338:  BZ    534A
....................             delay_ms(10); 
0533A:  MOVLW  0A
0533C:  MOVWF  xA9
0533E:  MOVLB  0
05340:  CALL   0DA4
....................             timeout--; 
05344:  MOVLB  3
05346:  DECF   x09,F
05348:  BRA    5332
....................          } 
....................       } 
....................        
....................       if (input(ENCODER_A) == 0 && input(ENCODER_B) != 0 && !encoder_blocked) {  
0534A:  BTFSC  F82.5
0534C:  BRA    53A4
0534E:  BSF    F92.4
05350:  BTFSS  F80.4
05352:  BRA    53A4
05354:  MOVF   4D,F
05356:  BNZ   53A4
....................          delay_ms(5); 
05358:  MOVLW  05
0535A:  MOVWF  xA9
0535C:  MOVLB  0
0535E:  CALL   0DA4
....................          if (trip_current <= (100 - increment_mode)) { 
05362:  MOVLW  64
05364:  BSF    FD8.0
05366:  MOVLB  3
05368:  SUBFWB x03,W
0536A:  MOVF   x00,F
0536C:  BNZ   538E
0536E:  MOVLB  2
05370:  SUBWF  xFF,W
05372:  BZ    537C
05374:  BTFSS  FD8.0
05376:  BRA    537C
05378:  MOVLB  3
0537A:  BRA    538E
....................             trip_current += increment_mode; 
0537C:  MOVLB  3
0537E:  MOVF   x03,W
05380:  MOVLB  2
05382:  ADDWF  xFF,F
05384:  MOVLW  00
05386:  MOVLB  3
05388:  ADDWFC x00,F
....................             encoder_blocked = 0; 
0538A:  CLRF   4D
....................          } else { 
0538C:  BRA    5392
....................             encoder_blocked = 1; 
0538E:  MOVLW  01
05390:  MOVWF  4D
....................          } 
....................          delay_ms(40); 
05392:  MOVLW  28
05394:  MOVWF  xA9
05396:  MOVLB  0
05398:  CALL   0DA4
....................          while (input(ENCODER_A) == 0); 
0539C:  BTFSS  F82.5
0539E:  BRA    539C
....................       } 
053A0:  BRA    53F4
053A2:  MOVLB  3
....................       else if (input(ENCODER_B) == 0 && input(ENCODER_A) != 0 && !encoder_blocked) {  
053A4:  BSF    F92.4
053A6:  BTFSC  F80.4
053A8:  BRA    53F6
053AA:  BTFSS  F82.5
053AC:  BRA    53F6
053AE:  MOVF   4D,F
053B0:  BNZ   53F6
....................          delay_ms(5); 
053B2:  MOVLW  05
053B4:  MOVWF  xA9
053B6:  MOVLB  0
053B8:  CALL   0DA4
....................          if (trip_current >= increment_mode) { 
053BC:  MOVLB  3
053BE:  MOVF   x00,F
053C0:  BNZ   53CC
053C2:  MOVF   x03,W
053C4:  MOVLB  2
053C6:  SUBWF  xFF,W
053C8:  BNC   53DE
053CA:  MOVLB  3
....................             trip_current -= increment_mode; 
053CC:  MOVF   x03,W
053CE:  MOVLB  2
053D0:  SUBWF  xFF,F
053D2:  MOVLW  00
053D4:  MOVLB  3
053D6:  SUBWFB x00,F
....................             encoder_blocked = 0; 
053D8:  CLRF   4D
....................          } else { 
053DA:  BRA    53E4
053DC:  MOVLB  2
....................             encoder_blocked = 1; 
053DE:  MOVLW  01
053E0:  MOVWF  4D
053E2:  MOVLB  3
....................          } 
....................          delay_ms(40); 
053E4:  MOVLW  28
053E6:  MOVWF  xA9
053E8:  MOVLB  0
053EA:  CALL   0DA4
....................          while (input(ENCODER_B) == 0); 
053EE:  BSF    F92.4
053F0:  BTFSS  F80.4
053F2:  BRA    53EE
053F4:  MOVLB  3
....................       } 
....................       if (input(ENCODER_A) == 1 && input(ENCODER_B) == 1) { 
053F6:  BTFSS  F82.5
053F8:  BRA    5402
053FA:  BSF    F92.4
053FC:  BTFSS  F80.4
053FE:  BRA    5402
....................          encoder_blocked = 0; 
05400:  CLRF   4D
....................       } 
....................        
....................       // ===== BUG FIXED: Moved encoder switch press outside encoder_blocked if block ===== 
....................       if (input(ENCODER_SW) == 0 && button_pressed_flag == 0) { 
05402:  BTFSC  F81.6
05404:  BRA    55F8
05406:  BTFSC  x07.0
05408:  BRA    55F8
....................          delay_ms(20); 
0540A:  MOVLW  14
0540C:  MOVWF  xA9
0540E:  MOVLB  0
05410:  CALL   0DA4
....................          if (input(ENCODER_SW) == 0) { 
05414:  BTFSC  F81.6
05416:  BRA    55F4
....................             button_pressed_flag = 1; 
05418:  MOVLB  3
0541A:  BSF    x07.0
....................              
....................             if (trip_current != original_current) { 
0541C:  MOVF   x01,W
0541E:  MOVLB  2
05420:  SUBWF  xFF,W
05422:  BNZ   5430
05424:  MOVLB  3
05426:  MOVF   x02,W
05428:  SUBWF  x00,W
0542A:  BTFSC  FD8.2
0542C:  BRA    5562
0542E:  MOVLB  2
....................                if (trip_current > 100) trip_current = 100; 
05430:  MOVLB  3
05432:  MOVF   x00,F
05434:  BNZ   5440
05436:  MOVLB  2
05438:  MOVF   xFF,W
0543A:  SUBLW  64
0543C:  BC    5448
0543E:  MOVLB  3
05440:  CLRF   x00
05442:  MOVLW  64
05444:  MOVLB  2
05446:  MOVWF  xFF
....................                if (trip_current < 0) trip_current = 0; 
....................                 
....................                write_eeprom(0x1D, make8(trip_current, 0)); 
05448:  MOVFF  2FF,30A
0544C:  MOVF   FF2,W
0544E:  MOVWF  00
05450:  BCF    FF2.7
05452:  CLRF   FAA
05454:  MOVLW  1D
05456:  MOVWF  FA9
05458:  MOVFF  30A,FA8
0545C:  BCF    FA6.6
0545E:  BCF    FA6.7
05460:  BSF    FA6.2
05462:  MOVLB  F
05464:  MOVLW  55
05466:  MOVWF  FA7
05468:  MOVLW  AA
0546A:  MOVWF  FA7
0546C:  BSF    FA6.1
0546E:  BTFSC  FA6.1
05470:  BRA    546E
05472:  BCF    FA6.2
05474:  MOVF   00,W
05476:  IORWF  FF2,F
....................                write_eeprom(0x1E, make8(trip_current, 1)); 
05478:  MOVFF  300,30A
0547C:  MOVFF  FF2,00
05480:  BCF    FF2.7
05482:  CLRF   FAA
05484:  MOVLW  1E
05486:  MOVWF  FA9
05488:  MOVFF  300,FA8
0548C:  BCF    FA6.6
0548E:  BCF    FA6.7
05490:  BSF    FA6.2
05492:  MOVLW  55
05494:  MOVWF  FA7
05496:  MOVLW  AA
05498:  MOVWF  FA7
0549A:  BSF    FA6.1
0549C:  BTFSC  FA6.1
0549E:  BRA    549C
054A0:  BCF    FA6.2
054A2:  MOVF   00,W
054A4:  IORWF  FF2,F
....................                 
....................                lcd_cmd(LCD_CLEAR); 
054A6:  MOVLW  01
054A8:  MOVLB  3
054AA:  MOVWF  xA8
054AC:  MOVLB  0
054AE:  CALL   0E5E
....................                lcd_goto(1, 1);  
054B2:  MOVLW  01
054B4:  MOVLB  3
054B6:  MOVWF  xA5
054B8:  MOVWF  xA6
054BA:  MOVLB  0
054BC:  CALL   119A
....................                printf(lcd_out, " VALUE SAVED!  "); 
054C0:  MOVLW  7C
054C2:  MOVWF  FF6
054C4:  MOVLW  09
054C6:  MOVWF  FF7
054C8:  CALL   125C
....................                lcd_goto(1, 2);  
054CC:  MOVLW  01
054CE:  MOVLB  3
054D0:  MOVWF  xA5
054D2:  MOVLW  02
054D4:  MOVWF  xA6
054D6:  MOVLB  0
054D8:  CALL   119A
....................                printf(lcd_out, " %ld Amps   ", (long)trip_current); 
054DC:  MOVLW  20
054DE:  MOVLB  3
054E0:  MOVWF  xAE
054E2:  MOVLB  0
054E4:  CALL   122E
054E8:  MOVLW  10
054EA:  MOVWF  FE9
054EC:  MOVFF  300,3A6
054F0:  MOVFF  2FF,3A5
054F4:  CALL   18E0
054F8:  MOVLW  90
054FA:  MOVWF  FF6
054FC:  MOVLW  09
054FE:  MOVWF  FF7
05500:  MOVLW  08
05502:  MOVLB  3
05504:  MOVWF  xA5
05506:  MOVLB  0
05508:  CALL   18B8
....................                 
....................                while (input(ENCODER_SW) == 0) { 
0550C:  BTFSC  F81.6
0550E:  BRA    551E
....................                   delay_ms(10); 
05510:  MOVLW  0A
05512:  MOVLB  3
05514:  MOVWF  xA9
05516:  MOVLB  0
05518:  CALL   0DA4
0551C:  BRA    550C
....................                } 
....................                // ===== CHANGED: Press ENTER to proceed ===== 
....................                lcd_goto(1, 2); 
0551E:  MOVLW  01
05520:  MOVLB  3
05522:  MOVWF  xA5
05524:  MOVLW  02
05526:  MOVWF  xA6
05528:  MOVLB  0
0552A:  CALL   119A
....................                printf(lcd_out, "Press ENTER     "); 
0552E:  MOVLW  9A
05530:  MOVWF  FF6
05532:  MOVLW  09
05534:  MOVWF  FF7
05536:  CALL   125C
....................                while(input(ENCODER_SW) == 1); 
0553A:  BTFSC  F81.6
0553C:  BRA    553A
....................                delay_ms(20); 
0553E:  MOVLW  14
05540:  MOVLB  3
05542:  MOVWF  xA9
05544:  MOVLB  0
05546:  CALL   0DA4
....................                while(input(ENCODER_SW) == 0); 
0554A:  BTFSS  F81.6
0554C:  BRA    554A
....................                delay_ms(50); 
0554E:  MOVLW  32
05550:  MOVLB  3
05552:  MOVWF  xA9
05554:  MOVLB  0
05556:  CALL   0DA4
....................                // ===== END CHANGE ===== 
....................                advance_to_next_menu(); 
0555A:  CALL   2244
....................             } 
0555E:  BRA    55D8
05560:  MOVLB  3
....................             else { 
....................                while (input(ENCODER_SW) == 0) { 
05562:  BTFSC  F81.6
05564:  BRA    5574
....................                   delay_ms(10); 
05566:  MOVLW  0A
05568:  MOVWF  xA9
0556A:  MOVLB  0
0556C:  CALL   0DA4
05570:  MOVLB  3
05572:  BRA    5562
....................                } 
....................                // ===== CHANGED: No Change + Press ENTER ===== 
....................                lcd_cmd(LCD_CLEAR); 
05574:  MOVLW  01
05576:  MOVWF  xA8
05578:  MOVLB  0
0557A:  CALL   0E5E
....................                lcd_goto(1, 1); 
0557E:  MOVLW  01
05580:  MOVLB  3
05582:  MOVWF  xA5
05584:  MOVWF  xA6
05586:  MOVLB  0
05588:  CALL   119A
....................                printf(lcd_out, "No Change"); 
0558C:  MOVLW  AC
0558E:  MOVWF  FF6
05590:  MOVLW  09
05592:  MOVWF  FF7
05594:  CALL   125C
....................                lcd_goto(1, 2); 
05598:  MOVLW  01
0559A:  MOVLB  3
0559C:  MOVWF  xA5
0559E:  MOVLW  02
055A0:  MOVWF  xA6
055A2:  MOVLB  0
055A4:  CALL   119A
....................                printf(lcd_out, "Press ENTER"); 
055A8:  MOVLW  B6
055AA:  MOVWF  FF6
055AC:  MOVLW  09
055AE:  MOVWF  FF7
055B0:  CALL   125C
....................                while(input(ENCODER_SW) == 1); 
055B4:  BTFSC  F81.6
055B6:  BRA    55B4
....................                delay_ms(20); 
055B8:  MOVLW  14
055BA:  MOVLB  3
055BC:  MOVWF  xA9
055BE:  MOVLB  0
055C0:  CALL   0DA4
....................                while(input(ENCODER_SW) == 0); 
055C4:  BTFSS  F81.6
055C6:  BRA    55C4
....................                delay_ms(50); 
055C8:  MOVLW  32
055CA:  MOVLB  3
055CC:  MOVWF  xA9
055CE:  MOVLB  0
055D0:  CALL   0DA4
....................                // ===== END CHANGE ===== 
....................                advance_to_next_menu(); 
055D4:  CALL   2244
....................             } 
....................              
....................             lcd_cmd(LCD_CLEAR);  
055D8:  MOVLW  01
055DA:  MOVLB  3
055DC:  MOVWF  xA8
055DE:  MOVLB  0
055E0:  CALL   0E5E
....................             delay_ms(100); 
055E4:  MOVLW  64
055E6:  MOVLB  3
055E8:  MOVWF  xA9
055EA:  MOVLB  0
055EC:  CALL   0DA4
....................             break; 
055F0:  BRA    5612
....................          } 
055F2:  BRA    55FA
....................          else { 
....................             button_pressed_flag = 0; 
055F4:  MOVLB  3
055F6:  BCF    x07.0
055F8:  MOVLB  0
....................          } 
....................       } 
....................        
....................       if (input(ENCODER_SW) != 0) { 
055FA:  BTFSS  F81.6
055FC:  BRA    5604
....................          button_pressed_flag = 0; 
055FE:  MOVLB  3
05600:  BCF    x07.0
05602:  MOVLB  0
....................       } 
....................        
....................       delay_ms(1); 
05604:  MOVLW  01
05606:  MOVLB  3
05608:  MOVWF  xA9
0560A:  MOVLB  0
0560C:  CALL   0DA4
05610:  BRA    5204
....................    } 
05612:  GOTO   7432 (RETURN)
.................... } 
....................  
.................... void handle_set_on_time() { 
....................    delay_ms(50); 
*
02C1A:  MOVLW  32
02C1C:  MOVLB  3
02C1E:  MOVWF  xA9
02C20:  MOVLB  0
02C22:  CALL   0DA4
....................    while (input(ENCODER_SW) == 0); 
02C26:  BTFSS  F81.6
02C28:  BRA    2C26
....................     
....................    int16 on_time = make16(read_eeprom(0x49), read_eeprom(0x48)); 
02C2A:  MOVFF  FF2,30A
02C2E:  BCF    FF2.7
02C30:  CLRF   FAA
02C32:  MOVLW  49
02C34:  MOVWF  FA9
02C36:  BCF    FA6.6
02C38:  BCF    FA6.7
02C3A:  BSF    FA6.0
02C3C:  MOVF   FA8,W
02C3E:  MOVLB  3
02C40:  BTFSC  x0A.7
02C42:  BSF    FF2.7
02C44:  MOVWF  x0B
02C46:  MOVFF  FF2,30C
02C4A:  BCF    FF2.7
02C4C:  CLRF   FAA
02C4E:  MOVLW  48
02C50:  MOVWF  FA9
02C52:  BCF    FA6.6
02C54:  BCF    FA6.7
02C56:  BSF    FA6.0
02C58:  MOVF   FA8,W
02C5A:  BTFSC  x0C.7
02C5C:  BSF    FF2.7
02C5E:  MOVWF  x0D
02C60:  MOVFF  30B,300
02C64:  MOVFF  30D,2FF
....................    if (on_time > 60) on_time = 60; 
02C68:  MOVF   x00,F
02C6A:  BNZ   2C76
02C6C:  MOVLB  2
02C6E:  MOVF   xFF,W
02C70:  SUBLW  3C
02C72:  BC    2C7E
02C74:  MOVLB  3
02C76:  CLRF   x00
02C78:  MOVLW  3C
02C7A:  MOVLB  2
02C7C:  MOVWF  xFF
....................    if (on_time < 0)   on_time = 0; 
....................     
....................    int16 original_time = on_time; 
....................    int8 increment_mode = 1; 
....................    int16 last_value = -1; 
....................    int8 last_mode = -1; 
....................    int1 button_pressed_flag = 0; 
02C7E:  MOVFF  300,302
02C82:  MOVFF  2FF,301
02C86:  MOVLW  01
02C88:  MOVLB  3
02C8A:  MOVWF  x03
02C8C:  SETF   x05
02C8E:  SETF   x04
02C90:  SETF   x06
02C92:  BCF    x07.0
....................     
....................    lcd_cmd(LCD_CLEAR); 
02C94:  MOVWF  xA8
02C96:  MOVLB  0
02C98:  CALL   0E5E
....................    delay_ms(100); 
02C9C:  MOVLW  64
02C9E:  MOVLB  3
02CA0:  MOVWF  xA9
02CA2:  MOVLB  0
02CA4:  CALL   0DA4
....................     
....................    while (1) { 
....................       if (on_time > 60) on_time = 60; 
02CA8:  MOVLB  3
02CAA:  MOVF   x00,F
02CAC:  BNZ   2CB8
02CAE:  MOVLB  2
02CB0:  MOVF   xFF,W
02CB2:  SUBLW  3C
02CB4:  BC    2CC0
02CB6:  MOVLB  3
02CB8:  CLRF   x00
02CBA:  MOVLW  3C
02CBC:  MOVLB  2
02CBE:  MOVWF  xFF
....................       if (on_time < 0)   on_time = 0; 
....................        
....................       if (on_time != last_value || increment_mode != last_mode) { 
02CC0:  MOVLB  3
02CC2:  MOVF   x04,W
02CC4:  MOVLB  2
02CC6:  SUBWF  xFF,W
02CC8:  BNZ   2CE0
02CCA:  MOVLB  3
02CCC:  MOVF   x05,W
02CCE:  SUBWF  x00,W
02CD0:  BTFSC  FD8.2
02CD2:  BRA    2CD8
02CD4:  MOVLB  2
02CD6:  BRA    2CE0
02CD8:  MOVF   x06,W
02CDA:  SUBWF  x03,W
02CDC:  BZ    2D9A
02CDE:  MOVLB  2
....................          lcd_cmd(LCD_CLEAR); 
02CE0:  MOVLW  01
02CE2:  MOVLB  3
02CE4:  MOVWF  xA8
02CE6:  MOVLB  0
02CE8:  CALL   0E5E
....................          lcd_goto(1, 1); 
02CEC:  MOVLW  01
02CEE:  MOVLB  3
02CF0:  MOVWF  xA5
02CF2:  MOVWF  xA6
02CF4:  MOVLB  0
02CF6:  CALL   119A
....................          if (increment_mode == 1) { 
02CFA:  MOVLB  3
02CFC:  DECFSZ x03,W
02CFE:  BRA    2D12
....................             printf(lcd_out, "4.SET ON TIME NRM"); 
02D00:  MOVLW  C2
02D02:  MOVWF  FF6
02D04:  MOVLW  09
02D06:  MOVWF  FF7
02D08:  MOVLB  0
02D0A:  CALL   125C
....................          } 
02D0E:  BRA    2D38
02D10:  MOVLB  3
....................          else if (increment_mode == 10) { 
02D12:  MOVF   x03,W
02D14:  SUBLW  0A
02D16:  BNZ   2D2A
....................             printf(lcd_out, "4.SET ON TIME FST"); 
02D18:  MOVLW  D4
02D1A:  MOVWF  FF6
02D1C:  MOVLW  09
02D1E:  MOVWF  FF7
02D20:  MOVLB  0
02D22:  CALL   125C
....................          } 
02D26:  BRA    2D38
02D28:  MOVLB  3
....................          else { 
....................             printf(lcd_out, "4.SET ON TIME SUF"); 
02D2A:  MOVLW  E6
02D2C:  MOVWF  FF6
02D2E:  MOVLW  09
02D30:  MOVWF  FF7
02D32:  MOVLB  0
02D34:  CALL   125C
....................          } 
....................           
....................          lcd_goto(1, 2); 
02D38:  MOVLW  01
02D3A:  MOVLB  3
02D3C:  MOVWF  xA5
02D3E:  MOVLW  02
02D40:  MOVWF  xA6
02D42:  MOVLB  0
02D44:  CALL   119A
....................          printf(lcd_out, "   %ld sec   ", (long)on_time); 
02D48:  MOVLW  F8
02D4A:  MOVWF  FF6
02D4C:  MOVLW  09
02D4E:  MOVWF  FF7
02D50:  MOVLW  03
02D52:  MOVLB  3
02D54:  MOVWF  xA5
02D56:  MOVLB  0
02D58:  CALL   18B8
02D5C:  MOVLW  10
02D5E:  MOVWF  FE9
02D60:  MOVFF  300,3A6
02D64:  MOVFF  2FF,3A5
02D68:  CALL   18E0
02D6C:  MOVLW  FE
02D6E:  MOVWF  FF6
02D70:  MOVLW  09
02D72:  MOVWF  FF7
02D74:  MOVLW  07
02D76:  MOVLB  3
02D78:  MOVWF  xA5
02D7A:  MOVLB  0
02D7C:  CALL   18B8
....................           
....................          last_value = on_time; 
02D80:  MOVFF  300,305
02D84:  MOVFF  2FF,304
....................          last_mode = increment_mode; 
02D88:  MOVFF  303,306
....................          delay_ms(50); 
02D8C:  MOVLW  32
02D8E:  MOVLB  3
02D90:  MOVWF  xA9
02D92:  MOVLB  0
02D94:  CALL   0DA4
02D98:  MOVLB  3
....................       } 
....................        
....................       if (input(KEY1) == 0) { 
02D9A:  BTFSC  F81.3
02D9C:  BRA    2DE2
....................          delay_ms(50); 
02D9E:  MOVLW  32
02DA0:  MOVWF  xA9
02DA2:  MOVLB  0
02DA4:  CALL   0DA4
....................          if (increment_mode == 1) increment_mode = 10; 
02DA8:  MOVLB  3
02DAA:  DECFSZ x03,W
02DAC:  BRA    2DB4
02DAE:  MOVLW  0A
02DB0:  MOVWF  x03
02DB2:  BRA    2DC4
....................          else if (increment_mode == 10) increment_mode = 100; 
02DB4:  MOVF   x03,W
02DB6:  SUBLW  0A
02DB8:  BNZ   2DC0
02DBA:  MOVLW  64
02DBC:  MOVWF  x03
02DBE:  BRA    2DC4
....................          else increment_mode = 1; 
02DC0:  MOVLW  01
02DC2:  MOVWF  x03
....................          last_mode = -1; 
02DC4:  SETF   x06
....................          int8 timeout = 50; 
02DC6:  MOVLW  32
02DC8:  MOVWF  x08
....................          while (input(key1) == 0 && timeout > 0) { 
02DCA:  BTFSC  F81.3
02DCC:  BRA    2DE2
02DCE:  MOVF   x08,F
02DD0:  BZ    2DE2
....................             delay_ms(10); 
02DD2:  MOVLW  0A
02DD4:  MOVWF  xA9
02DD6:  MOVLB  0
02DD8:  CALL   0DA4
....................             timeout--; 
02DDC:  MOVLB  3
02DDE:  DECF   x08,F
02DE0:  BRA    2DCA
....................          } 
....................       } 
....................        
....................       if (input(KEY2) == 0) { 
02DE2:  BTFSC  F81.2
02DE4:  BRA    2E14
....................          delay_ms(50); 
02DE6:  MOVLW  32
02DE8:  MOVWF  xA9
02DEA:  MOVLB  0
02DEC:  CALL   0DA4
....................          increment_mode = 1; 
02DF0:  MOVLW  01
02DF2:  MOVLB  3
02DF4:  MOVWF  x03
....................          last_mode = -1; 
02DF6:  SETF   x06
....................          int8 timeout = 50; 
02DF8:  MOVLW  32
02DFA:  MOVWF  x09
....................          while (input(key2) == 0 && timeout > 0) { 
02DFC:  BTFSC  F81.2
02DFE:  BRA    2E14
02E00:  MOVF   x09,F
02E02:  BZ    2E14
....................             delay_ms(10); 
02E04:  MOVLW  0A
02E06:  MOVWF  xA9
02E08:  MOVLB  0
02E0A:  CALL   0DA4
....................             timeout--; 
02E0E:  MOVLB  3
02E10:  DECF   x09,F
02E12:  BRA    2DFC
....................          } 
....................       } 
....................        
....................       if (input(ENCODER_A) == 0 && input(ENCODER_B) != 0 && !encoder_blocked) { 
02E14:  BTFSC  F82.5
02E16:  BRA    2E6E
02E18:  BSF    F92.4
02E1A:  BTFSS  F80.4
02E1C:  BRA    2E6E
02E1E:  MOVF   4D,F
02E20:  BNZ   2E6E
....................          delay_ms(5); 
02E22:  MOVLW  05
02E24:  MOVWF  xA9
02E26:  MOVLB  0
02E28:  CALL   0DA4
....................          if (on_time <= (60 - increment_mode)) { 
02E2C:  MOVLW  3C
02E2E:  BSF    FD8.0
02E30:  MOVLB  3
02E32:  SUBFWB x03,W
02E34:  MOVF   x00,F
02E36:  BNZ   2E58
02E38:  MOVLB  2
02E3A:  SUBWF  xFF,W
02E3C:  BZ    2E46
02E3E:  BTFSS  FD8.0
02E40:  BRA    2E46
02E42:  MOVLB  3
02E44:  BRA    2E58
....................             on_time += increment_mode; 
02E46:  MOVLB  3
02E48:  MOVF   x03,W
02E4A:  MOVLB  2
02E4C:  ADDWF  xFF,F
02E4E:  MOVLW  00
02E50:  MOVLB  3
02E52:  ADDWFC x00,F
....................             encoder_blocked = 0; 
02E54:  CLRF   4D
....................          } else { 
02E56:  BRA    2E5C
....................             encoder_blocked = 1; 
02E58:  MOVLW  01
02E5A:  MOVWF  4D
....................          } 
....................          delay_ms(40); 
02E5C:  MOVLW  28
02E5E:  MOVWF  xA9
02E60:  MOVLB  0
02E62:  CALL   0DA4
....................          while (input(ENCODER_A) == 0); 
02E66:  BTFSS  F82.5
02E68:  BRA    2E66
....................       } 
02E6A:  BRA    2EBE
02E6C:  MOVLB  3
....................       else if (input(ENCODER_B) == 0 && input(ENCODER_A) != 0 && !encoder_blocked) { 
02E6E:  BSF    F92.4
02E70:  BTFSC  F80.4
02E72:  BRA    2EC0
02E74:  BTFSS  F82.5
02E76:  BRA    2EC0
02E78:  MOVF   4D,F
02E7A:  BNZ   2EC0
....................          delay_ms(5); 
02E7C:  MOVLW  05
02E7E:  MOVWF  xA9
02E80:  MOVLB  0
02E82:  CALL   0DA4
....................          if (on_time >= increment_mode) { 
02E86:  MOVLB  3
02E88:  MOVF   x00,F
02E8A:  BNZ   2E96
02E8C:  MOVF   x03,W
02E8E:  MOVLB  2
02E90:  SUBWF  xFF,W
02E92:  BNC   2EA8
02E94:  MOVLB  3
....................             on_time -= increment_mode; 
02E96:  MOVF   x03,W
02E98:  MOVLB  2
02E9A:  SUBWF  xFF,F
02E9C:  MOVLW  00
02E9E:  MOVLB  3
02EA0:  SUBWFB x00,F
....................             encoder_blocked = 0; 
02EA2:  CLRF   4D
....................          } else { 
02EA4:  BRA    2EAE
02EA6:  MOVLB  2
....................             encoder_blocked = 1; 
02EA8:  MOVLW  01
02EAA:  MOVWF  4D
02EAC:  MOVLB  3
....................          } 
....................          delay_ms(40); 
02EAE:  MOVLW  28
02EB0:  MOVWF  xA9
02EB2:  MOVLB  0
02EB4:  CALL   0DA4
....................          while (input(ENCODER_B) == 0); 
02EB8:  BSF    F92.4
02EBA:  BTFSS  F80.4
02EBC:  BRA    2EB8
02EBE:  MOVLB  3
....................       } 
....................       if (input(ENCODER_A) == 1 && input(ENCODER_B) == 1) { 
02EC0:  BTFSS  F82.5
02EC2:  BRA    2ECC
02EC4:  BSF    F92.4
02EC6:  BTFSS  F80.4
02EC8:  BRA    2ECC
....................          encoder_blocked = 0; 
02ECA:  CLRF   4D
....................       } 
....................        
....................       if (input(ENCODER_SW) == 0 && button_pressed_flag == 0) { 
02ECC:  BTFSC  F81.6
02ECE:  BRA    30CA
02ED0:  BTFSC  x07.0
02ED2:  BRA    30CA
....................          delay_ms(20); 
02ED4:  MOVLW  14
02ED6:  MOVWF  xA9
02ED8:  MOVLB  0
02EDA:  CALL   0DA4
....................          if (input(ENCODER_SW) == 0) { 
02EDE:  BTFSC  F81.6
02EE0:  BRA    30C6
....................             button_pressed_flag = 1; 
02EE2:  MOVLB  3
02EE4:  BSF    x07.0
....................              
....................             if (on_time != original_time) { 
02EE6:  MOVF   x01,W
02EE8:  MOVLB  2
02EEA:  SUBWF  xFF,W
02EEC:  BNZ   2EFA
02EEE:  MOVLB  3
02EF0:  MOVF   x02,W
02EF2:  SUBWF  x00,W
02EF4:  BTFSC  FD8.2
02EF6:  BRA    3034
02EF8:  MOVLB  2
....................                if (on_time > 60) on_time = 60; 
02EFA:  MOVLB  3
02EFC:  MOVF   x00,F
02EFE:  BNZ   2F0A
02F00:  MOVLB  2
02F02:  MOVF   xFF,W
02F04:  SUBLW  3C
02F06:  BC    2F12
02F08:  MOVLB  3
02F0A:  CLRF   x00
02F0C:  MOVLW  3C
02F0E:  MOVLB  2
02F10:  MOVWF  xFF
....................                if (on_time < 0)   on_time = 0; 
....................                 
....................                write_eeprom(0x48, make8(on_time, 0)); 
02F12:  MOVFF  2FF,30A
02F16:  MOVF   FF2,W
02F18:  MOVWF  00
02F1A:  BCF    FF2.7
02F1C:  CLRF   FAA
02F1E:  MOVLW  48
02F20:  MOVWF  FA9
02F22:  MOVFF  30A,FA8
02F26:  BCF    FA6.6
02F28:  BCF    FA6.7
02F2A:  BSF    FA6.2
02F2C:  MOVLB  F
02F2E:  MOVLW  55
02F30:  MOVWF  FA7
02F32:  MOVLW  AA
02F34:  MOVWF  FA7
02F36:  BSF    FA6.1
02F38:  BTFSC  FA6.1
02F3A:  BRA    2F38
02F3C:  BCF    FA6.2
02F3E:  MOVF   00,W
02F40:  IORWF  FF2,F
....................                write_eeprom(0x49, make8(on_time, 1)); 
02F42:  MOVFF  300,30A
02F46:  MOVFF  FF2,00
02F4A:  BCF    FF2.7
02F4C:  CLRF   FAA
02F4E:  MOVLW  49
02F50:  MOVWF  FA9
02F52:  MOVFF  300,FA8
02F56:  BCF    FA6.6
02F58:  BCF    FA6.7
02F5A:  BSF    FA6.2
02F5C:  MOVLW  55
02F5E:  MOVWF  FA7
02F60:  MOVLW  AA
02F62:  MOVWF  FA7
02F64:  BSF    FA6.1
02F66:  BTFSC  FA6.1
02F68:  BRA    2F66
02F6A:  BCF    FA6.2
02F6C:  MOVF   00,W
02F6E:  IORWF  FF2,F
....................                 
....................                lcd_cmd(LCD_CLEAR); 
02F70:  MOVLW  01
02F72:  MOVLB  3
02F74:  MOVWF  xA8
02F76:  MOVLB  0
02F78:  CALL   0E5E
....................                lcd_goto(1, 1); 
02F7C:  MOVLW  01
02F7E:  MOVLB  3
02F80:  MOVWF  xA5
02F82:  MOVWF  xA6
02F84:  MOVLB  0
02F86:  CALL   119A
....................                printf(lcd_out, " TIME SAVED!   "); 
02F8A:  MOVLW  06
02F8C:  MOVWF  FF6
02F8E:  MOVLW  0A
02F90:  MOVWF  FF7
02F92:  CALL   125C
....................                lcd_goto(1, 2); 
02F96:  MOVLW  01
02F98:  MOVLB  3
02F9A:  MOVWF  xA5
02F9C:  MOVLW  02
02F9E:  MOVWF  xA6
02FA0:  MOVLB  0
02FA2:  CALL   119A
....................                printf(lcd_out, "   %ld sec   ", (long)on_time); 
02FA6:  MOVLW  16
02FA8:  MOVWF  FF6
02FAA:  MOVLW  0A
02FAC:  MOVWF  FF7
02FAE:  MOVLW  03
02FB0:  MOVLB  3
02FB2:  MOVWF  xA5
02FB4:  MOVLB  0
02FB6:  CALL   18B8
02FBA:  MOVLW  10
02FBC:  MOVWF  FE9
02FBE:  MOVFF  300,3A6
02FC2:  MOVFF  2FF,3A5
02FC6:  CALL   18E0
02FCA:  MOVLW  1C
02FCC:  MOVWF  FF6
02FCE:  MOVLW  0A
02FD0:  MOVWF  FF7
02FD2:  MOVLW  07
02FD4:  MOVLB  3
02FD6:  MOVWF  xA5
02FD8:  MOVLB  0
02FDA:  CALL   18B8
....................                 
....................                while (input(ENCODER_SW) == 0) { 
02FDE:  BTFSC  F81.6
02FE0:  BRA    2FF0
....................                   delay_ms(10); 
02FE2:  MOVLW  0A
02FE4:  MOVLB  3
02FE6:  MOVWF  xA9
02FE8:  MOVLB  0
02FEA:  CALL   0DA4
02FEE:  BRA    2FDE
....................                } 
....................                lcd_goto(1, 2); 
02FF0:  MOVLW  01
02FF2:  MOVLB  3
02FF4:  MOVWF  xA5
02FF6:  MOVLW  02
02FF8:  MOVWF  xA6
02FFA:  MOVLB  0
02FFC:  CALL   119A
....................                printf(lcd_out, "Press ENTER     "); 
03000:  MOVLW  24
03002:  MOVWF  FF6
03004:  MOVLW  0A
03006:  MOVWF  FF7
03008:  CALL   125C
....................                while(input(ENCODER_SW) == 1); 
0300C:  BTFSC  F81.6
0300E:  BRA    300C
....................                delay_ms(20); 
03010:  MOVLW  14
03012:  MOVLB  3
03014:  MOVWF  xA9
03016:  MOVLB  0
03018:  CALL   0DA4
....................                while(input(ENCODER_SW) == 0); 
0301C:  BTFSS  F81.6
0301E:  BRA    301C
....................                delay_ms(50); 
03020:  MOVLW  32
03022:  MOVLB  3
03024:  MOVWF  xA9
03026:  MOVLB  0
03028:  CALL   0DA4
....................                advance_to_next_menu(); 
0302C:  CALL   2244
....................             } 
03030:  BRA    30AA
03032:  MOVLB  3
....................             else { 
....................                while (input(ENCODER_SW) == 0) { 
03034:  BTFSC  F81.6
03036:  BRA    3046
....................                   delay_ms(10); 
03038:  MOVLW  0A
0303A:  MOVWF  xA9
0303C:  MOVLB  0
0303E:  CALL   0DA4
03042:  MOVLB  3
03044:  BRA    3034
....................                } 
....................                lcd_cmd(LCD_CLEAR); 
03046:  MOVLW  01
03048:  MOVWF  xA8
0304A:  MOVLB  0
0304C:  CALL   0E5E
....................                lcd_goto(1, 1); 
03050:  MOVLW  01
03052:  MOVLB  3
03054:  MOVWF  xA5
03056:  MOVWF  xA6
03058:  MOVLB  0
0305A:  CALL   119A
....................                printf(lcd_out, "No Change"); 
0305E:  MOVLW  36
03060:  MOVWF  FF6
03062:  MOVLW  0A
03064:  MOVWF  FF7
03066:  CALL   125C
....................                lcd_goto(1, 2); 
0306A:  MOVLW  01
0306C:  MOVLB  3
0306E:  MOVWF  xA5
03070:  MOVLW  02
03072:  MOVWF  xA6
03074:  MOVLB  0
03076:  CALL   119A
....................                printf(lcd_out, "Press ENTER"); 
0307A:  MOVLW  40
0307C:  MOVWF  FF6
0307E:  MOVLW  0A
03080:  MOVWF  FF7
03082:  CALL   125C
....................                while(input(ENCODER_SW) == 1); 
03086:  BTFSC  F81.6
03088:  BRA    3086
....................                delay_ms(20); 
0308A:  MOVLW  14
0308C:  MOVLB  3
0308E:  MOVWF  xA9
03090:  MOVLB  0
03092:  CALL   0DA4
....................                while(input(ENCODER_SW) == 0); 
03096:  BTFSS  F81.6
03098:  BRA    3096
....................                delay_ms(50); 
0309A:  MOVLW  32
0309C:  MOVLB  3
0309E:  MOVWF  xA9
030A0:  MOVLB  0
030A2:  CALL   0DA4
....................                advance_to_next_menu(); 
030A6:  CALL   2244
....................             } 
....................              
....................             lcd_cmd(LCD_CLEAR); 
030AA:  MOVLW  01
030AC:  MOVLB  3
030AE:  MOVWF  xA8
030B0:  MOVLB  0
030B2:  CALL   0E5E
....................             delay_ms(100); 
030B6:  MOVLW  64
030B8:  MOVLB  3
030BA:  MOVWF  xA9
030BC:  MOVLB  0
030BE:  CALL   0DA4
....................             break; 
030C2:  BRA    30E4
....................          } 
030C4:  BRA    30CC
....................          else { 
....................             button_pressed_flag = 0; 
030C6:  MOVLB  3
030C8:  BCF    x07.0
030CA:  MOVLB  0
....................          } 
....................       } 
....................        
....................       if (input(ENCODER_SW) != 0) { 
030CC:  BTFSS  F81.6
030CE:  BRA    30D6
....................          button_pressed_flag = 0; 
030D0:  MOVLB  3
030D2:  BCF    x07.0
030D4:  MOVLB  0
....................       } 
....................        
....................       delay_ms(1); 
030D6:  MOVLW  01
030D8:  MOVLB  3
030DA:  MOVWF  xA9
030DC:  MOVLB  0
030DE:  CALL   0DA4
030E2:  BRA    2CA8
....................    } 
030E4:  GOTO   73F6 (RETURN)
.................... } 
....................  
.................... void handle_cyclic_timer(void) { 
....................    while (input(ENCODER_SW) == 0); 
*
0569C:  BTFSS  F81.6
0569E:  BRA    569C
....................    delay_ms(50); 
056A0:  MOVLW  32
056A2:  MOVLB  3
056A4:  MOVWF  xA9
056A6:  MOVLB  0
056A8:  CALL   0DA4
....................     
....................    int8 eeprom_base[] = {0x20, 0x24, 0x28, 0x2C, 0x30}; 
056AC:  MOVLW  20
056AE:  MOVLB  2
056B0:  MOVWF  xFF
056B2:  MOVLW  24
056B4:  MOVLB  3
056B6:  MOVWF  x00
056B8:  MOVLW  28
056BA:  MOVWF  x01
056BC:  MOVLW  2C
056BE:  MOVWF  x02
056C0:  MOVLW  30
056C2:  MOVWF  x03
....................     
....................    char* timer_submenu[] = { 
....................       "> TIMER 1      ", 
....................       "> TIMER 2      ", 
....................       "> TIMER 3      ", 
....................       "> TIMER 4      ", 
....................       "> TIMER 5      ", 
....................       "> EXIT->NEXT   " 
....................    }; 
056C4:  MOVLW  3E
056C6:  MOVWF  x10
056C8:  MOVLW  20
056CA:  MOVWF  x11
056CC:  MOVLW  54
056CE:  MOVWF  x12
056D0:  MOVLW  49
056D2:  MOVWF  x13
056D4:  MOVLW  4D
056D6:  MOVWF  x14
056D8:  MOVLW  45
056DA:  MOVWF  x15
056DC:  MOVLW  52
056DE:  MOVWF  x16
056E0:  MOVLW  20
056E2:  MOVWF  x17
056E4:  MOVLW  31
056E6:  MOVWF  x18
056E8:  MOVLW  20
056EA:  MOVWF  x19
056EC:  MOVWF  x1A
056EE:  MOVWF  x1B
056F0:  MOVWF  x1C
056F2:  MOVWF  x1D
056F4:  MOVWF  x1E
056F6:  CLRF   x1F
056F8:  MOVLW  3E
056FA:  MOVWF  x20
056FC:  MOVLW  20
056FE:  MOVWF  x21
05700:  MOVLW  54
05702:  MOVWF  x22
05704:  MOVLW  49
05706:  MOVWF  x23
05708:  MOVLW  4D
0570A:  MOVWF  x24
0570C:  MOVLW  45
0570E:  MOVWF  x25
05710:  MOVLW  52
05712:  MOVWF  x26
05714:  MOVLW  20
05716:  MOVWF  x27
05718:  MOVLW  32
0571A:  MOVWF  x28
0571C:  MOVLW  20
0571E:  MOVWF  x29
05720:  MOVWF  x2A
05722:  MOVWF  x2B
05724:  MOVWF  x2C
05726:  MOVWF  x2D
05728:  MOVWF  x2E
0572A:  CLRF   x2F
0572C:  MOVLW  3E
0572E:  MOVWF  x30
05730:  MOVLW  20
05732:  MOVWF  x31
05734:  MOVLW  54
05736:  MOVWF  x32
05738:  MOVLW  49
0573A:  MOVWF  x33
0573C:  MOVLW  4D
0573E:  MOVWF  x34
05740:  MOVLW  45
05742:  MOVWF  x35
05744:  MOVLW  52
05746:  MOVWF  x36
05748:  MOVLW  20
0574A:  MOVWF  x37
0574C:  MOVLW  33
0574E:  MOVWF  x38
05750:  MOVLW  20
05752:  MOVWF  x39
05754:  MOVWF  x3A
05756:  MOVWF  x3B
05758:  MOVWF  x3C
0575A:  MOVWF  x3D
0575C:  MOVWF  x3E
0575E:  CLRF   x3F
05760:  MOVLW  3E
05762:  MOVWF  x40
05764:  MOVLW  20
05766:  MOVWF  x41
05768:  MOVLW  54
0576A:  MOVWF  x42
0576C:  MOVLW  49
0576E:  MOVWF  x43
05770:  MOVLW  4D
05772:  MOVWF  x44
05774:  MOVLW  45
05776:  MOVWF  x45
05778:  MOVLW  52
0577A:  MOVWF  x46
0577C:  MOVLW  20
0577E:  MOVWF  x47
05780:  MOVLW  34
05782:  MOVWF  x48
05784:  MOVLW  20
05786:  MOVWF  x49
05788:  MOVWF  x4A
0578A:  MOVWF  x4B
0578C:  MOVWF  x4C
0578E:  MOVWF  x4D
05790:  MOVWF  x4E
05792:  CLRF   x4F
05794:  MOVLW  3E
05796:  MOVWF  x50
05798:  MOVLW  20
0579A:  MOVWF  x51
0579C:  MOVLW  54
0579E:  MOVWF  x52
057A0:  MOVLW  49
057A2:  MOVWF  x53
057A4:  MOVLW  4D
057A6:  MOVWF  x54
057A8:  MOVLW  45
057AA:  MOVWF  x55
057AC:  MOVLW  52
057AE:  MOVWF  x56
057B0:  MOVLW  20
057B2:  MOVWF  x57
057B4:  MOVLW  35
057B6:  MOVWF  x58
057B8:  MOVLW  20
057BA:  MOVWF  x59
057BC:  MOVWF  x5A
057BE:  MOVWF  x5B
057C0:  MOVWF  x5C
057C2:  MOVWF  x5D
057C4:  MOVWF  x5E
057C6:  CLRF   x5F
057C8:  MOVLW  3E
057CA:  MOVWF  x60
057CC:  MOVLW  20
057CE:  MOVWF  x61
057D0:  MOVLW  45
057D2:  MOVWF  x62
057D4:  MOVLW  58
057D6:  MOVWF  x63
057D8:  MOVLW  49
057DA:  MOVWF  x64
057DC:  MOVLW  54
057DE:  MOVWF  x65
057E0:  MOVLW  2D
057E2:  MOVWF  x66
057E4:  MOVLW  3E
057E6:  MOVWF  x67
057E8:  MOVLW  4E
057EA:  MOVWF  x68
057EC:  MOVLW  45
057EE:  MOVWF  x69
057F0:  MOVLW  58
057F2:  MOVWF  x6A
057F4:  MOVLW  54
057F6:  MOVWF  x6B
057F8:  MOVLW  20
057FA:  MOVWF  x6C
057FC:  MOVWF  x6D
057FE:  MOVWF  x6E
05800:  CLRF   x6F
05802:  MOVLW  03
05804:  MOVWF  x05
05806:  MOVLW  10
05808:  MOVWF  x04
0580A:  MOVLW  03
0580C:  MOVWF  x07
0580E:  MOVLW  20
05810:  MOVWF  x06
05812:  MOVLW  03
05814:  MOVWF  x09
05816:  MOVLW  30
05818:  MOVWF  x08
0581A:  MOVLW  03
0581C:  MOVWF  x0B
0581E:  MOVLW  40
05820:  MOVWF  x0A
05822:  MOVLW  03
05824:  MOVWF  x0D
05826:  MOVLW  50
05828:  MOVWF  x0C
0582A:  MOVLW  03
0582C:  MOVWF  x0F
0582E:  MOVLW  60
05830:  MOVWF  x0E
....................    int8 total_options = 6; 
....................    int8 sub_sel = 0; 
....................    int8 last_sub_sel = 255; 
05832:  MOVLW  06
05834:  MOVWF  x70
05836:  CLRF   x71
05838:  SETF   x72
....................     
....................    while(1) { 
....................       // -- Sub Menu Display -- 
....................       if(sub_sel != last_sub_sel) { 
0583A:  MOVF   x72,W
0583C:  SUBWF  x71,W
0583E:  BZ    58A4
....................          lcd_cmd(LCD_CLEAR); 
05840:  MOVLW  01
05842:  MOVWF  xA8
05844:  MOVLB  0
05846:  CALL   0E5E
....................          lcd_goto(1, 1); 
0584A:  MOVLW  01
0584C:  MOVLB  3
0584E:  MOVWF  xA5
05850:  MOVWF  xA6
05852:  MOVLB  0
05854:  CALL   119A
....................          printf(lcd_out, "10.CYCLIC TIMER"); 
05858:  MOVLW  4C
0585A:  MOVWF  FF6
0585C:  MOVLW  0A
0585E:  MOVWF  FF7
05860:  CALL   125C
....................          lcd_goto(1, 2); 
05864:  MOVLW  01
05866:  MOVLB  3
05868:  MOVWF  xA5
0586A:  MOVLW  02
0586C:  MOVWF  xA6
0586E:  MOVLB  0
05870:  CALL   119A
....................          printf(lcd_out, "%s", timer_submenu[sub_sel]); 
05874:  BCF    FD8.0
05876:  MOVLB  3
05878:  RLCF   x71,W
0587A:  CLRF   03
0587C:  ADDLW  04
0587E:  MOVWF  FE9
05880:  MOVLW  03
05882:  ADDWFC 03,W
05884:  MOVWF  FEA
05886:  MOVFF  FEC,386
0588A:  MOVF   FED,F
0588C:  MOVFF  FEF,385
05890:  MOVFF  386,FEA
05894:  MOVFF  385,FE9
05898:  MOVLB  0
0589A:  CALL   20B4
....................          last_sub_sel = sub_sel; 
0589E:  MOVFF  371,372
058A2:  MOVLB  3
....................       } 
....................        
....................       // -- Encoder Rotate -- 
....................       if(input(ENCODER_A) == 0 && input(ENCODER_B) != 0) { 
058A4:  BTFSC  F82.5
058A6:  BRA    58D6
058A8:  BSF    F92.4
058AA:  BTFSS  F80.4
058AC:  BRA    58D6
....................          delay_ms(5); 
058AE:  MOVLW  05
058B0:  MOVWF  xA9
058B2:  MOVLB  0
058B4:  CALL   0DA4
....................          sub_sel++; 
058B8:  MOVLB  3
058BA:  INCF   x71,F
....................          if(sub_sel >= total_options) sub_sel = 0; 
058BC:  MOVF   x70,W
058BE:  SUBWF  x71,W
058C0:  BNC   58C4
058C2:  CLRF   x71
....................          while(input(ENCODER_A) == 0); 
058C4:  BTFSS  F82.5
058C6:  BRA    58C4
....................          delay_ms(20); 
058C8:  MOVLW  14
058CA:  MOVWF  xA9
058CC:  MOVLB  0
058CE:  CALL   0DA4
....................       } 
058D2:  BRA    590A
058D4:  MOVLB  3
....................       else if(input(ENCODER_B) == 0 && input(ENCODER_A) != 0) { 
058D6:  BSF    F92.4
058D8:  BTFSC  F80.4
058DA:  BRA    590C
058DC:  BTFSS  F82.5
058DE:  BRA    590C
....................          delay_ms(5); 
058E0:  MOVLW  05
058E2:  MOVWF  xA9
058E4:  MOVLB  0
058E6:  CALL   0DA4
....................          if(sub_sel == 0) sub_sel = total_options - 1; 
058EA:  MOVLB  3
058EC:  MOVF   x71,F
058EE:  BNZ   58F8
058F0:  MOVLW  01
058F2:  SUBWF  x70,W
058F4:  MOVWF  x71
058F6:  BRA    58FA
....................          else sub_sel--; 
058F8:  DECF   x71,F
....................          while(input(ENCODER_B) == 0); 
058FA:  BSF    F92.4
058FC:  BTFSS  F80.4
058FE:  BRA    58FA
....................          delay_ms(20); 
05900:  MOVLW  14
05902:  MOVWF  xA9
05904:  MOVLB  0
05906:  CALL   0DA4
0590A:  MOVLB  3
....................       } 
....................        
....................       // -- SW Press ? Enter selected option -- 
....................       if(input(ENCODER_SW) == 0) { 
0590C:  BTFSC  F81.6
0590E:  BRA    5F9A
....................          delay_ms(20); 
05910:  MOVLW  14
05912:  MOVWF  xA9
05914:  MOVLB  0
05916:  CALL   0DA4
....................          if(input(ENCODER_SW) == 0) { 
0591A:  BTFSC  F81.6
0591C:  BRA    5F9C
....................             while(input(ENCODER_SW) == 0); 
0591E:  BTFSS  F81.6
05920:  BRA    591E
....................             delay_ms(50); 
05922:  MOVLW  32
05924:  MOVLB  3
05926:  MOVWF  xA9
05928:  MOVLB  0
0592A:  CALL   0DA4
....................              
....................             if(sub_sel == 5) { 
0592E:  MOVLB  3
05930:  MOVF   x71,W
05932:  SUBLW  05
05934:  BNZ   593A
....................                break; // Exit the loop to advance to next menu 
05936:  BRA    5FA0
....................             } 
05938:  BRA    5F9A
....................             else { 
....................                // Timer editing block 
....................                int8 t = sub_sel; 
0593A:  MOVFF  371,373
....................                 
....................                lcd_cmd(LCD_CLEAR); 
0593E:  MOVLW  01
05940:  MOVWF  xA8
05942:  MOVLB  0
05944:  CALL   0E5E
....................                lcd_goto(1, 1); 
05948:  MOVLW  01
0594A:  MOVLB  3
0594C:  MOVWF  xA5
0594E:  MOVWF  xA6
05950:  MOVLB  0
05952:  CALL   119A
....................                printf(lcd_out, "CYCLIC TIMER %d", t+1); 
05956:  MOVLW  01
05958:  MOVLB  3
0595A:  ADDWF  x73,W
0595C:  MOVWF  x85
0595E:  MOVLW  5C
05960:  MOVWF  FF6
05962:  MOVLW  0A
05964:  MOVWF  FF7
05966:  MOVLW  0D
05968:  MOVWF  xA5
0596A:  MOVLB  0
0596C:  CALL   18B8
05970:  MOVFF  385,387
05974:  MOVLW  18
05976:  MOVLB  3
05978:  MOVWF  x88
0597A:  MOVLB  0
0597C:  CALL   1F7C
....................                lcd_goto(1, 2); 
05980:  MOVLW  01
05982:  MOVLB  3
05984:  MOVWF  xA5
05986:  MOVLW  02
05988:  MOVWF  xA6
0598A:  MOVLB  0
0598C:  CALL   119A
....................                printf(lcd_out, "Press to ENTER"); 
05990:  MOVLW  6C
05992:  MOVWF  FF6
05994:  MOVLW  0A
05996:  MOVWF  FF7
05998:  CALL   125C
....................                 
....................                while(input(ENCODER_SW) == 1); 
0599C:  BTFSC  F81.6
0599E:  BRA    599C
....................                delay_ms(20); 
059A0:  MOVLW  14
059A2:  MOVLB  3
059A4:  MOVWF  xA9
059A6:  MOVLB  0
059A8:  CALL   0DA4
....................                while(input(ENCODER_SW) == 0); 
059AC:  BTFSS  F81.6
059AE:  BRA    59AC
....................                delay_ms(50); 
059B0:  MOVLW  32
059B2:  MOVLB  3
059B4:  MOVWF  xA9
059B6:  MOVLB  0
059B8:  CALL   0DA4
....................                 
....................                int8 base = eeprom_base[t]; 
....................                 
....................                int8 on_hr  = read_eeprom(base + 0); 
....................                int8 on_min = read_eeprom(base + 1); 
....................                int8 off_hr = read_eeprom(base + 2); 
....................                int8 off_min= read_eeprom(base + 3); 
059BC:  CLRF   03
059BE:  MOVLB  3
059C0:  MOVF   x73,W
059C2:  ADDLW  FF
059C4:  MOVWF  FE9
059C6:  MOVLW  02
059C8:  ADDWFC 03,W
059CA:  MOVWF  FEA
059CC:  MOVFF  FEF,374
059D0:  MOVFF  FF2,385
059D4:  BCF    FF2.7
059D6:  CLRF   FAA
059D8:  MOVFF  374,FA9
059DC:  BCF    FA6.6
059DE:  BCF    FA6.7
059E0:  BSF    FA6.0
059E2:  MOVF   FA8,W
059E4:  BTFSC  x85.7
059E6:  BSF    FF2.7
059E8:  MOVWF  x75
059EA:  MOVLW  01
059EC:  ADDWF  x74,W
059EE:  MOVWF  x86
059F0:  MOVFF  FF2,387
059F4:  BCF    FF2.7
059F6:  CLRF   FAA
059F8:  MOVFF  386,FA9
059FC:  BCF    FA6.6
059FE:  BCF    FA6.7
05A00:  BSF    FA6.0
05A02:  MOVF   FA8,W
05A04:  BTFSC  x87.7
05A06:  BSF    FF2.7
05A08:  MOVWF  x76
05A0A:  MOVLW  02
05A0C:  ADDWF  x74,W
05A0E:  MOVWF  x86
05A10:  MOVFF  FF2,388
05A14:  BCF    FF2.7
05A16:  CLRF   FAA
05A18:  MOVFF  386,FA9
05A1C:  BCF    FA6.6
05A1E:  BCF    FA6.7
05A20:  BSF    FA6.0
05A22:  MOVF   FA8,W
05A24:  BTFSC  x88.7
05A26:  BSF    FF2.7
05A28:  MOVWF  x77
05A2A:  MOVLW  03
05A2C:  ADDWF  x74,W
05A2E:  MOVWF  x86
05A30:  MOVFF  FF2,389
05A34:  BCF    FF2.7
05A36:  CLRF   FAA
05A38:  MOVFF  386,FA9
05A3C:  BCF    FA6.6
05A3E:  BCF    FA6.7
05A40:  BSF    FA6.0
05A42:  MOVF   FA8,W
05A44:  BTFSC  x89.7
05A46:  BSF    FF2.7
05A48:  MOVWF  x78
....................                 
....................                if(on_hr  > 23) on_hr  = 0; 
05A4A:  MOVF   x75,W
05A4C:  SUBLW  17
05A4E:  BC    5A52
05A50:  CLRF   x75
....................                if(on_min > 59) on_min = 0; 
05A52:  MOVF   x76,W
05A54:  SUBLW  3B
05A56:  BC    5A5A
05A58:  CLRF   x76
....................                if(off_hr > 23) off_hr = 0; 
05A5A:  MOVF   x77,W
05A5C:  SUBLW  17
05A5E:  BC    5A62
05A60:  CLRF   x77
....................                if(off_min> 59) off_min= 0; 
05A62:  MOVF   x78,W
05A64:  SUBLW  3B
05A66:  BC    5A6A
05A68:  CLRF   x78
....................                 
....................                int8 orig_on_hr  = on_hr; 
....................                int8 orig_on_min = on_min; 
....................                int8 orig_off_hr = off_hr; 
....................                int8 orig_off_min= off_min; 
....................                 
....................                int8 field = 0; 
....................                int8 last_field   = 255; 
....................                int8 last_on_hr   = 255; 
....................                int8 last_on_min  = 255; 
....................                int8 last_off_hr  = 255; 
....................                int8 last_off_min = 255; 
....................                int1 button_pressed_flag = 0; 
05A6A:  MOVFF  375,379
05A6E:  MOVFF  376,37A
05A72:  MOVFF  377,37B
05A76:  MOVFF  378,37C
05A7A:  CLRF   x7D
05A7C:  SETF   x7E
05A7E:  SETF   x7F
05A80:  SETF   x80
05A82:  SETF   x81
05A84:  SETF   x82
05A86:  BCF    x83.0
....................                 
....................                lcd_cmd(LCD_CLEAR); 
05A88:  MOVLW  01
05A8A:  MOVWF  xA8
05A8C:  MOVLB  0
05A8E:  CALL   0E5E
....................                 
....................                while(1) { 
....................                 
....................                   if(field != last_field || on_hr != last_on_hr ||  
....................                      on_min != last_on_min || off_hr != last_off_hr ||  
....................                      off_min != last_off_min) { 
05A92:  MOVLB  3
05A94:  MOVF   x7E,W
05A96:  SUBWF  x7D,W
05A98:  BNZ   5AB4
05A9A:  MOVF   x7F,W
05A9C:  SUBWF  x75,W
05A9E:  BNZ   5AB4
05AA0:  MOVF   x80,W
05AA2:  SUBWF  x76,W
05AA4:  BNZ   5AB4
05AA6:  MOVF   x81,W
05AA8:  SUBWF  x77,W
05AAA:  BNZ   5AB4
05AAC:  MOVF   x82,W
05AAE:  SUBWF  x78,W
05AB0:  BTFSC  FD8.2
05AB2:  BRA    5C92
....................                       
....................                      lcd_goto(1, 1); 
05AB4:  MOVLW  01
05AB6:  MOVWF  xA5
05AB8:  MOVWF  xA6
05ABA:  MOVLB  0
05ABC:  CALL   119A
....................                      printf(lcd_out, "ON :"); 
05AC0:  MOVLW  7C
05AC2:  MOVWF  FF6
05AC4:  MOVLW  0A
05AC6:  MOVWF  FF7
05AC8:  CALL   125C
....................                      if(field == 0) printf(lcd_out, "[%02u]", on_hr); 
05ACC:  MOVLB  3
05ACE:  MOVF   x7D,F
05AD0:  BNZ   5AFA
05AD2:  MOVLW  5B
05AD4:  MOVWF  xAE
05AD6:  MOVLB  0
05AD8:  CALL   122E
05ADC:  MOVFF  375,386
05AE0:  MOVLW  01
05AE2:  MOVLB  3
05AE4:  MOVWF  x87
05AE6:  MOVLB  0
05AE8:  RCALL  5616
05AEA:  MOVLW  5D
05AEC:  MOVLB  3
05AEE:  MOVWF  xAE
05AF0:  MOVLB  0
05AF2:  CALL   122E
05AF6:  BRA    5B1E
05AF8:  MOVLB  3
....................                      else           printf(lcd_out, " %02u ", on_hr); 
05AFA:  MOVLW  20
05AFC:  MOVWF  xAE
05AFE:  MOVLB  0
05B00:  CALL   122E
05B04:  MOVFF  375,386
05B08:  MOVLW  01
05B0A:  MOVLB  3
05B0C:  MOVWF  x87
05B0E:  MOVLB  0
05B10:  RCALL  5616
05B12:  MOVLW  20
05B14:  MOVLB  3
05B16:  MOVWF  xAE
05B18:  MOVLB  0
05B1A:  CALL   122E
....................                      printf(lcd_out, ":"); 
05B1E:  MOVLW  3A
05B20:  MOVLB  3
05B22:  MOVWF  xAE
05B24:  MOVLB  0
05B26:  CALL   122E
....................                      if(field == 1) printf(lcd_out, "[%02u] ", on_min); 
05B2A:  MOVLB  3
05B2C:  DECFSZ x7D,W
05B2E:  BRA    5B64
05B30:  MOVLW  5B
05B32:  MOVWF  xAE
05B34:  MOVLB  0
05B36:  CALL   122E
05B3A:  MOVFF  376,386
05B3E:  MOVLW  01
05B40:  MOVLB  3
05B42:  MOVWF  x87
05B44:  MOVLB  0
05B46:  RCALL  5616
05B48:  MOVLW  5D
05B4A:  MOVLB  3
05B4C:  MOVWF  xAE
05B4E:  MOVLB  0
05B50:  CALL   122E
05B54:  MOVLW  20
05B56:  MOVLB  3
05B58:  MOVWF  xAE
05B5A:  MOVLB  0
05B5C:  CALL   122E
05B60:  BRA    5B94
05B62:  MOVLB  3
....................                      else           printf(lcd_out, " %02u  ", on_min); 
05B64:  MOVLW  20
05B66:  MOVWF  xAE
05B68:  MOVLB  0
05B6A:  CALL   122E
05B6E:  MOVFF  376,386
05B72:  MOVLW  01
05B74:  MOVLB  3
05B76:  MOVWF  x87
05B78:  MOVLB  0
05B7A:  RCALL  5616
05B7C:  MOVLW  20
05B7E:  MOVLB  3
05B80:  MOVWF  xAE
05B82:  MOVLB  0
05B84:  CALL   122E
05B88:  MOVLW  20
05B8A:  MOVLB  3
05B8C:  MOVWF  xAE
05B8E:  MOVLB  0
05B90:  CALL   122E
....................                       
....................                      lcd_goto(1, 2); 
05B94:  MOVLW  01
05B96:  MOVLB  3
05B98:  MOVWF  xA5
05B9A:  MOVLW  02
05B9C:  MOVWF  xA6
05B9E:  MOVLB  0
05BA0:  CALL   119A
....................                      printf(lcd_out, "OFF:"); 
05BA4:  MOVLW  82
05BA6:  MOVWF  FF6
05BA8:  MOVLW  0A
05BAA:  MOVWF  FF7
05BAC:  CALL   125C
....................                      if(field == 2) printf(lcd_out, "[%02u]", off_hr); 
05BB0:  MOVLB  3
05BB2:  MOVF   x7D,W
05BB4:  SUBLW  02
05BB6:  BNZ   5BE0
05BB8:  MOVLW  5B
05BBA:  MOVWF  xAE
05BBC:  MOVLB  0
05BBE:  CALL   122E
05BC2:  MOVFF  377,386
05BC6:  MOVLW  01
05BC8:  MOVLB  3
05BCA:  MOVWF  x87
05BCC:  MOVLB  0
05BCE:  RCALL  5616
05BD0:  MOVLW  5D
05BD2:  MOVLB  3
05BD4:  MOVWF  xAE
05BD6:  MOVLB  0
05BD8:  CALL   122E
05BDC:  BRA    5C04
05BDE:  MOVLB  3
....................                      else           printf(lcd_out, " %02u ", off_hr); 
05BE0:  MOVLW  20
05BE2:  MOVWF  xAE
05BE4:  MOVLB  0
05BE6:  CALL   122E
05BEA:  MOVFF  377,386
05BEE:  MOVLW  01
05BF0:  MOVLB  3
05BF2:  MOVWF  x87
05BF4:  MOVLB  0
05BF6:  RCALL  5616
05BF8:  MOVLW  20
05BFA:  MOVLB  3
05BFC:  MOVWF  xAE
05BFE:  MOVLB  0
05C00:  CALL   122E
....................                      printf(lcd_out, ":"); 
05C04:  MOVLW  3A
05C06:  MOVLB  3
05C08:  MOVWF  xAE
05C0A:  MOVLB  0
05C0C:  CALL   122E
....................                      if(field == 3) printf(lcd_out, "[%02u] ", off_min); 
05C10:  MOVLB  3
05C12:  MOVF   x7D,W
05C14:  SUBLW  03
05C16:  BNZ   5C4C
05C18:  MOVLW  5B
05C1A:  MOVWF  xAE
05C1C:  MOVLB  0
05C1E:  CALL   122E
05C22:  MOVFF  378,386
05C26:  MOVLW  01
05C28:  MOVLB  3
05C2A:  MOVWF  x87
05C2C:  MOVLB  0
05C2E:  RCALL  5616
05C30:  MOVLW  5D
05C32:  MOVLB  3
05C34:  MOVWF  xAE
05C36:  MOVLB  0
05C38:  CALL   122E
05C3C:  MOVLW  20
05C3E:  MOVLB  3
05C40:  MOVWF  xAE
05C42:  MOVLB  0
05C44:  CALL   122E
05C48:  BRA    5C7C
05C4A:  MOVLB  3
....................                      else           printf(lcd_out, " %02u  ", off_min); 
05C4C:  MOVLW  20
05C4E:  MOVWF  xAE
05C50:  MOVLB  0
05C52:  CALL   122E
05C56:  MOVFF  378,386
05C5A:  MOVLW  01
05C5C:  MOVLB  3
05C5E:  MOVWF  x87
05C60:  MOVLB  0
05C62:  RCALL  5616
05C64:  MOVLW  20
05C66:  MOVLB  3
05C68:  MOVWF  xAE
05C6A:  MOVLB  0
05C6C:  CALL   122E
05C70:  MOVLW  20
05C72:  MOVLB  3
05C74:  MOVWF  xAE
05C76:  MOVLB  0
05C78:  CALL   122E
....................                       
....................                      last_field   = field; 
05C7C:  MOVFF  37D,37E
....................                      last_on_hr   = on_hr; 
05C80:  MOVFF  375,37F
....................                      last_on_min  = on_min; 
05C84:  MOVFF  376,380
....................                      last_off_hr  = off_hr; 
05C88:  MOVFF  377,381
....................                      last_off_min = off_min; 
05C8C:  MOVFF  378,382
05C90:  MOVLB  3
....................                   } 
....................                    
....................                   if(input(ENCODER_A) == 0 && input(ENCODER_B) != 0) { 
05C92:  BTFSC  F82.5
05C94:  BRA    5CFA
05C96:  BSF    F92.4
05C98:  BTFSS  F80.4
05C9A:  BRA    5CFA
....................                      delay_ms(5); 
05C9C:  MOVLW  05
05C9E:  MOVWF  xA9
05CA0:  MOVLB  0
05CA2:  CALL   0DA4
....................                      switch(field) { 
05CA6:  MOVLB  3
05CA8:  MOVF   x7D,W
05CAA:  ADDLW  FC
05CAC:  BC    5CE8
05CAE:  ADDLW  04
05CB0:  MOVLB  0
05CB2:  GOTO   5FBE
....................                         case 0: if(on_hr  < 23) on_hr++;  break; 
05CB6:  MOVLB  3
05CB8:  MOVF   x75,W
05CBA:  SUBLW  16
05CBC:  BNC   5CC0
05CBE:  INCF   x75,F
05CC0:  BRA    5CE8
....................                         case 1: if(on_min < 59) on_min++; break; 
05CC2:  MOVLB  3
05CC4:  MOVF   x76,W
05CC6:  SUBLW  3A
05CC8:  BNC   5CCC
05CCA:  INCF   x76,F
05CCC:  BRA    5CE8
....................                         case 2: if(off_hr < 23) off_hr++; break; 
05CCE:  MOVLB  3
05CD0:  MOVF   x77,W
05CD2:  SUBLW  16
05CD4:  BNC   5CD8
05CD6:  INCF   x77,F
05CD8:  BRA    5CE8
....................                         case 3: if(off_min< 59) off_min++;break; 
05CDA:  MOVLB  3
05CDC:  MOVF   x78,W
05CDE:  SUBLW  3A
05CE0:  BNC   5CE4
05CE2:  INCF   x78,F
05CE4:  BRA    5CE8
05CE6:  MOVLB  3
....................                      } 
....................                      while(input(ENCODER_A) == 0); 
05CE8:  BTFSS  F82.5
05CEA:  BRA    5CE8
....................                      delay_ms(30); 
05CEC:  MOVLW  1E
05CEE:  MOVWF  xA9
05CF0:  MOVLB  0
05CF2:  CALL   0DA4
....................                   } 
05CF6:  BRA    5D58
05CF8:  MOVLB  3
....................                   else if(input(ENCODER_B) == 0 && input(ENCODER_A) != 0) { 
05CFA:  BSF    F92.4
05CFC:  BTFSC  F80.4
05CFE:  BRA    5D5A
05D00:  BTFSS  F82.5
05D02:  BRA    5D5A
....................                      delay_ms(5); 
05D04:  MOVLW  05
05D06:  MOVWF  xA9
05D08:  MOVLB  0
05D0A:  CALL   0DA4
....................                      switch(field) { 
05D0E:  MOVLB  3
05D10:  MOVF   x7D,W
05D12:  ADDLW  FC
05D14:  BC    5D48
05D16:  ADDLW  04
05D18:  MOVLB  0
05D1A:  GOTO   5FEA
....................                         case 0: if(on_hr  > 0) on_hr--;  break; 
05D1E:  MOVLB  3
05D20:  MOVF   x75,F
05D22:  BZ    5D26
05D24:  DECF   x75,F
05D26:  BRA    5D48
....................                         case 1: if(on_min > 0) on_min--; break; 
05D28:  MOVLB  3
05D2A:  MOVF   x76,F
05D2C:  BZ    5D30
05D2E:  DECF   x76,F
05D30:  BRA    5D48
....................                         case 2: if(off_hr > 0) off_hr--; break; 
05D32:  MOVLB  3
05D34:  MOVF   x77,F
05D36:  BZ    5D3A
05D38:  DECF   x77,F
05D3A:  BRA    5D48
....................                         case 3: if(off_min> 0) off_min--;break; 
05D3C:  MOVLB  3
05D3E:  MOVF   x78,F
05D40:  BZ    5D44
05D42:  DECF   x78,F
05D44:  BRA    5D48
05D46:  MOVLB  3
....................                      } 
....................                      while(input(ENCODER_B) == 0); 
05D48:  BSF    F92.4
05D4A:  BTFSS  F80.4
05D4C:  BRA    5D48
....................                      delay_ms(30); 
05D4E:  MOVLW  1E
05D50:  MOVWF  xA9
05D52:  MOVLB  0
05D54:  CALL   0DA4
05D58:  MOVLB  3
....................                   } 
....................                    
....................                   if(input(KEY1) == 0) { 
05D5A:  BTFSC  F81.3
05D5C:  BRA    5D8E
....................                      delay_ms(30); 
05D5E:  MOVLW  1E
05D60:  MOVWF  xA9
05D62:  MOVLB  0
05D64:  CALL   0DA4
....................                      field = (field + 1) % 4; 
05D68:  MOVLW  01
05D6A:  MOVLB  3
05D6C:  ADDWF  x7D,W
05D6E:  ANDLW  03
05D70:  MOVWF  x7D
....................                      int8 timeout = 50; 
05D72:  MOVLW  32
05D74:  MOVWF  x84
....................                      while(input(KEY1) == 0 && timeout > 0) { 
05D76:  BTFSC  F81.3
05D78:  BRA    5D8E
05D7A:  MOVF   x84,F
05D7C:  BZ    5D8E
....................                         delay_ms(10); 
05D7E:  MOVLW  0A
05D80:  MOVWF  xA9
05D82:  MOVLB  0
05D84:  CALL   0DA4
....................                         timeout--; 
05D88:  MOVLB  3
05D8A:  DECF   x84,F
05D8C:  BRA    5D76
....................                      } 
....................                   } 
....................                    
....................                   if(input(ENCODER_SW) == 0 && button_pressed_flag == 0) { 
05D8E:  BTFSC  F81.6
05D90:  BRA    5F7C
05D92:  BTFSC  x83.0
05D94:  BRA    5F7C
....................                      delay_ms(20); 
05D96:  MOVLW  14
05D98:  MOVWF  xA9
05D9A:  MOVLB  0
05D9C:  CALL   0DA4
....................                      if(input(ENCODER_SW) == 0) { 
05DA0:  BTFSC  F81.6
05DA2:  BRA    5F78
....................                         button_pressed_flag = 1; 
05DA4:  MOVLB  3
05DA6:  BSF    x83.0
....................                          
....................                         write_eeprom(base + 0, on_hr); 
05DA8:  MOVF   FF2,W
05DAA:  MOVWF  00
05DAC:  BCF    FF2.7
05DAE:  CLRF   FAA
05DB0:  MOVFF  374,FA9
05DB4:  MOVFF  375,FA8
05DB8:  BCF    FA6.6
05DBA:  BCF    FA6.7
05DBC:  BSF    FA6.2
05DBE:  MOVLB  F
05DC0:  MOVLW  55
05DC2:  MOVWF  FA7
05DC4:  MOVLW  AA
05DC6:  MOVWF  FA7
05DC8:  BSF    FA6.1
05DCA:  BTFSC  FA6.1
05DCC:  BRA    5DCA
05DCE:  BCF    FA6.2
05DD0:  MOVF   00,W
05DD2:  IORWF  FF2,F
....................                         write_eeprom(base + 1, on_min); 
05DD4:  MOVLW  01
05DD6:  MOVLB  3
05DD8:  ADDWF  x74,W
05DDA:  MOVWF  x85
05DDC:  MOVF   FF2,W
05DDE:  MOVWF  00
05DE0:  BCF    FF2.7
05DE2:  CLRF   FAA
05DE4:  MOVFF  385,FA9
05DE8:  MOVFF  376,FA8
05DEC:  BCF    FA6.6
05DEE:  BCF    FA6.7
05DF0:  BSF    FA6.2
05DF2:  MOVLB  F
05DF4:  MOVLW  55
05DF6:  MOVWF  FA7
05DF8:  MOVLW  AA
05DFA:  MOVWF  FA7
05DFC:  BSF    FA6.1
05DFE:  BTFSC  FA6.1
05E00:  BRA    5DFE
05E02:  BCF    FA6.2
05E04:  MOVF   00,W
05E06:  IORWF  FF2,F
....................                         write_eeprom(base + 2, off_hr); 
05E08:  MOVLW  02
05E0A:  MOVLB  3
05E0C:  ADDWF  x74,W
05E0E:  MOVWF  x85
05E10:  MOVF   FF2,W
05E12:  MOVWF  00
05E14:  BCF    FF2.7
05E16:  CLRF   FAA
05E18:  MOVFF  385,FA9
05E1C:  MOVFF  377,FA8
05E20:  BCF    FA6.6
05E22:  BCF    FA6.7
05E24:  BSF    FA6.2
05E26:  MOVLB  F
05E28:  MOVLW  55
05E2A:  MOVWF  FA7
05E2C:  MOVLW  AA
05E2E:  MOVWF  FA7
05E30:  BSF    FA6.1
05E32:  BTFSC  FA6.1
05E34:  BRA    5E32
05E36:  BCF    FA6.2
05E38:  MOVF   00,W
05E3A:  IORWF  FF2,F
....................                         write_eeprom(base + 3, off_min); 
05E3C:  MOVLW  03
05E3E:  MOVLB  3
05E40:  ADDWF  x74,W
05E42:  MOVWF  x85
05E44:  MOVF   FF2,W
05E46:  MOVWF  00
05E48:  BCF    FF2.7
05E4A:  CLRF   FAA
05E4C:  MOVFF  385,FA9
05E50:  MOVFF  378,FA8
05E54:  BCF    FA6.6
05E56:  BCF    FA6.7
05E58:  BSF    FA6.2
05E5A:  MOVLB  F
05E5C:  MOVLW  55
05E5E:  MOVWF  FA7
05E60:  MOVLW  AA
05E62:  MOVWF  FA7
05E64:  BSF    FA6.1
05E66:  BTFSC  FA6.1
05E68:  BRA    5E66
05E6A:  BCF    FA6.2
05E6C:  MOVF   00,W
05E6E:  IORWF  FF2,F
....................                          
....................                     lcd_cmd(LCD_CLEAR); 
05E70:  MOVLW  01
05E72:  MOVLB  3
05E74:  MOVWF  xA8
05E76:  MOVLB  0
05E78:  CALL   0E5E
....................  
....................                   lcd_goto(1,1); 
05E7C:  MOVLW  01
05E7E:  MOVLB  3
05E80:  MOVWF  xA5
05E82:  MOVWF  xA6
05E84:  MOVLB  0
05E86:  CALL   119A
....................                   printf(lcd_out,"ON  TIMER %d  OFF", t+1); 
05E8A:  MOVLW  01
05E8C:  MOVLB  3
05E8E:  ADDWF  x73,W
05E90:  MOVWF  x85
05E92:  MOVLW  88
05E94:  MOVWF  FF6
05E96:  MOVLW  0A
05E98:  MOVWF  FF7
05E9A:  MOVLW  0A
05E9C:  MOVWF  xA5
05E9E:  MOVLB  0
05EA0:  CALL   18B8
05EA4:  MOVFF  385,387
05EA8:  MOVLW  18
05EAA:  MOVLB  3
05EAC:  MOVWF  x88
05EAE:  MOVLB  0
05EB0:  CALL   1F7C
05EB4:  MOVLW  94
05EB6:  MOVWF  FF6
05EB8:  MOVLW  0A
05EBA:  MOVWF  FF7
05EBC:  MOVLW  05
05EBE:  MOVLB  3
05EC0:  MOVWF  xA5
05EC2:  MOVLB  0
05EC4:  CALL   18B8
....................                    
....................                   lcd_goto(1,2); 
05EC8:  MOVLW  01
05ECA:  MOVLB  3
05ECC:  MOVWF  xA5
05ECE:  MOVLW  02
05ED0:  MOVWF  xA6
05ED2:  MOVLB  0
05ED4:  CALL   119A
....................                   printf(lcd_out,"%02u:%02u      %02u:%02u", on_hr, on_min, off_hr, off_min); 
05ED8:  MOVFF  375,386
05EDC:  MOVLW  01
05EDE:  MOVLB  3
05EE0:  MOVWF  x87
05EE2:  MOVLB  0
05EE4:  CALL   5616
05EE8:  MOVLW  3A
05EEA:  MOVLB  3
05EEC:  MOVWF  xAE
05EEE:  MOVLB  0
05EF0:  CALL   122E
05EF4:  MOVFF  376,386
05EF8:  MOVLW  01
05EFA:  MOVLB  3
05EFC:  MOVWF  x87
05EFE:  MOVLB  0
05F00:  CALL   5616
05F04:  MOVLW  A3
05F06:  MOVWF  FF6
05F08:  MOVLW  0A
05F0A:  MOVWF  FF7
05F0C:  MOVLW  06
05F0E:  MOVLB  3
05F10:  MOVWF  xA5
05F12:  MOVLB  0
05F14:  CALL   18B8
05F18:  MOVFF  377,386
05F1C:  MOVLW  01
05F1E:  MOVLB  3
05F20:  MOVWF  x87
05F22:  MOVLB  0
05F24:  CALL   5616
05F28:  MOVLW  3A
05F2A:  MOVLB  3
05F2C:  MOVWF  xAE
05F2E:  MOVLB  0
05F30:  CALL   122E
05F34:  MOVFF  378,386
05F38:  MOVLW  01
05F3A:  MOVLB  3
05F3C:  MOVWF  x87
05F3E:  MOVLB  0
05F40:  CALL   5616
....................                          
....................                         // Wait for button release first (from save press) 
....................                         while(input(ENCODER_SW) == 0); 
05F44:  BTFSS  F81.6
05F46:  BRA    5F44
....................                         delay_ms(50); 
05F48:  MOVLW  32
05F4A:  MOVLB  3
05F4C:  MOVWF  xA9
05F4E:  MOVLB  0
05F50:  CALL   0DA4
....................                          
....................                         // Stay on saved screen - wait for fresh ENTER press 
....................                         while(input(ENCODER_SW) == 1); 
05F54:  BTFSC  F81.6
05F56:  BRA    5F54
....................                         delay_ms(20); 
05F58:  MOVLW  14
05F5A:  MOVLB  3
05F5C:  MOVWF  xA9
05F5E:  MOVLB  0
05F60:  CALL   0DA4
....................                         while(input(ENCODER_SW) == 0); 
05F64:  BTFSS  F81.6
05F66:  BRA    5F64
....................                         delay_ms(50); 
05F68:  MOVLW  32
05F6A:  MOVLB  3
05F6C:  MOVWF  xA9
05F6E:  MOVLB  0
05F70:  CALL   0DA4
....................                          
....................                         break; 
05F74:  BRA    5F96
....................                      } 
05F76:  BRA    5F7E
....................                      else { 
....................                         button_pressed_flag = 0; 
05F78:  MOVLB  3
05F7A:  BCF    x83.0
05F7C:  MOVLB  0
....................                      } 
....................                   } 
....................                    
....................                   if(input(ENCODER_SW) != 0) { 
05F7E:  BTFSS  F81.6
05F80:  BRA    5F88
....................                      button_pressed_flag = 0; 
05F82:  MOVLB  3
05F84:  BCF    x83.0
05F86:  MOVLB  0
....................                   } 
....................                    
....................                   delay_ms(1); 
05F88:  MOVLW  01
05F8A:  MOVLB  3
05F8C:  MOVWF  xA9
05F8E:  MOVLB  0
05F90:  CALL   0DA4
05F94:  BRA    5A92
....................                } 
....................                 
....................                // After breaking from edit loop, force redraw of submenu 
....................                last_sub_sel = 255;  
05F96:  MOVLB  3
05F98:  SETF   x72
05F9A:  MOVLB  0
....................             } 
....................          } 
....................       } 
05F9C:  MOVLB  3
05F9E:  BRA    583A
....................    } 
....................     
....................    lcd_cmd(LCD_CLEAR); 
05FA0:  MOVLW  01
05FA2:  MOVWF  xA8
05FA4:  MOVLB  0
05FA6:  CALL   0E5E
....................    delay_ms(100); 
05FAA:  MOVLW  64
05FAC:  MOVLB  3
05FAE:  MOVWF  xA9
05FB0:  MOVLB  0
05FB2:  CALL   0DA4
....................    advance_to_next_menu(); 
05FB6:  CALL   2244
05FBA:  GOTO   743E (RETURN)
.................... } 
.................... void handle_auto_restart_mode() { 
....................    while (input(ENCODER_SW) == 0); 
*
06016:  BTFSS  F81.6
06018:  BRA    6016
....................    lcd_cmd(LCD_CLEAR);  
0601A:  MOVLW  01
0601C:  MOVLB  3
0601E:  MOVWF  xA8
06020:  MOVLB  0
06022:  CALL   0E5E
....................    lcd_goto(1, 1); 
06026:  MOVLW  01
06028:  MOVLB  3
0602A:  MOVWF  xA5
0602C:  MOVWF  xA6
0602E:  MOVLB  0
06030:  CALL   119A
....................    printf(lcd_out, "9.AUTO RESTART"); 
06034:  MOVLW  B4
06036:  MOVWF  FF6
06038:  MOVLW  0A
0603A:  MOVWF  FF7
0603C:  CALL   125C
....................     
....................    int8 auto_restart = read_eeprom(0x35); 
....................    int8 original_mode = auto_restart; 
....................    int8 last_displayed = 255; 
....................    int1 button_pressed_flag = 0;  
06040:  MOVFF  FF2,303
06044:  BCF    FF2.7
06046:  CLRF   FAA
06048:  MOVLW  35
0604A:  MOVWF  FA9
0604C:  BCF    FA6.6
0604E:  BCF    FA6.7
06050:  BSF    FA6.0
06052:  MOVF   FA8,W
06054:  MOVLB  3
06056:  BTFSC  x03.7
06058:  BSF    FF2.7
0605A:  MOVLB  2
0605C:  MOVWF  xFF
0605E:  MOVFF  2FF,300
06062:  MOVLB  3
06064:  SETF   x01
06066:  BCF    x02.0
....................      
....................    lcd_goto(1, 2); 
06068:  MOVLW  01
0606A:  MOVWF  xA5
0606C:  MOVLW  02
0606E:  MOVWF  xA6
06070:  MOVLB  0
06072:  CALL   119A
....................    if (auto_restart == 0) 
06076:  MOVLB  2
06078:  MOVF   xFF,F
0607A:  BNZ   608E
....................       printf(lcd_out, ">> MODE: AUTO     "); 
0607C:  MOVLW  C4
0607E:  MOVWF  FF6
06080:  MOVLW  0A
06082:  MOVWF  FF7
06084:  MOVLB  0
06086:  CALL   125C
0608A:  BRA    609C
0608C:  MOVLB  2
....................    else 
....................       printf(lcd_out, ">> MODE: MANUAL   "); 
0608E:  MOVLW  D8
06090:  MOVWF  FF6
06092:  MOVLW  0A
06094:  MOVWF  FF7
06096:  MOVLB  0
06098:  CALL   125C
....................     
....................    while (1) { 
....................       if (input(ENCODER_A) == 0 && input(ENCODER_B) != 0) { 
0609C:  BTFSC  F82.5
0609E:  BRA    60C6
060A0:  BSF    F92.4
060A2:  BTFSS  F80.4
060A4:  BRA    60C6
....................          delay_ms(5); 
060A6:  MOVLW  05
060A8:  MOVLB  3
060AA:  MOVWF  xA9
060AC:  MOVLB  0
060AE:  CALL   0DA4
....................          auto_restart++; 
060B2:  MOVLB  2
060B4:  INCF   xFF,F
....................          if (auto_restart > 1) auto_restart = 0; 
060B6:  MOVF   xFF,W
060B8:  SUBLW  01
060BA:  BC    60BE
060BC:  CLRF   xFF
....................          while (input(ENCODER_A) == 0); 
060BE:  BTFSS  F82.5
060C0:  BRA    60BE
....................       } 
060C2:  BRA    60F0
060C4:  MOVLB  0
....................       else if (input(ENCODER_B) == 0 && input(ENCODER_A) != 0) { 
060C6:  BSF    F92.4
060C8:  BTFSC  F80.4
060CA:  BRA    60F2
060CC:  BTFSS  F82.5
060CE:  BRA    60F2
....................          delay_ms(5); 
060D0:  MOVLW  05
060D2:  MOVLB  3
060D4:  MOVWF  xA9
060D6:  MOVLB  0
060D8:  CALL   0DA4
....................          if (auto_restart == 0) 
060DC:  MOVLB  2
060DE:  MOVF   xFF,F
060E0:  BNZ   60E8
....................             auto_restart = 1; 
060E2:  MOVLW  01
060E4:  MOVWF  xFF
060E6:  BRA    60EA
....................          else 
....................             auto_restart--; 
060E8:  DECF   xFF,F
....................          while (input(ENCODER_B) == 0); 
060EA:  BSF    F92.4
060EC:  BTFSS  F80.4
060EE:  BRA    60EA
060F0:  MOVLB  0
....................       } 
....................        
....................       if (auto_restart != last_displayed) { 
060F2:  MOVLB  3
060F4:  MOVF   x01,W
060F6:  MOVLB  2
060F8:  SUBWF  xFF,W
060FA:  BZ    6138
....................          lcd_goto(1, 2); 
060FC:  MOVLW  01
060FE:  MOVLB  3
06100:  MOVWF  xA5
06102:  MOVLW  02
06104:  MOVWF  xA6
06106:  MOVLB  0
06108:  CALL   119A
....................          if (auto_restart == 0) 
0610C:  MOVLB  2
0610E:  MOVF   xFF,F
06110:  BNZ   6124
....................             printf(lcd_out, ">> MODE: AUTO     "); 
06112:  MOVLW  EC
06114:  MOVWF  FF6
06116:  MOVLW  0A
06118:  MOVWF  FF7
0611A:  MOVLB  0
0611C:  CALL   125C
06120:  BRA    6132
06122:  MOVLB  2
....................          else 
....................             printf(lcd_out, ">> MODE: MANUAL   "); 
06124:  MOVLW  00
06126:  MOVWF  FF6
06128:  MOVLW  0B
0612A:  MOVWF  FF7
0612C:  MOVLB  0
0612E:  CALL   125C
....................          last_displayed = auto_restart; 
06132:  MOVFF  2FF,301
06136:  MOVLB  2
....................       } 
....................        
....................       if (input(ENCODER_SW) == 0 && button_pressed_flag == 0) { 
06138:  BTFSC  F81.6
0613A:  BRA    62DC
0613C:  MOVLB  3
0613E:  BTFSS  x02.0
06140:  BRA    6146
06142:  MOVLB  2
06144:  BRA    62DC
....................          delay_ms(20); 
06146:  MOVLW  14
06148:  MOVWF  xA9
0614A:  MOVLB  0
0614C:  CALL   0DA4
....................          if (input(ENCODER_SW) == 0) { 
06150:  BTFSC  F81.6
06152:  BRA    62D4
....................             button_pressed_flag = 1; 
06154:  MOVLB  3
06156:  BSF    x02.0
....................              
....................             if (auto_restart != original_mode) { 
06158:  MOVF   x00,W
0615A:  MOVLB  2
0615C:  SUBWF  xFF,W
0615E:  BZ    623E
....................                write_eeprom(0x35, auto_restart); 
06160:  MOVF   FF2,W
06162:  MOVWF  00
06164:  BCF    FF2.7
06166:  CLRF   FAA
06168:  MOVLW  35
0616A:  MOVWF  FA9
0616C:  MOVFF  2FF,FA8
06170:  BCF    FA6.6
06172:  BCF    FA6.7
06174:  BSF    FA6.2
06176:  MOVLB  F
06178:  MOVLW  55
0617A:  MOVWF  FA7
0617C:  MOVLW  AA
0617E:  MOVWF  FA7
06180:  BSF    FA6.1
06182:  BTFSC  FA6.1
06184:  BRA    6182
06186:  BCF    FA6.2
06188:  MOVF   00,W
0618A:  IORWF  FF2,F
....................                 
....................                lcd_cmd(LCD_CLEAR);  
0618C:  MOVLW  01
0618E:  MOVLB  3
06190:  MOVWF  xA8
06192:  MOVLB  0
06194:  CALL   0E5E
....................                lcd_goto(1, 1); 
06198:  MOVLW  01
0619A:  MOVLB  3
0619C:  MOVWF  xA5
0619E:  MOVWF  xA6
061A0:  MOVLB  0
061A2:  CALL   119A
....................                printf(lcd_out, "MODE SAVED!"); 
061A6:  MOVLW  14
061A8:  MOVWF  FF6
061AA:  MOVLW  0B
061AC:  MOVWF  FF7
061AE:  CALL   125C
....................                lcd_goto(1, 2); 
061B2:  MOVLW  01
061B4:  MOVLB  3
061B6:  MOVWF  xA5
061B8:  MOVLW  02
061BA:  MOVWF  xA6
061BC:  MOVLB  0
061BE:  CALL   119A
....................                if (auto_restart == 0) 
061C2:  MOVLB  2
061C4:  MOVF   xFF,F
061C6:  BNZ   61DA
....................                   printf(lcd_out, "MODE: AUTO   "); 
061C8:  MOVLW  20
061CA:  MOVWF  FF6
061CC:  MOVLW  0B
061CE:  MOVWF  FF7
061D0:  MOVLB  0
061D2:  CALL   125C
061D6:  BRA    61E8
061D8:  MOVLB  2
....................                else 
....................                   printf(lcd_out, "MODE: MANUAL "); 
061DA:  MOVLW  2E
061DC:  MOVWF  FF6
061DE:  MOVLW  0B
061E0:  MOVWF  FF7
061E2:  MOVLB  0
061E4:  CALL   125C
....................                 
....................                while (input(ENCODER_SW) == 0) { 
061E8:  BTFSC  F81.6
061EA:  BRA    61FA
....................                   delay_ms(10); 
061EC:  MOVLW  0A
061EE:  MOVLB  3
061F0:  MOVWF  xA9
061F2:  MOVLB  0
061F4:  CALL   0DA4
061F8:  BRA    61E8
....................                } 
....................                // ===== CHANGED: Press ENTER to proceed ===== 
....................                lcd_goto(1, 2); 
061FA:  MOVLW  01
061FC:  MOVLB  3
061FE:  MOVWF  xA5
06200:  MOVLW  02
06202:  MOVWF  xA6
06204:  MOVLB  0
06206:  CALL   119A
....................                printf(lcd_out, "Press ENTER     "); 
0620A:  MOVLW  3C
0620C:  MOVWF  FF6
0620E:  MOVLW  0B
06210:  MOVWF  FF7
06212:  CALL   125C
....................                while(input(ENCODER_SW) == 1); 
06216:  BTFSC  F81.6
06218:  BRA    6216
....................                delay_ms(20); 
0621A:  MOVLW  14
0621C:  MOVLB  3
0621E:  MOVWF  xA9
06220:  MOVLB  0
06222:  CALL   0DA4
....................                while(input(ENCODER_SW) == 0); 
06226:  BTFSS  F81.6
06228:  BRA    6226
....................                delay_ms(50); 
0622A:  MOVLW  32
0622C:  MOVLB  3
0622E:  MOVWF  xA9
06230:  MOVLB  0
06232:  CALL   0DA4
....................                // ===== END CHANGE ===== 
....................                advance_to_next_menu(); 
06236:  CALL   2244
....................             } 
0623A:  BRA    62B8
0623C:  MOVLB  2
....................             else { 
....................                while (input(ENCODER_SW) == 0) { 
0623E:  BTFSC  F81.6
06240:  BRA    6252
....................                   delay_ms(10); 
06242:  MOVLW  0A
06244:  MOVLB  3
06246:  MOVWF  xA9
06248:  MOVLB  0
0624A:  CALL   0DA4
0624E:  MOVLB  2
06250:  BRA    623E
....................                } 
....................                // ===== CHANGED: No Change + Press ENTER ===== 
....................                lcd_cmd(LCD_CLEAR); 
06252:  MOVLW  01
06254:  MOVLB  3
06256:  MOVWF  xA8
06258:  MOVLB  0
0625A:  CALL   0E5E
....................                lcd_goto(1, 1); 
0625E:  MOVLW  01
06260:  MOVLB  3
06262:  MOVWF  xA5
06264:  MOVWF  xA6
06266:  MOVLB  0
06268:  CALL   119A
....................                printf(lcd_out, "No Change"); 
0626C:  MOVLW  4E
0626E:  MOVWF  FF6
06270:  MOVLW  0B
06272:  MOVWF  FF7
06274:  CALL   125C
....................                lcd_goto(1, 2); 
06278:  MOVLW  01
0627A:  MOVLB  3
0627C:  MOVWF  xA5
0627E:  MOVLW  02
06280:  MOVWF  xA6
06282:  MOVLB  0
06284:  CALL   119A
....................                printf(lcd_out, "Press ENTER"); 
06288:  MOVLW  58
0628A:  MOVWF  FF6
0628C:  MOVLW  0B
0628E:  MOVWF  FF7
06290:  CALL   125C
....................                while(input(ENCODER_SW) == 1); 
06294:  BTFSC  F81.6
06296:  BRA    6294
....................                delay_ms(20); 
06298:  MOVLW  14
0629A:  MOVLB  3
0629C:  MOVWF  xA9
0629E:  MOVLB  0
062A0:  CALL   0DA4
....................                while(input(ENCODER_SW) == 0); 
062A4:  BTFSS  F81.6
062A6:  BRA    62A4
....................                delay_ms(50); 
062A8:  MOVLW  32
062AA:  MOVLB  3
062AC:  MOVWF  xA9
062AE:  MOVLB  0
062B0:  CALL   0DA4
....................                // ===== END CHANGE ===== 
....................                advance_to_next_menu(); 
062B4:  CALL   2244
....................             } 
....................              
....................             lcd_cmd(LCD_CLEAR);      
062B8:  MOVLW  01
062BA:  MOVLB  3
062BC:  MOVWF  xA8
062BE:  MOVLB  0
062C0:  CALL   0E5E
....................             delay_ms(100); 
062C4:  MOVLW  64
062C6:  MOVLB  3
062C8:  MOVWF  xA9
062CA:  MOVLB  0
062CC:  CALL   0DA4
....................             break; 
062D0:  BRA    62F4
....................          } 
062D2:  BRA    62DA
....................          else { 
....................             button_pressed_flag = 0; 
062D4:  MOVLB  3
062D6:  BCF    x02.0
062D8:  MOVLB  0
062DA:  MOVLB  2
....................          } 
....................       } 
....................        
....................       if (input(ENCODER_SW) != 0) { 
062DC:  BTFSS  F81.6
062DE:  BRA    62E6
....................          button_pressed_flag = 0; 
062E0:  MOVLB  3
062E2:  BCF    x02.0
062E4:  MOVLB  2
....................       } 
....................        
....................       delay_ms(1); 
062E6:  MOVLW  01
062E8:  MOVLB  3
062EA:  MOVWF  xA9
062EC:  MOVLB  0
062EE:  CALL   0DA4
062F2:  BRA    609C
....................    } 
062F4:  GOTO   744A (RETURN)
.................... } 
....................  
.................... void handle_unbalance_trip_setting() { 
....................    while (input(ENCODER_SW) == 0); 
062F8:  BTFSS  F81.6
062FA:  BRA    62F8
....................     
....................    int16 ub_limit = make16(read_eeprom(0x37), read_eeprom(0x36)); 
062FC:  MOVFF  FF2,306
06300:  BCF    FF2.7
06302:  CLRF   FAA
06304:  MOVLW  37
06306:  MOVWF  FA9
06308:  BCF    FA6.6
0630A:  BCF    FA6.7
0630C:  BSF    FA6.0
0630E:  MOVF   FA8,W
06310:  MOVLB  3
06312:  BTFSC  x06.7
06314:  BSF    FF2.7
06316:  MOVWF  x07
06318:  MOVFF  FF2,308
0631C:  BCF    FF2.7
0631E:  CLRF   FAA
06320:  MOVLW  36
06322:  MOVWF  FA9
06324:  BCF    FA6.6
06326:  BCF    FA6.7
06328:  BSF    FA6.0
0632A:  MOVF   FA8,W
0632C:  BTFSC  x08.7
0632E:  BSF    FF2.7
06330:  MOVWF  x09
06332:  MOVFF  307,300
06336:  MOVFF  309,2FF
....................     
....................    if (ub_limit > 100) ub_limit = 30; 
0633A:  MOVF   x00,F
0633C:  BNZ   6348
0633E:  MOVLB  2
06340:  MOVF   xFF,W
06342:  SUBLW  64
06344:  BC    6350
06346:  MOVLB  3
06348:  CLRF   x00
0634A:  MOVLW  1E
0634C:  MOVLB  2
0634E:  MOVWF  xFF
....................    if (ub_limit < 0)   ub_limit = 0; 
....................     
....................    int16 original_limit = ub_limit; 
06350:  MOVFF  300,302
06354:  MOVFF  2FF,301
....................     
....................    lcd_cmd(LCD_CLEAR);  
06358:  MOVLW  01
0635A:  MOVLB  3
0635C:  MOVWF  xA8
0635E:  MOVLB  0
06360:  CALL   0E5E
....................    lcd_goto(1, 1); 
06364:  MOVLW  01
06366:  MOVLB  3
06368:  MOVWF  xA5
0636A:  MOVWF  xA6
0636C:  MOVLB  0
0636E:  CALL   119A
....................    printf(lcd_out, "10.UNBALANCED TRIP"); 
06372:  MOVLW  64
06374:  MOVWF  FF6
06376:  MOVLW  0B
06378:  MOVWF  FF7
0637A:  CALL   125C
....................     
....................    int16 last_value = -1; 
....................    int1 button_pressed_flag = 0; 
0637E:  MOVLB  3
06380:  SETF   x04
06382:  SETF   x03
06384:  BCF    x05.0
....................     
....................    while (1) { 
....................       if (ub_limit != last_value) { 
06386:  MOVF   x03,W
06388:  MOVLB  2
0638A:  SUBWF  xFF,W
0638C:  BNZ   6398
0638E:  MOVLB  3
06390:  MOVF   x04,W
06392:  SUBWF  x00,W
06394:  BZ    63E2
06396:  MOVLB  2
....................          lcd_goto(1, 2); 
06398:  MOVLW  01
0639A:  MOVLB  3
0639C:  MOVWF  xA5
0639E:  MOVLW  02
063A0:  MOVWF  xA6
063A2:  MOVLB  0
063A4:  CALL   119A
....................          printf(lcd_out, "Limit: %3Lu%%", ub_limit); 
063A8:  MOVLW  78
063AA:  MOVWF  FF6
063AC:  MOVLW  0B
063AE:  MOVWF  FF7
063B0:  MOVLW  07
063B2:  MOVLB  3
063B4:  MOVWF  xA5
063B6:  MOVLB  0
063B8:  CALL   18B8
063BC:  MOVLW  02
063BE:  MOVWF  FE9
063C0:  MOVFF  300,398
063C4:  MOVFF  2FF,397
063C8:  CALL   37FE
063CC:  MOVLW  25
063CE:  MOVLB  3
063D0:  MOVWF  xAE
063D2:  MOVLB  0
063D4:  CALL   122E
....................          last_value = ub_limit; 
063D8:  MOVFF  300,304
063DC:  MOVFF  2FF,303
063E0:  MOVLB  3
....................       } 
....................        
....................       if (input(ENCODER_A) == 0 && input(ENCODER_B) != 0) { 
063E2:  BTFSC  F82.5
063E4:  BRA    6428
063E6:  BSF    F92.4
063E8:  BTFSS  F80.4
063EA:  BRA    6428
....................          delay_ms(5); 
063EC:  MOVLW  05
063EE:  MOVWF  xA9
063F0:  MOVLB  0
063F2:  CALL   0DA4
....................          if (ub_limit < 100) ub_limit++; 
063F6:  MOVLB  3
063F8:  MOVF   x00,F
063FA:  BNZ   6416
063FC:  MOVLB  2
063FE:  MOVF   xFF,W
06400:  SUBLW  63
06402:  BTFSC  FD8.0
06404:  BRA    640A
06406:  MOVLB  3
06408:  BRA    6416
0640A:  INCF   xFF,F
0640C:  BTFSS  FD8.2
0640E:  BRA    6414
06410:  MOVLB  3
06412:  INCF   x00,F
06414:  MOVLB  3
....................          delay_ms(40); 
06416:  MOVLW  28
06418:  MOVWF  xA9
0641A:  MOVLB  0
0641C:  CALL   0DA4
....................          while (input(ENCODER_A) == 0); 
06420:  BTFSS  F82.5
06422:  BRA    6420
....................       } 
06424:  BRA    646A
06426:  MOVLB  3
....................       else if (input(ENCODER_B) == 0 && input(ENCODER_A) != 0) { 
06428:  BSF    F92.4
0642A:  BTFSC  F80.4
0642C:  BRA    646C
0642E:  BTFSS  F82.5
06430:  BRA    646C
....................          delay_ms(5); 
06432:  MOVLW  05
06434:  MOVWF  xA9
06436:  MOVLB  0
06438:  CALL   0DA4
....................          if (ub_limit > 0) ub_limit--; 
0643C:  MOVLB  2
0643E:  MOVF   xFF,F
06440:  BNZ   644A
06442:  MOVLB  3
06444:  MOVF   x00,F
06446:  BZ    645A
06448:  MOVLB  2
0644A:  MOVF   xFF,W
0644C:  BTFSS  FD8.2
0644E:  BRA    6456
06450:  MOVLB  3
06452:  DECF   x00,F
06454:  MOVLB  2
06456:  DECF   xFF,F
06458:  MOVLB  3
....................          delay_ms(40); 
0645A:  MOVLW  28
0645C:  MOVWF  xA9
0645E:  MOVLB  0
06460:  CALL   0DA4
....................          while (input(ENCODER_B) == 0); 
06464:  BSF    F92.4
06466:  BTFSS  F80.4
06468:  BRA    6464
0646A:  MOVLB  3
....................       } 
....................        
....................       if (input(ENCODER_SW) == 0 && button_pressed_flag == 0) { 
0646C:  BTFSC  F81.6
0646E:  BRA    664A
06470:  BTFSC  x05.0
06472:  BRA    664A
....................          delay_ms(20); 
06474:  MOVLW  14
06476:  MOVWF  xA9
06478:  MOVLB  0
0647A:  CALL   0DA4
....................          if (input(ENCODER_SW) == 0) { 
0647E:  BTFSC  F81.6
06480:  BRA    6646
....................             button_pressed_flag = 1; 
06482:  MOVLB  3
06484:  BSF    x05.0
....................              
....................             if (ub_limit != original_limit) { 
06486:  MOVF   x01,W
06488:  MOVLB  2
0648A:  SUBWF  xFF,W
0648C:  BNZ   649A
0648E:  MOVLB  3
06490:  MOVF   x02,W
06492:  SUBWF  x00,W
06494:  BTFSC  FD8.2
06496:  BRA    65B4
06498:  MOVLB  2
....................                write_eeprom(0x36, make8(ub_limit, 0)); 
0649A:  MOVFF  2FF,306
0649E:  MOVF   FF2,W
064A0:  MOVWF  00
064A2:  BCF    FF2.7
064A4:  CLRF   FAA
064A6:  MOVLW  36
064A8:  MOVWF  FA9
064AA:  MOVFF  306,FA8
064AE:  BCF    FA6.6
064B0:  BCF    FA6.7
064B2:  BSF    FA6.2
064B4:  MOVLB  F
064B6:  MOVLW  55
064B8:  MOVWF  FA7
064BA:  MOVLW  AA
064BC:  MOVWF  FA7
064BE:  BSF    FA6.1
064C0:  BTFSC  FA6.1
064C2:  BRA    64C0
064C4:  BCF    FA6.2
064C6:  MOVF   00,W
064C8:  IORWF  FF2,F
....................                write_eeprom(0x37, make8(ub_limit, 1)); 
064CA:  MOVFF  300,306
064CE:  MOVFF  FF2,00
064D2:  BCF    FF2.7
064D4:  CLRF   FAA
064D6:  MOVLW  37
064D8:  MOVWF  FA9
064DA:  MOVFF  300,FA8
064DE:  BCF    FA6.6
064E0:  BCF    FA6.7
064E2:  BSF    FA6.2
064E4:  MOVLW  55
064E6:  MOVWF  FA7
064E8:  MOVLW  AA
064EA:  MOVWF  FA7
064EC:  BSF    FA6.1
064EE:  BTFSC  FA6.1
064F0:  BRA    64EE
064F2:  BCF    FA6.2
064F4:  MOVF   00,W
064F6:  IORWF  FF2,F
....................                 
....................                lcd_cmd(LCD_CLEAR);  
064F8:  MOVLW  01
064FA:  MOVLB  3
064FC:  MOVWF  xA8
064FE:  MOVLB  0
06500:  CALL   0E5E
....................                lcd_goto(1, 1); 
06504:  MOVLW  01
06506:  MOVLB  3
06508:  MOVWF  xA5
0650A:  MOVWF  xA6
0650C:  MOVLB  0
0650E:  CALL   119A
....................                printf(lcd_out, "LIMIT SAVED!"); 
06512:  MOVLW  86
06514:  MOVWF  FF6
06516:  MOVLW  0B
06518:  MOVWF  FF7
0651A:  CALL   125C
....................                lcd_goto(1, 2); 
0651E:  MOVLW  01
06520:  MOVLB  3
06522:  MOVWF  xA5
06524:  MOVLW  02
06526:  MOVWF  xA6
06528:  MOVLB  0
0652A:  CALL   119A
....................                printf(lcd_out, "Limit: %3Lu%%", ub_limit); 
0652E:  MOVLW  94
06530:  MOVWF  FF6
06532:  MOVLW  0B
06534:  MOVWF  FF7
06536:  MOVLW  07
06538:  MOVLB  3
0653A:  MOVWF  xA5
0653C:  MOVLB  0
0653E:  CALL   18B8
06542:  MOVLW  02
06544:  MOVWF  FE9
06546:  MOVFF  300,398
0654A:  MOVFF  2FF,397
0654E:  CALL   37FE
06552:  MOVLW  25
06554:  MOVLB  3
06556:  MOVWF  xAE
06558:  MOVLB  0
0655A:  CALL   122E
....................                 
....................                while (input(ENCODER_SW) == 0) { 
0655E:  BTFSC  F81.6
06560:  BRA    6570
....................                   delay_ms(10); 
06562:  MOVLW  0A
06564:  MOVLB  3
06566:  MOVWF  xA9
06568:  MOVLB  0
0656A:  CALL   0DA4
0656E:  BRA    655E
....................                } 
....................                // ===== CHANGED: Press ENTER to proceed ===== 
....................                lcd_goto(1, 2); 
06570:  MOVLW  01
06572:  MOVLB  3
06574:  MOVWF  xA5
06576:  MOVLW  02
06578:  MOVWF  xA6
0657A:  MOVLB  0
0657C:  CALL   119A
....................                printf(lcd_out, "Press ENTER     "); 
06580:  MOVLW  A2
06582:  MOVWF  FF6
06584:  MOVLW  0B
06586:  MOVWF  FF7
06588:  CALL   125C
....................                while(input(ENCODER_SW) == 1); 
0658C:  BTFSC  F81.6
0658E:  BRA    658C
....................                delay_ms(20); 
06590:  MOVLW  14
06592:  MOVLB  3
06594:  MOVWF  xA9
06596:  MOVLB  0
06598:  CALL   0DA4
....................                while(input(ENCODER_SW) == 0); 
0659C:  BTFSS  F81.6
0659E:  BRA    659C
....................                delay_ms(50); 
065A0:  MOVLW  32
065A2:  MOVLB  3
065A4:  MOVWF  xA9
065A6:  MOVLB  0
065A8:  CALL   0DA4
....................                // ===== END CHANGE ===== 
....................                advance_to_next_menu(); 
065AC:  CALL   2244
....................             } 
065B0:  BRA    662A
065B2:  MOVLB  3
....................             else { 
....................                while (input(ENCODER_SW) == 0) { 
065B4:  BTFSC  F81.6
065B6:  BRA    65C6
....................                   delay_ms(10); 
065B8:  MOVLW  0A
065BA:  MOVWF  xA9
065BC:  MOVLB  0
065BE:  CALL   0DA4
065C2:  MOVLB  3
065C4:  BRA    65B4
....................                } 
....................                // ===== CHANGED: No Change + Press ENTER ===== 
....................                lcd_cmd(LCD_CLEAR); 
065C6:  MOVLW  01
065C8:  MOVWF  xA8
065CA:  MOVLB  0
065CC:  CALL   0E5E
....................                lcd_goto(1, 1); 
065D0:  MOVLW  01
065D2:  MOVLB  3
065D4:  MOVWF  xA5
065D6:  MOVWF  xA6
065D8:  MOVLB  0
065DA:  CALL   119A
....................                printf(lcd_out, "No Change"); 
065DE:  MOVLW  B4
065E0:  MOVWF  FF6
065E2:  MOVLW  0B
065E4:  MOVWF  FF7
065E6:  CALL   125C
....................                lcd_goto(1, 2); 
065EA:  MOVLW  01
065EC:  MOVLB  3
065EE:  MOVWF  xA5
065F0:  MOVLW  02
065F2:  MOVWF  xA6
065F4:  MOVLB  0
065F6:  CALL   119A
....................                printf(lcd_out, "Press ENTER"); 
065FA:  MOVLW  BE
065FC:  MOVWF  FF6
065FE:  MOVLW  0B
06600:  MOVWF  FF7
06602:  CALL   125C
....................                while(input(ENCODER_SW) == 1); 
06606:  BTFSC  F81.6
06608:  BRA    6606
....................                delay_ms(20); 
0660A:  MOVLW  14
0660C:  MOVLB  3
0660E:  MOVWF  xA9
06610:  MOVLB  0
06612:  CALL   0DA4
....................                while(input(ENCODER_SW) == 0); 
06616:  BTFSS  F81.6
06618:  BRA    6616
....................                delay_ms(50); 
0661A:  MOVLW  32
0661C:  MOVLB  3
0661E:  MOVWF  xA9
06620:  MOVLB  0
06622:  CALL   0DA4
....................                // ===== END CHANGE ===== 
....................                advance_to_next_menu(); 
06626:  CALL   2244
....................             } 
....................              
....................             lcd_cmd(LCD_CLEAR);  
0662A:  MOVLW  01
0662C:  MOVLB  3
0662E:  MOVWF  xA8
06630:  MOVLB  0
06632:  CALL   0E5E
....................             delay_ms(100); 
06636:  MOVLW  64
06638:  MOVLB  3
0663A:  MOVWF  xA9
0663C:  MOVLB  0
0663E:  CALL   0DA4
....................             break; 
06642:  BRA    6666
....................          } 
06644:  BRA    664C
....................          else { 
....................             button_pressed_flag = 0; 
06646:  MOVLB  3
06648:  BCF    x05.0
0664A:  MOVLB  0
....................          } 
....................       } 
....................        
....................       if (input(ENCODER_SW) != 0) { 
0664C:  BTFSS  F81.6
0664E:  BRA    6656
....................          button_pressed_flag = 0; 
06650:  MOVLB  3
06652:  BCF    x05.0
06654:  MOVLB  0
....................       } 
....................        
....................       delay_ms(1); 
06656:  MOVLW  01
06658:  MOVLB  3
0665A:  MOVWF  xA9
0665C:  MOVLB  0
0665E:  CALL   0DA4
06662:  MOVLB  3
06664:  BRA    6386
06666:  MOVLB  0
....................    } 
06668:  GOTO   7456 (RETURN)
.................... } 
....................  
.................... void handle_ct_selection_menu(void) { 
....................     while (input(ENCODER_SW) == 0); 
0666C:  BTFSS  F81.6
0666E:  BRA    666C
....................      
....................     const int16 ct_amps[]  = {5, 30, 50, 100, 200, 300}; 
....................     const int8  ct_ratios[] = {1, 6, 10, 20, 40, 60}; 
....................     const int8 total_cts = sizeof(ct_amps) / sizeof(ct_amps[0]); 
....................     
....................     int8 saved_ratio = read_eeprom(0x60); 
....................     int8 original_ratio = saved_ratio; 
....................     int8 option = 0; 
06670:  MOVFF  FF2,304
06674:  BCF    FF2.7
06676:  CLRF   FAA
06678:  MOVLW  60
0667A:  MOVWF  FA9
0667C:  BCF    FA6.6
0667E:  BCF    FA6.7
06680:  BSF    FA6.0
06682:  MOVF   FA8,W
06684:  MOVLB  3
06686:  BTFSC  x04.7
06688:  BSF    FF2.7
0668A:  MOVLB  2
0668C:  MOVWF  xFF
0668E:  MOVFF  2FF,300
06692:  MOVLB  3
06694:  CLRF   x01
....................      
....................     for (int8 i = 0; i < total_cts; i++) { 
06696:  CLRF   x02
06698:  MOVF   x02,W
0669A:  SUBLW  05
0669C:  BNC   66CA
....................         if (ct_ratios[i] == saved_ratio) { 
0669E:  CLRF   03
066A0:  MOVF   x02,W
066A2:  MOVFF  FF2,304
066A6:  BCF    FF2.7
066A8:  MOVLB  0
066AA:  CALL   00C8
066AE:  MOVLB  3
066B0:  BTFSC  x04.7
066B2:  BSF    FF2.7
066B4:  MOVLB  2
066B6:  SUBWF  xFF,W
066B8:  BNZ   66C4
....................             option = i; 
066BA:  MOVFF  302,301
....................             break; 
066BE:  MOVLB  3
066C0:  BRA    66CA
066C2:  MOVLB  2
....................         } 
066C4:  MOVLB  3
066C6:  INCF   x02,F
066C8:  BRA    6698
....................     } 
....................      
....................     if (saved_ratio != ct_ratios[option]) { 
066CA:  CLRF   03
066CC:  MOVF   x01,W
066CE:  MOVFF  FF2,304
066D2:  BCF    FF2.7
066D4:  MOVLB  0
066D6:  CALL   00C8
066DA:  MOVLB  3
066DC:  BTFSC  x04.7
066DE:  BSF    FF2.7
066E0:  MOVWF  01
066E2:  MOVLB  2
066E4:  SUBWF  xFF,W
066E6:  BZ    671E
....................         write_eeprom(0x60, ct_ratios[0]); 
066E8:  MOVF   FF2,W
066EA:  MOVWF  00
066EC:  BCF    FF2.7
066EE:  CLRF   FAA
066F0:  MOVLW  60
066F2:  MOVWF  FA9
066F4:  MOVLW  01
066F6:  MOVWF  FA8
066F8:  BCF    FA6.6
066FA:  BCF    FA6.7
066FC:  BSF    FA6.2
066FE:  MOVLB  F
06700:  MOVLW  55
06702:  MOVWF  FA7
06704:  MOVLW  AA
06706:  MOVWF  FA7
06708:  BSF    FA6.1
0670A:  BTFSC  FA6.1
0670C:  BRA    670A
0670E:  BCF    FA6.2
06710:  MOVF   00,W
06712:  IORWF  FF2,F
....................         original_ratio = ct_ratios[0]; 
06714:  MOVLW  01
06716:  MOVLB  3
06718:  MOVWF  x00
....................         option = 0; 
0671A:  CLRF   x01
0671C:  MOVLB  2
....................     } 
....................      
....................     lcd_cmd(LCD_CLEAR);  
0671E:  MOVLW  01
06720:  MOVLB  3
06722:  MOVWF  xA8
06724:  MOVLB  0
06726:  CALL   0E5E
....................     lcd_goto(1, 1); 
0672A:  MOVLW  01
0672C:  MOVLB  3
0672E:  MOVWF  xA5
06730:  MOVWF  xA6
06732:  MOVLB  0
06734:  CALL   119A
....................     printf(lcd_out, "11.SELECT CT TYPE"); 
06738:  MOVLW  CA
0673A:  MOVWF  FF6
0673C:  MOVLW  0B
0673E:  MOVWF  FF7
06740:  CALL   125C
....................      
....................     int8 last_option = -1; 
06744:  MOVLB  3
06746:  SETF   x03
....................      
....................     while (1) { 
....................         if (option != last_option) { 
06748:  MOVF   x03,W
0674A:  SUBWF  x01,W
0674C:  BZ    67FE
....................             lcd_goto(1, 2); 
0674E:  MOVLW  01
06750:  MOVWF  xA5
06752:  MOVLW  02
06754:  MOVWF  xA6
06756:  MOVLB  0
06758:  CALL   119A
....................             printf(lcd_out, "> %3luA (%2u:1)  ", (unsigned long)ct_amps[option], ct_ratios[option]); 
0675C:  BCF    FD8.0
0675E:  MOVLB  3
06760:  RLCF   x01,W
06762:  CLRF   03
06764:  MOVFF  FF2,304
06768:  BCF    FF2.7
0676A:  MOVLB  0
0676C:  CALL   00A2
06770:  TBLRD*+
06772:  MOVFF  FF5,03
06776:  MOVLB  3
06778:  BTFSC  x04.7
0677A:  BSF    FF2.7
0677C:  MOVWF  x04
0677E:  MOVFF  03,305
06782:  CLRF   03
06784:  MOVF   x01,W
06786:  MOVFF  FF2,306
0678A:  BCF    FF2.7
0678C:  MOVLB  0
0678E:  CALL   00C8
06792:  MOVLB  3
06794:  BTFSC  x06.7
06796:  BSF    FF2.7
06798:  MOVWF  x06
0679A:  MOVLW  3E
0679C:  MOVWF  xAE
0679E:  MOVLB  0
067A0:  CALL   122E
067A4:  MOVLW  20
067A6:  MOVLB  3
067A8:  MOVWF  xAE
067AA:  MOVLB  0
067AC:  CALL   122E
067B0:  MOVLW  02
067B2:  MOVWF  FE9
067B4:  MOVFF  305,398
067B8:  MOVFF  304,397
067BC:  CALL   37FE
067C0:  MOVLW  E2
067C2:  MOVWF  FF6
067C4:  MOVLW  0B
067C6:  MOVWF  FF7
067C8:  MOVLW  03
067CA:  MOVLB  3
067CC:  MOVWF  xA5
067CE:  MOVLB  0
067D0:  CALL   18B8
067D4:  MOVFF  306,386
067D8:  MOVLW  11
067DA:  MOVLB  3
067DC:  MOVWF  x87
067DE:  MOVLB  0
067E0:  CALL   5616
067E4:  MOVLW  E8
067E6:  MOVWF  FF6
067E8:  MOVLW  0B
067EA:  MOVWF  FF7
067EC:  MOVLW  05
067EE:  MOVLB  3
067F0:  MOVWF  xA5
067F2:  MOVLB  0
067F4:  CALL   18B8
....................             last_option = option; 
067F8:  MOVFF  301,303
067FC:  MOVLB  3
....................         } 
....................          
....................         if (input(ENCODER_A) == 0 && input(ENCODER_B) != 0) { 
067FE:  BTFSC  F82.5
06800:  BRA    682E
06802:  BSF    F92.4
06804:  BTFSS  F80.4
06806:  BRA    682E
....................             delay_ms(5); 
06808:  MOVLW  05
0680A:  MOVWF  xA9
0680C:  MOVLB  0
0680E:  CALL   0DA4
....................             if (option < total_cts - 1) option++; 
06812:  MOVLB  3
06814:  MOVF   x01,W
06816:  SUBLW  04
06818:  BNC   681C
0681A:  INCF   x01,F
....................             delay_ms(40); 
0681C:  MOVLW  28
0681E:  MOVWF  xA9
06820:  MOVLB  0
06822:  CALL   0DA4
....................             while (input(ENCODER_A) == 0); 
06826:  BTFSS  F82.5
06828:  BRA    6826
....................         } 
0682A:  BRA    685A
0682C:  MOVLB  3
....................         else if (input(ENCODER_B) == 0 && input(ENCODER_A) != 0) { 
0682E:  BSF    F92.4
06830:  BTFSC  F80.4
06832:  BRA    685C
06834:  BTFSS  F82.5
06836:  BRA    685C
....................             delay_ms(5); 
06838:  MOVLW  05
0683A:  MOVWF  xA9
0683C:  MOVLB  0
0683E:  CALL   0DA4
....................             if (option > 0) option--; 
06842:  MOVLB  3
06844:  MOVF   x01,F
06846:  BZ    684A
06848:  DECF   x01,F
....................             delay_ms(40); 
0684A:  MOVLW  28
0684C:  MOVWF  xA9
0684E:  MOVLB  0
06850:  CALL   0DA4
....................             while (input(ENCODER_B) == 0); 
06854:  BSF    F92.4
06856:  BTFSS  F80.4
06858:  BRA    6854
0685A:  MOVLB  3
....................         } 
....................          
....................         if (input(ENCODER_SW) == 0) { 
0685C:  BTFSC  F81.6
0685E:  BRA    6A86
....................             delay_ms(20); 
06860:  MOVLW  14
06862:  MOVWF  xA9
06864:  MOVLB  0
06866:  CALL   0DA4
....................             if (input(ENCODER_SW) == 0) { 
0686A:  BTFSC  F81.6
0686C:  BRA    6A84
....................                  
....................                 if (ct_ratios[option] != original_ratio) { 
0686E:  CLRF   03
06870:  MOVLB  3
06872:  MOVF   x01,W
06874:  MOVFF  FF2,304
06878:  BCF    FF2.7
0687A:  MOVLB  0
0687C:  CALL   00C8
06880:  MOVLB  3
06882:  BTFSC  x04.7
06884:  BSF    FF2.7
06886:  SUBWF  x00,W
06888:  BTFSC  FD8.2
0688A:  BRA    69F4
....................                     write_eeprom(0x60, ct_ratios[option]); 
0688C:  CLRF   03
0688E:  MOVF   x01,W
06890:  MOVFF  FF2,304
06894:  BCF    FF2.7
06896:  MOVLB  0
06898:  CALL   00C8
0689C:  MOVLB  3
0689E:  BTFSC  x04.7
068A0:  BSF    FF2.7
068A2:  MOVWF  x04
068A4:  MOVF   FF2,W
068A6:  MOVWF  00
068A8:  BCF    FF2.7
068AA:  CLRF   FAA
068AC:  MOVLW  60
068AE:  MOVWF  FA9
068B0:  MOVFF  304,FA8
068B4:  BCF    FA6.6
068B6:  BCF    FA6.7
068B8:  BSF    FA6.2
068BA:  MOVLB  F
068BC:  MOVLW  55
068BE:  MOVWF  FA7
068C0:  MOVLW  AA
068C2:  MOVWF  FA7
068C4:  BSF    FA6.1
068C6:  BTFSC  FA6.1
068C8:  BRA    68C6
068CA:  BCF    FA6.2
068CC:  MOVF   00,W
068CE:  IORWF  FF2,F
....................                      
....................                     lcd_cmd(LCD_CLEAR);  
068D0:  MOVLW  01
068D2:  MOVLB  3
068D4:  MOVWF  xA8
068D6:  MOVLB  0
068D8:  CALL   0E5E
....................                     lcd_goto(1, 1); 
068DC:  MOVLW  01
068DE:  MOVLB  3
068E0:  MOVWF  xA5
068E2:  MOVWF  xA6
068E4:  MOVLB  0
068E6:  CALL   119A
....................                     printf(lcd_out, "CT SAVED!"); 
068EA:  MOVLW  EE
068EC:  MOVWF  FF6
068EE:  MOVLW  0B
068F0:  MOVWF  FF7
068F2:  CALL   125C
....................                     lcd_goto(1, 2); 
068F6:  MOVLW  01
068F8:  MOVLB  3
068FA:  MOVWF  xA5
068FC:  MOVLW  02
068FE:  MOVWF  xA6
06900:  MOVLB  0
06902:  CALL   119A
....................                     printf(lcd_out, "CT: %luA (%u:1)", (unsigned long)ct_amps[option], ct_ratios[option]); 
06906:  BCF    FD8.0
06908:  MOVLB  3
0690A:  RLCF   x01,W
0690C:  CLRF   03
0690E:  MOVFF  FF2,304
06912:  BCF    FF2.7
06914:  MOVLB  0
06916:  CALL   00A2
0691A:  TBLRD*+
0691C:  MOVFF  FF5,03
06920:  MOVLB  3
06922:  BTFSC  x04.7
06924:  BSF    FF2.7
06926:  MOVWF  x04
06928:  MOVFF  03,305
0692C:  CLRF   03
0692E:  MOVF   x01,W
06930:  MOVFF  FF2,306
06934:  BCF    FF2.7
06936:  MOVLB  0
06938:  CALL   00C8
0693C:  MOVLB  3
0693E:  BTFSC  x06.7
06940:  BSF    FF2.7
06942:  MOVWF  x06
06944:  MOVLW  F8
06946:  MOVWF  FF6
06948:  MOVLW  0B
0694A:  MOVWF  FF7
0694C:  MOVLW  04
0694E:  MOVWF  xA5
06950:  MOVLB  0
06952:  CALL   18B8
06956:  MOVLW  10
06958:  MOVWF  FE9
0695A:  MOVFF  305,398
0695E:  MOVFF  304,397
06962:  CALL   37FE
06966:  MOVLW  FF
06968:  MOVWF  FF6
0696A:  MOVLW  0B
0696C:  MOVWF  FF7
0696E:  MOVLW  03
06970:  MOVLB  3
06972:  MOVWF  xA5
06974:  MOVLB  0
06976:  CALL   18B8
0697A:  MOVFF  306,386
0697E:  MOVLW  1B
06980:  MOVLB  3
06982:  MOVWF  x87
06984:  MOVLB  0
06986:  CALL   5616
0698A:  MOVLW  04
0698C:  MOVWF  FF6
0698E:  MOVLW  0C
06990:  MOVWF  FF7
06992:  MOVLW  03
06994:  MOVLB  3
06996:  MOVWF  xA5
06998:  MOVLB  0
0699A:  CALL   18B8
....................                      
....................                     while (input(ENCODER_SW) == 0) { 
0699E:  BTFSC  F81.6
069A0:  BRA    69B0
....................                         delay_ms(10); 
069A2:  MOVLW  0A
069A4:  MOVLB  3
069A6:  MOVWF  xA9
069A8:  MOVLB  0
069AA:  CALL   0DA4
069AE:  BRA    699E
....................                     } 
....................                     // ===== CHANGED: Press ENTER to proceed ===== 
....................                     lcd_goto(1, 2); 
069B0:  MOVLW  01
069B2:  MOVLB  3
069B4:  MOVWF  xA5
069B6:  MOVLW  02
069B8:  MOVWF  xA6
069BA:  MOVLB  0
069BC:  CALL   119A
....................                     printf(lcd_out, "Press ENTER     "); 
069C0:  MOVLW  08
069C2:  MOVWF  FF6
069C4:  MOVLW  0C
069C6:  MOVWF  FF7
069C8:  CALL   125C
....................                     while(input(ENCODER_SW) == 1); 
069CC:  BTFSC  F81.6
069CE:  BRA    69CC
....................                     delay_ms(20); 
069D0:  MOVLW  14
069D2:  MOVLB  3
069D4:  MOVWF  xA9
069D6:  MOVLB  0
069D8:  CALL   0DA4
....................                     while(input(ENCODER_SW) == 0); 
069DC:  BTFSS  F81.6
069DE:  BRA    69DC
....................                     delay_ms(50); 
069E0:  MOVLW  32
069E2:  MOVLB  3
069E4:  MOVWF  xA9
069E6:  MOVLB  0
069E8:  CALL   0DA4
....................                     // ===== END CHANGE ===== 
....................                     advance_to_next_menu(); 
069EC:  CALL   2244
....................                 } 
069F0:  BRA    6A6A
069F2:  MOVLB  3
....................                 else { 
....................                     while (input(ENCODER_SW) == 0) { 
069F4:  BTFSC  F81.6
069F6:  BRA    6A06
....................                         delay_ms(10); 
069F8:  MOVLW  0A
069FA:  MOVWF  xA9
069FC:  MOVLB  0
069FE:  CALL   0DA4
06A02:  MOVLB  3
06A04:  BRA    69F4
....................                     } 
....................                     // ===== CHANGED: No Change + Press ENTER ===== 
....................                     lcd_cmd(LCD_CLEAR); 
06A06:  MOVLW  01
06A08:  MOVWF  xA8
06A0A:  MOVLB  0
06A0C:  CALL   0E5E
....................                     lcd_goto(1, 1); 
06A10:  MOVLW  01
06A12:  MOVLB  3
06A14:  MOVWF  xA5
06A16:  MOVWF  xA6
06A18:  MOVLB  0
06A1A:  CALL   119A
....................                     printf(lcd_out, "No Change"); 
06A1E:  MOVLW  1A
06A20:  MOVWF  FF6
06A22:  MOVLW  0C
06A24:  MOVWF  FF7
06A26:  CALL   125C
....................                     lcd_goto(1, 2); 
06A2A:  MOVLW  01
06A2C:  MOVLB  3
06A2E:  MOVWF  xA5
06A30:  MOVLW  02
06A32:  MOVWF  xA6
06A34:  MOVLB  0
06A36:  CALL   119A
....................                     printf(lcd_out, "Press ENTER"); 
06A3A:  MOVLW  24
06A3C:  MOVWF  FF6
06A3E:  MOVLW  0C
06A40:  MOVWF  FF7
06A42:  CALL   125C
....................                     while(input(ENCODER_SW) == 1); 
06A46:  BTFSC  F81.6
06A48:  BRA    6A46
....................                     delay_ms(20); 
06A4A:  MOVLW  14
06A4C:  MOVLB  3
06A4E:  MOVWF  xA9
06A50:  MOVLB  0
06A52:  CALL   0DA4
....................                     while(input(ENCODER_SW) == 0); 
06A56:  BTFSS  F81.6
06A58:  BRA    6A56
....................                     delay_ms(50); 
06A5A:  MOVLW  32
06A5C:  MOVLB  3
06A5E:  MOVWF  xA9
06A60:  MOVLB  0
06A62:  CALL   0DA4
....................                     // ===== END CHANGE ===== 
....................                     advance_to_next_menu(); 
06A66:  CALL   2244
....................                 } 
....................                  
....................                 lcd_cmd(LCD_CLEAR);  
06A6A:  MOVLW  01
06A6C:  MOVLB  3
06A6E:  MOVWF  xA8
06A70:  MOVLB  0
06A72:  CALL   0E5E
....................                 delay_ms(100); 
06A76:  MOVLW  64
06A78:  MOVLB  3
06A7A:  MOVWF  xA9
06A7C:  MOVLB  0
06A7E:  CALL   0DA4
....................                 break; 
06A82:  BRA    6A94
06A84:  MOVLB  3
....................             } 
....................         } 
....................          
....................         delay_ms(1); 
06A86:  MOVLW  01
06A88:  MOVWF  xA9
06A8A:  MOVLB  0
06A8C:  CALL   0DA4
06A90:  MOVLB  3
06A92:  BRA    6748
06A94:  MOVLB  0
....................     } 
06A96:  GOTO   7462 (RETURN)
.................... } 
....................  
.................... void handle_polarization_index_menu(void) { 
....................     while (input(ENCODER_SW) == 0); 
06A9A:  BTFSS  F81.6
06A9C:  BRA    6A9A
....................      
....................     int16 ir_1min_int  = make16(read_eeprom(0x3B), read_eeprom(0x3A)); 
....................     int16 ir_10min_int = make16(read_eeprom(0x3D), read_eeprom(0x3C)); 
06A9E:  MOVFF  FF2,316
06AA2:  BCF    FF2.7
06AA4:  CLRF   FAA
06AA6:  MOVLW  3B
06AA8:  MOVWF  FA9
06AAA:  BCF    FA6.6
06AAC:  BCF    FA6.7
06AAE:  BSF    FA6.0
06AB0:  MOVF   FA8,W
06AB2:  MOVLB  3
06AB4:  BTFSC  x16.7
06AB6:  BSF    FF2.7
06AB8:  MOVWF  x17
06ABA:  MOVFF  FF2,318
06ABE:  BCF    FF2.7
06AC0:  CLRF   FAA
06AC2:  MOVLW  3A
06AC4:  MOVWF  FA9
06AC6:  BCF    FA6.6
06AC8:  BCF    FA6.7
06ACA:  BSF    FA6.0
06ACC:  MOVF   FA8,W
06ACE:  BTFSC  x18.7
06AD0:  BSF    FF2.7
06AD2:  MOVWF  x19
06AD4:  MOVFF  317,300
06AD8:  MOVFF  319,2FF
06ADC:  MOVFF  FF2,31A
06AE0:  BCF    FF2.7
06AE2:  CLRF   FAA
06AE4:  MOVLW  3D
06AE6:  MOVWF  FA9
06AE8:  BCF    FA6.6
06AEA:  BCF    FA6.7
06AEC:  BSF    FA6.0
06AEE:  MOVF   FA8,W
06AF0:  BTFSC  x1A.7
06AF2:  BSF    FF2.7
06AF4:  MOVWF  x1B
06AF6:  MOVFF  FF2,31C
06AFA:  BCF    FF2.7
06AFC:  CLRF   FAA
06AFE:  MOVLW  3C
06B00:  MOVWF  FA9
06B02:  BCF    FA6.6
06B04:  BCF    FA6.7
06B06:  BSF    FA6.0
06B08:  MOVF   FA8,W
06B0A:  BTFSC  x1C.7
06B0C:  BSF    FF2.7
06B0E:  MOVWF  x1D
06B10:  MOVFF  31B,302
06B14:  MOVFF  31D,301
....................      
....................     if (ir_1min_int < 5 || ir_1min_int > 1000) ir_1min_int = 5; 
06B18:  MOVF   x00,F
06B1A:  BNZ   6B26
06B1C:  MOVLB  2
06B1E:  MOVF   xFF,W
06B20:  SUBLW  04
06B22:  BC    6B44
06B24:  MOVLB  3
06B26:  MOVF   x00,W
06B28:  SUBLW  02
06B2A:  BC    6B50
06B2C:  XORLW  FF
06B2E:  BTFSC  FD8.2
06B30:  BRA    6B36
06B32:  MOVLB  2
06B34:  BRA    6B44
06B36:  MOVLB  2
06B38:  MOVF   xFF,W
06B3A:  SUBLW  E8
06B3C:  BTFSS  FD8.0
06B3E:  BRA    6B44
06B40:  MOVLB  3
06B42:  BRA    6B50
06B44:  MOVLB  3
06B46:  CLRF   x00
06B48:  MOVLW  05
06B4A:  MOVLB  2
06B4C:  MOVWF  xFF
06B4E:  MOVLB  3
....................     if (ir_10min_int < 5 || ir_10min_int > 1000) ir_10min_int = 10; 
06B50:  MOVF   x02,F
06B52:  BNZ   6B5A
06B54:  MOVF   x01,W
06B56:  SUBLW  04
06B58:  BC    6B6A
06B5A:  MOVF   x02,W
06B5C:  SUBLW  02
06B5E:  BC    6B70
06B60:  XORLW  FF
06B62:  BNZ   6B6A
06B64:  MOVF   x01,W
06B66:  SUBLW  E8
06B68:  BC    6B70
06B6A:  CLRF   x02
06B6C:  MOVLW  0A
06B6E:  MOVWF  x01
....................      
....................     int16 original_ir_1min = ir_1min_int; 
....................     int16 original_ir_10min = ir_10min_int; 
....................      
....................     float ir_1min, ir_10min, pii; 
....................     int16 last_value = -1; 
....................     int1 button_pressed_flag = 0; 
....................     int1 values_changed = 0; 
06B70:  MOVFF  300,304
06B74:  MOVFF  2FF,303
06B78:  MOVFF  302,306
06B7C:  MOVFF  301,305
06B80:  SETF   x14
06B82:  SETF   x13
06B84:  BCF    x15.0
06B86:  BCF    x15.1
....................      
....................     lcd_cmd(LCD_CLEAR);  
06B88:  MOVLW  01
06B8A:  MOVWF  xA8
06B8C:  MOVLB  0
06B8E:  CALL   0E5E
....................     delay_ms(100); 
06B92:  MOVLW  64
06B94:  MOVLB  3
06B96:  MOVWF  xA9
06B98:  MOVLB  0
06B9A:  CALL   0DA4
....................     lcd_cmd(LCD_CLEAR);  
06B9E:  MOVLW  01
06BA0:  MOVLB  3
06BA2:  MOVWF  xA8
06BA4:  MOVLB  0
06BA6:  CALL   0E5E
....................     lcd_goto(1, 1); 
06BAA:  MOVLW  01
06BAC:  MOVLB  3
06BAE:  MOVWF  xA5
06BB0:  MOVWF  xA6
06BB2:  MOVLB  0
06BB4:  CALL   119A
....................     printf(lcd_out, "12.PI TEST-IR@1m"); 
06BB8:  MOVLW  30
06BBA:  MOVWF  FF6
06BBC:  MOVLW  0C
06BBE:  MOVWF  FF7
06BC0:  CALL   125C
....................      
....................     // Step 1: IR at 1min 
....................     while (1) { 
....................         ir_1min = (float)ir_1min_int / 10.0; 
06BC4:  MOVFF  300,318
06BC8:  MOVFF  2FF,317
06BCC:  CALL   0F8C
06BD0:  MOVFF  03,319
06BD4:  MOVFF  02,318
06BD8:  MOVFF  01,317
06BDC:  MOVFF  00,316
06BE0:  MOVFF  03,31E
06BE4:  MOVFF  02,31D
06BE8:  MOVFF  01,31C
06BEC:  MOVFF  00,31B
06BF0:  MOVLB  3
06BF2:  CLRF   x22
06BF4:  CLRF   x21
06BF6:  MOVLW  20
06BF8:  MOVWF  x20
06BFA:  MOVLW  82
06BFC:  MOVWF  x1F
06BFE:  MOVLB  0
06C00:  CALL   0FC2
06C04:  MOVFF  03,30A
06C08:  MOVFF  02,309
06C0C:  MOVFF  01,308
06C10:  MOVFF  00,307
....................          
....................         if (ir_1min_int != last_value) { 
06C14:  MOVLB  3
06C16:  MOVF   x13,W
06C18:  MOVLB  2
06C1A:  SUBWF  xFF,W
06C1C:  BNZ   6C28
06C1E:  MOVLB  3
06C20:  MOVF   x14,W
06C22:  SUBWF  x00,W
06C24:  BZ    6C8A
06C26:  MOVLB  2
....................             lcd_goto(1, 2); 
06C28:  MOVLW  01
06C2A:  MOVLB  3
06C2C:  MOVWF  xA5
06C2E:  MOVLW  02
06C30:  MOVWF  xA6
06C32:  MOVLB  0
06C34:  CALL   119A
....................             printf(lcd_out, " : %3.1f MOhm   ", ir_1min); 
06C38:  MOVLW  42
06C3A:  MOVWF  FF6
06C3C:  MOVLW  0C
06C3E:  MOVWF  FF7
06C40:  MOVLW  03
06C42:  MOVLB  3
06C44:  MOVWF  xA5
06C46:  MOVLB  0
06C48:  CALL   18B8
06C4C:  MOVLW  02
06C4E:  MOVWF  FE9
06C50:  MOVFF  30A,31A
06C54:  MOVFF  309,319
06C58:  MOVFF  308,318
06C5C:  MOVFF  307,317
06C60:  MOVLW  01
06C62:  MOVLB  3
06C64:  MOVWF  x1B
06C66:  MOVLB  0
06C68:  CALL   1D5A
06C6C:  MOVLW  4A
06C6E:  MOVWF  FF6
06C70:  MOVLW  0C
06C72:  MOVWF  FF7
06C74:  MOVLW  08
06C76:  MOVLB  3
06C78:  MOVWF  xA5
06C7A:  MOVLB  0
06C7C:  CALL   18B8
....................             last_value = ir_1min_int; 
06C80:  MOVFF  300,314
06C84:  MOVFF  2FF,313
06C88:  MOVLB  3
....................         } 
....................          
....................         if (input(ENCODER_A) == 0 && input(ENCODER_B) != 0) { 
06C8A:  BTFSC  F82.5
06C8C:  BRA    6CD4
06C8E:  BSF    F92.4
06C90:  BTFSS  F80.4
06C92:  BRA    6CD4
....................             delay_ms(5); 
06C94:  MOVLW  05
06C96:  MOVWF  xA9
06C98:  MOVLB  0
06C9A:  CALL   0DA4
....................             if (ir_1min_int < 1000) ir_1min_int += 5; 
06C9E:  MOVLB  3
06CA0:  MOVF   x00,W
06CA2:  SUBLW  03
06CA4:  BNC   6CC2
06CA6:  BNZ   6CB6
06CA8:  MOVLB  2
06CAA:  MOVF   xFF,W
06CAC:  SUBLW  E7
06CAE:  BTFSC  FD8.0
06CB0:  BRA    6CB6
06CB2:  MOVLB  3
06CB4:  BRA    6CC2
06CB6:  MOVLW  05
06CB8:  MOVLB  2
06CBA:  ADDWF  xFF,F
06CBC:  MOVLW  00
06CBE:  MOVLB  3
06CC0:  ADDWFC x00,F
....................             delay_ms(40); 
06CC2:  MOVLW  28
06CC4:  MOVWF  xA9
06CC6:  MOVLB  0
06CC8:  CALL   0DA4
....................             while (input(ENCODER_A) == 0); 
06CCC:  BTFSS  F82.5
06CCE:  BRA    6CCC
....................         } 
06CD0:  BRA    6D16
06CD2:  MOVLB  3
....................         else if (input(ENCODER_B) == 0 && input(ENCODER_A) != 0) { 
06CD4:  BSF    F92.4
06CD6:  BTFSC  F80.4
06CD8:  BRA    6D18
06CDA:  BTFSS  F82.5
06CDC:  BRA    6D18
....................             delay_ms(5); 
06CDE:  MOVLW  05
06CE0:  MOVWF  xA9
06CE2:  MOVLB  0
06CE4:  CALL   0DA4
....................             if (ir_1min_int > 5) ir_1min_int -= 5; 
06CE8:  MOVLB  3
06CEA:  MOVF   x00,F
06CEC:  BNZ   6CF6
06CEE:  MOVLB  2
06CF0:  MOVF   xFF,W
06CF2:  SUBLW  05
06CF4:  BC    6D04
06CF6:  MOVLW  05
06CF8:  MOVLB  2
06CFA:  SUBWF  xFF,F
06CFC:  MOVLW  00
06CFE:  MOVLB  3
06D00:  SUBWFB x00,F
06D02:  MOVLB  2
....................             delay_ms(40); 
06D04:  MOVLW  28
06D06:  MOVLB  3
06D08:  MOVWF  xA9
06D0A:  MOVLB  0
06D0C:  CALL   0DA4
....................             while (input(ENCODER_B) == 0); 
06D10:  BSF    F92.4
06D12:  BTFSS  F80.4
06D14:  BRA    6D10
06D16:  MOVLB  3
....................         } 
....................          
....................         if (input(ENCODER_SW) == 0) { 
06D18:  BTFSC  F81.6
06D1A:  BRA    6E26
....................             delay_ms(50); 
06D1C:  MOVLW  32
06D1E:  MOVWF  xA9
06D20:  MOVLB  0
06D22:  CALL   0DA4
....................             button_pressed_flag = 1; 
06D26:  MOVLB  3
06D28:  BSF    x15.0
....................              
....................             if (ir_1min_int != original_ir_1min) { 
06D2A:  MOVF   x03,W
06D2C:  MOVLB  2
06D2E:  SUBWF  xFF,W
06D30:  BNZ   6D3C
06D32:  MOVLB  3
06D34:  MOVF   x04,W
06D36:  SUBWF  x00,W
06D38:  BZ    6E0E
06D3A:  MOVLB  2
....................                 values_changed = 1; 
06D3C:  MOVLB  3
06D3E:  BSF    x15.1
....................                  
....................                 lcd_cmd(LCD_CLEAR);  
06D40:  MOVLW  01
06D42:  MOVWF  xA8
06D44:  MOVLB  0
06D46:  CALL   0E5E
....................                 lcd_goto(1, 1); 
06D4A:  MOVLW  01
06D4C:  MOVLB  3
06D4E:  MOVWF  xA5
06D50:  MOVWF  xA6
06D52:  MOVLB  0
06D54:  CALL   119A
....................                 printf(lcd_out, "IR@1m SAVED!"); 
06D58:  MOVLW  54
06D5A:  MOVWF  FF6
06D5C:  MOVLW  0C
06D5E:  MOVWF  FF7
06D60:  CALL   125C
....................                 lcd_goto(1, 2); 
06D64:  MOVLW  01
06D66:  MOVLB  3
06D68:  MOVWF  xA5
06D6A:  MOVLW  02
06D6C:  MOVWF  xA6
06D6E:  MOVLB  0
06D70:  CALL   119A
....................                 printf(lcd_out, "Value: %3.1f MOhm", ir_1min); 
06D74:  MOVLW  62
06D76:  MOVWF  FF6
06D78:  MOVLW  0C
06D7A:  MOVWF  FF7
06D7C:  MOVLW  07
06D7E:  MOVLB  3
06D80:  MOVWF  xA5
06D82:  MOVLB  0
06D84:  CALL   18B8
06D88:  MOVLW  02
06D8A:  MOVWF  FE9
06D8C:  MOVFF  30A,31A
06D90:  MOVFF  309,319
06D94:  MOVFF  308,318
06D98:  MOVFF  307,317
06D9C:  MOVLW  01
06D9E:  MOVLB  3
06DA0:  MOVWF  x1B
06DA2:  MOVLB  0
06DA4:  CALL   1D5A
06DA8:  MOVLW  6E
06DAA:  MOVWF  FF6
06DAC:  MOVLW  0C
06DAE:  MOVWF  FF7
06DB0:  MOVLW  05
06DB2:  MOVLB  3
06DB4:  MOVWF  xA5
06DB6:  MOVLB  0
06DB8:  CALL   18B8
....................                  
....................                 while (input(ENCODER_SW) == 0){ 
06DBC:  BTFSC  F81.6
06DBE:  BRA    6DCE
....................                    delay_ms(10); 
06DC0:  MOVLW  0A
06DC2:  MOVLB  3
06DC4:  MOVWF  xA9
06DC6:  MOVLB  0
06DC8:  CALL   0DA4
06DCC:  BRA    6DBC
....................                 } 
....................                 // ===== CHANGED: Press ENTER to proceed to step 2 ===== 
....................                 lcd_goto(1, 2); 
06DCE:  MOVLW  01
06DD0:  MOVLB  3
06DD2:  MOVWF  xA5
06DD4:  MOVLW  02
06DD6:  MOVWF  xA6
06DD8:  MOVLB  0
06DDA:  CALL   119A
....................                 printf(lcd_out, "Press ENTER     "); 
06DDE:  MOVLW  74
06DE0:  MOVWF  FF6
06DE2:  MOVLW  0C
06DE4:  MOVWF  FF7
06DE6:  CALL   125C
....................                 while(input(ENCODER_SW) == 1); 
06DEA:  BTFSC  F81.6
06DEC:  BRA    6DEA
....................                 delay_ms(20); 
06DEE:  MOVLW  14
06DF0:  MOVLB  3
06DF2:  MOVWF  xA9
06DF4:  MOVLB  0
06DF6:  CALL   0DA4
....................                 while(input(ENCODER_SW) == 0); 
06DFA:  BTFSS  F81.6
06DFC:  BRA    6DFA
....................                 delay_ms(50); 
06DFE:  MOVLW  32
06E00:  MOVLB  3
06E02:  MOVWF  xA9
06E04:  MOVLB  0
06E06:  CALL   0DA4
....................                 // ===== END CHANGE ===== 
....................             } 
06E0A:  BRA    6E22
06E0C:  MOVLB  3
....................             else { 
....................                 while (input(ENCODER_SW) == 0){ 
06E0E:  BTFSC  F81.6
06E10:  BRA    6E20
....................                     delay_ms(10); 
06E12:  MOVLW  0A
06E14:  MOVWF  xA9
06E16:  MOVLB  0
06E18:  CALL   0DA4
06E1C:  MOVLB  3
06E1E:  BRA    6E0E
06E20:  MOVLB  0
....................                 } 
....................             } 
....................              
....................             break; 
06E22:  BRA    6E32
06E24:  MOVLB  3
....................         } 
....................          
....................         delay_ms(1); 
06E26:  MOVLW  01
06E28:  MOVWF  xA9
06E2A:  MOVLB  0
06E2C:  CALL   0DA4
06E30:  BRA    6BC4
....................     } 
....................      
....................     // Step 2: IR at 10min 
....................     last_value = -1; 
06E32:  MOVLB  3
06E34:  SETF   x14
06E36:  SETF   x13
....................     lcd_cmd(LCD_CLEAR);  
06E38:  MOVLW  01
06E3A:  MOVWF  xA8
06E3C:  MOVLB  0
06E3E:  CALL   0E5E
....................     delay_ms(50); 
06E42:  MOVLW  32
06E44:  MOVLB  3
06E46:  MOVWF  xA9
06E48:  MOVLB  0
06E4A:  CALL   0DA4
....................     lcd_goto(0, 1); 
06E4E:  MOVLB  3
06E50:  CLRF   xA5
06E52:  MOVLW  01
06E54:  MOVWF  xA6
06E56:  MOVLB  0
06E58:  CALL   119A
....................     printf(lcd_out, "Enter IR@10min  "); 
06E5C:  MOVLW  86
06E5E:  MOVWF  FF6
06E60:  MOVLW  0C
06E62:  MOVWF  FF7
06E64:  CALL   125C
....................      
....................     while (1) { 
....................         ir_10min = (float)ir_10min_int / 10.0; 
06E68:  MOVFF  302,318
06E6C:  MOVFF  301,317
06E70:  CALL   0F8C
06E74:  MOVFF  03,319
06E78:  MOVFF  02,318
06E7C:  MOVFF  01,317
06E80:  MOVFF  00,316
06E84:  MOVFF  03,31E
06E88:  MOVFF  02,31D
06E8C:  MOVFF  01,31C
06E90:  MOVFF  00,31B
06E94:  MOVLB  3
06E96:  CLRF   x22
06E98:  CLRF   x21
06E9A:  MOVLW  20
06E9C:  MOVWF  x20
06E9E:  MOVLW  82
06EA0:  MOVWF  x1F
06EA2:  MOVLB  0
06EA4:  CALL   0FC2
06EA8:  MOVFF  03,30E
06EAC:  MOVFF  02,30D
06EB0:  MOVFF  01,30C
06EB4:  MOVFF  00,30B
....................          
....................         if (ir_10min_int != last_value) { 
06EB8:  MOVLB  3
06EBA:  MOVF   x13,W
06EBC:  SUBWF  x01,W
06EBE:  BNZ   6EC6
06EC0:  MOVF   x14,W
06EC2:  SUBWF  x02,W
06EC4:  BZ    6F26
....................             lcd_goto(1, 2); 
06EC6:  MOVLW  01
06EC8:  MOVWF  xA5
06ECA:  MOVLW  02
06ECC:  MOVWF  xA6
06ECE:  MOVLB  0
06ED0:  CALL   119A
....................             printf(lcd_out, " : %3.1f MOhm   ", ir_10min); 
06ED4:  MOVLW  98
06ED6:  MOVWF  FF6
06ED8:  MOVLW  0C
06EDA:  MOVWF  FF7
06EDC:  MOVLW  03
06EDE:  MOVLB  3
06EE0:  MOVWF  xA5
06EE2:  MOVLB  0
06EE4:  CALL   18B8
06EE8:  MOVLW  02
06EEA:  MOVWF  FE9
06EEC:  MOVFF  30E,31A
06EF0:  MOVFF  30D,319
06EF4:  MOVFF  30C,318
06EF8:  MOVFF  30B,317
06EFC:  MOVLW  01
06EFE:  MOVLB  3
06F00:  MOVWF  x1B
06F02:  MOVLB  0
06F04:  CALL   1D5A
06F08:  MOVLW  A0
06F0A:  MOVWF  FF6
06F0C:  MOVLW  0C
06F0E:  MOVWF  FF7
06F10:  MOVLW  08
06F12:  MOVLB  3
06F14:  MOVWF  xA5
06F16:  MOVLB  0
06F18:  CALL   18B8
....................             last_value = ir_10min_int; 
06F1C:  MOVFF  302,314
06F20:  MOVFF  301,313
06F24:  MOVLB  3
....................         } 
....................          
....................         if (input(ENCODER_A) == 0 && input(ENCODER_B) != 0) { 
06F26:  BTFSC  F82.5
06F28:  BRA    6F64
06F2A:  BSF    F92.4
06F2C:  BTFSS  F80.4
06F2E:  BRA    6F64
....................             delay_ms(5); 
06F30:  MOVLW  05
06F32:  MOVWF  xA9
06F34:  MOVLB  0
06F36:  CALL   0DA4
....................             if (ir_10min_int < 1000) ir_10min_int += 5; 
06F3A:  MOVLB  3
06F3C:  MOVF   x02,W
06F3E:  SUBLW  03
06F40:  BNC   6F52
06F42:  BNZ   6F4A
06F44:  MOVF   x01,W
06F46:  SUBLW  E7
06F48:  BNC   6F52
06F4A:  MOVLW  05
06F4C:  ADDWF  x01,F
06F4E:  MOVLW  00
06F50:  ADDWFC x02,F
....................             delay_ms(40); 
06F52:  MOVLW  28
06F54:  MOVWF  xA9
06F56:  MOVLB  0
06F58:  CALL   0DA4
....................             while (input(ENCODER_A) == 0); 
06F5C:  BTFSS  F82.5
06F5E:  BRA    6F5C
....................         } 
06F60:  BRA    6F9C
06F62:  MOVLB  3
....................         else if (input(ENCODER_B) == 0 && input(ENCODER_A) != 0) { 
06F64:  BSF    F92.4
06F66:  BTFSC  F80.4
06F68:  BRA    6F9E
06F6A:  BTFSS  F82.5
06F6C:  BRA    6F9E
....................             delay_ms(5); 
06F6E:  MOVLW  05
06F70:  MOVWF  xA9
06F72:  MOVLB  0
06F74:  CALL   0DA4
....................             if (ir_10min_int > 5) ir_10min_int -= 5; 
06F78:  MOVLB  3
06F7A:  MOVF   x02,F
06F7C:  BNZ   6F84
06F7E:  MOVF   x01,W
06F80:  SUBLW  05
06F82:  BC    6F8C
06F84:  MOVLW  05
06F86:  SUBWF  x01,F
06F88:  MOVLW  00
06F8A:  SUBWFB x02,F
....................             delay_ms(40); 
06F8C:  MOVLW  28
06F8E:  MOVWF  xA9
06F90:  MOVLB  0
06F92:  CALL   0DA4
....................             while (input(ENCODER_B) == 0); 
06F96:  BSF    F92.4
06F98:  BTFSS  F80.4
06F9A:  BRA    6F96
06F9C:  MOVLB  3
....................         } 
....................          
....................         if (input(ENCODER_SW) == 0) { 
06F9E:  BTFSC  F81.6
06FA0:  BRA    71A6
....................             delay_ms(50); 
06FA2:  MOVLW  32
06FA4:  MOVWF  xA9
06FA6:  MOVLB  0
06FA8:  CALL   0DA4
....................             button_pressed_flag = 1; 
06FAC:  MOVLB  3
06FAE:  BSF    x15.0
....................              
....................             if (ir_10min_int != original_ir_10min) { 
06FB0:  MOVF   x05,W
06FB2:  SUBWF  x01,W
06FB4:  BNZ   6FBC
06FB6:  MOVF   x06,W
06FB8:  SUBWF  x02,W
06FBA:  BZ    6FBE
....................                 values_changed = 1; 
06FBC:  BSF    x15.1
....................             } 
....................              
....................             if (values_changed || (ir_1min_int != original_ir_1min) || (ir_10min_int != original_ir_10min)) { 
06FBE:  BTFSC  x15.1
06FC0:  BRA    6FE6
06FC2:  MOVF   x03,W
06FC4:  MOVLB  2
06FC6:  SUBWF  xFF,W
06FC8:  BTFSC  FD8.2
06FCA:  BRA    6FD0
06FCC:  MOVLB  3
06FCE:  BRA    6FE6
06FD0:  MOVLB  3
06FD2:  MOVF   x04,W
06FD4:  SUBWF  x00,W
06FD6:  BNZ   6FE6
06FD8:  MOVF   x05,W
06FDA:  SUBWF  x01,W
06FDC:  BNZ   6FE6
06FDE:  MOVF   x06,W
06FE0:  SUBWF  x02,W
06FE2:  BTFSC  FD8.2
06FE4:  BRA    718E
....................                 lcd_cmd(LCD_CLEAR);       
06FE6:  MOVLW  01
06FE8:  MOVWF  xA8
06FEA:  MOVLB  0
06FEC:  CALL   0E5E
....................                 lcd_goto(1, 1); 
06FF0:  MOVLW  01
06FF2:  MOVLB  3
06FF4:  MOVWF  xA5
06FF6:  MOVWF  xA6
06FF8:  MOVLB  0
06FFA:  CALL   119A
....................                 printf(lcd_out, "PI VALUES SAVED!"); 
06FFE:  MOVLW  AA
07000:  MOVWF  FF6
07002:  MOVLW  0C
07004:  MOVWF  FF7
07006:  CALL   125C
....................                 lcd_goto(1, 2); 
0700A:  MOVLW  01
0700C:  MOVLB  3
0700E:  MOVWF  xA5
07010:  MOVLW  02
07012:  MOVWF  xA6
07014:  MOVLB  0
07016:  CALL   119A
....................                 printf(lcd_out, "1m:%3.1f 10m:%3.1f", ir_1min, ir_10min); 
0701A:  MOVLW  BC
0701C:  MOVWF  FF6
0701E:  MOVLW  0C
07020:  MOVWF  FF7
07022:  MOVLW  03
07024:  MOVLB  3
07026:  MOVWF  xA5
07028:  MOVLB  0
0702A:  CALL   18B8
0702E:  MOVLW  02
07030:  MOVWF  FE9
07032:  MOVFF  30A,31A
07036:  MOVFF  309,319
0703A:  MOVFF  308,318
0703E:  MOVFF  307,317
07042:  MOVLW  01
07044:  MOVLB  3
07046:  MOVWF  x1B
07048:  MOVLB  0
0704A:  CALL   1D5A
0704E:  MOVLW  C4
07050:  MOVWF  FF6
07052:  MOVLW  0C
07054:  MOVWF  FF7
07056:  MOVLW  05
07058:  MOVLB  3
0705A:  MOVWF  xA5
0705C:  MOVLB  0
0705E:  CALL   18B8
07062:  MOVLW  02
07064:  MOVWF  FE9
07066:  MOVFF  30E,31A
0706A:  MOVFF  30D,319
0706E:  MOVFF  30C,318
07072:  MOVFF  30B,317
07076:  MOVLW  01
07078:  MOVLB  3
0707A:  MOVWF  x1B
0707C:  MOVLB  0
0707E:  CALL   1D5A
....................                  
....................                 while (input(ENCODER_SW) == 0) { 
07082:  BTFSC  F81.6
07084:  BRA    7094
....................                     delay_ms(10); 
07086:  MOVLW  0A
07088:  MOVLB  3
0708A:  MOVWF  xA9
0708C:  MOVLB  0
0708E:  CALL   0DA4
07092:  BRA    7082
....................                 } 
....................                  
....................                 write_eeprom(0x3A, make8(ir_1min_int, 0)); 
07094:  MOVFF  2FF,316
07098:  MOVF   FF2,W
0709A:  MOVWF  00
0709C:  BCF    FF2.7
0709E:  CLRF   FAA
070A0:  MOVLW  3A
070A2:  MOVWF  FA9
070A4:  MOVFF  316,FA8
070A8:  BCF    FA6.6
070AA:  BCF    FA6.7
070AC:  BSF    FA6.2
070AE:  MOVLB  F
070B0:  MOVLW  55
070B2:  MOVWF  FA7
070B4:  MOVLW  AA
070B6:  MOVWF  FA7
070B8:  BSF    FA6.1
070BA:  BTFSC  FA6.1
070BC:  BRA    70BA
070BE:  BCF    FA6.2
070C0:  MOVF   00,W
070C2:  IORWF  FF2,F
....................                 write_eeprom(0x3B, make8(ir_1min_int, 1)); 
070C4:  MOVFF  300,316
070C8:  MOVFF  FF2,00
070CC:  BCF    FF2.7
070CE:  CLRF   FAA
070D0:  MOVLW  3B
070D2:  MOVWF  FA9
070D4:  MOVFF  300,FA8
070D8:  BCF    FA6.6
070DA:  BCF    FA6.7
070DC:  BSF    FA6.2
070DE:  MOVLW  55
070E0:  MOVWF  FA7
070E2:  MOVLW  AA
070E4:  MOVWF  FA7
070E6:  BSF    FA6.1
070E8:  BTFSC  FA6.1
070EA:  BRA    70E8
070EC:  BCF    FA6.2
070EE:  MOVF   00,W
070F0:  IORWF  FF2,F
....................                 write_eeprom(0x3C, make8(ir_10min_int, 0)); 
070F2:  MOVFF  301,316
070F6:  MOVFF  FF2,00
070FA:  BCF    FF2.7
070FC:  CLRF   FAA
070FE:  MOVLW  3C
07100:  MOVWF  FA9
07102:  MOVFF  301,FA8
07106:  BCF    FA6.6
07108:  BCF    FA6.7
0710A:  BSF    FA6.2
0710C:  MOVLW  55
0710E:  MOVWF  FA7
07110:  MOVLW  AA
07112:  MOVWF  FA7
07114:  BSF    FA6.1
07116:  BTFSC  FA6.1
07118:  BRA    7116
0711A:  BCF    FA6.2
0711C:  MOVF   00,W
0711E:  IORWF  FF2,F
....................                 write_eeprom(0x3D, make8(ir_10min_int, 1)); 
07120:  MOVFF  302,316
07124:  MOVFF  FF2,00
07128:  BCF    FF2.7
0712A:  CLRF   FAA
0712C:  MOVLW  3D
0712E:  MOVWF  FA9
07130:  MOVFF  302,FA8
07134:  BCF    FA6.6
07136:  BCF    FA6.7
07138:  BSF    FA6.2
0713A:  MOVLW  55
0713C:  MOVWF  FA7
0713E:  MOVLW  AA
07140:  MOVWF  FA7
07142:  BSF    FA6.1
07144:  BTFSC  FA6.1
07146:  BRA    7144
07148:  BCF    FA6.2
0714A:  MOVF   00,W
0714C:  IORWF  FF2,F
....................                  
....................                 // ===== CHANGED: Press ENTER to see result ===== 
....................                 lcd_goto(1, 2); 
0714E:  MOVLW  01
07150:  MOVLB  3
07152:  MOVWF  xA5
07154:  MOVLW  02
07156:  MOVWF  xA6
07158:  MOVLB  0
0715A:  CALL   119A
....................                 printf(lcd_out, "Press ENTER     "); 
0715E:  MOVLW  D0
07160:  MOVWF  FF6
07162:  MOVLW  0C
07164:  MOVWF  FF7
07166:  CALL   125C
....................                 while(input(ENCODER_SW) == 1); 
0716A:  BTFSC  F81.6
0716C:  BRA    716A
....................                 delay_ms(20); 
0716E:  MOVLW  14
07170:  MOVLB  3
07172:  MOVWF  xA9
07174:  MOVLB  0
07176:  CALL   0DA4
....................                 while(input(ENCODER_SW) == 0); 
0717A:  BTFSS  F81.6
0717C:  BRA    717A
....................                 delay_ms(50); 
0717E:  MOVLW  32
07180:  MOVLB  3
07182:  MOVWF  xA9
07184:  MOVLB  0
07186:  CALL   0DA4
....................                 // ===== END CHANGE ===== 
....................             } 
0718A:  BRA    71A2
0718C:  MOVLB  3
....................             else { 
....................                 while (input(ENCODER_SW) == 0) { 
0718E:  BTFSC  F81.6
07190:  BRA    71A0
....................                     delay_ms(10); 
07192:  MOVLW  0A
07194:  MOVWF  xA9
07196:  MOVLB  0
07198:  CALL   0DA4
0719C:  MOVLB  3
0719E:  BRA    718E
071A0:  MOVLB  0
....................                 } 
....................             } 
....................              
....................             break; 
071A2:  BRA    71B2
071A4:  MOVLB  3
....................         } 
....................          
....................         delay_ms(1); 
071A6:  MOVLW  01
071A8:  MOVWF  xA9
071AA:  MOVLB  0
071AC:  CALL   0DA4
071B0:  BRA    6E68
....................     } 
....................      
....................     // Step 3: Calculate PI and show result 
....................     ir_1min = (float)ir_1min_int / 10.0; 
071B2:  MOVFF  300,318
071B6:  MOVFF  2FF,317
071BA:  CALL   0F8C
071BE:  MOVFF  03,319
071C2:  MOVFF  02,318
071C6:  MOVFF  01,317
071CA:  MOVFF  00,316
071CE:  MOVFF  03,31E
071D2:  MOVFF  02,31D
071D6:  MOVFF  01,31C
071DA:  MOVFF  00,31B
071DE:  MOVLB  3
071E0:  CLRF   x22
071E2:  CLRF   x21
071E4:  MOVLW  20
071E6:  MOVWF  x20
071E8:  MOVLW  82
071EA:  MOVWF  x1F
071EC:  MOVLB  0
071EE:  CALL   0FC2
071F2:  MOVFF  03,30A
071F6:  MOVFF  02,309
071FA:  MOVFF  01,308
071FE:  MOVFF  00,307
....................     ir_10min = (float)ir_10min_int / 10.0; 
07202:  MOVFF  302,318
07206:  MOVFF  301,317
0720A:  CALL   0F8C
0720E:  MOVFF  03,319
07212:  MOVFF  02,318
07216:  MOVFF  01,317
0721A:  MOVFF  00,316
0721E:  MOVFF  03,31E
07222:  MOVFF  02,31D
07226:  MOVFF  01,31C
0722A:  MOVFF  00,31B
0722E:  MOVLB  3
07230:  CLRF   x22
07232:  CLRF   x21
07234:  MOVLW  20
07236:  MOVWF  x20
07238:  MOVLW  82
0723A:  MOVWF  x1F
0723C:  MOVLB  0
0723E:  CALL   0FC2
07242:  MOVFF  03,30E
07246:  MOVFF  02,30D
0724A:  MOVFF  01,30C
0724E:  MOVFF  00,30B
....................     pii = ir_10min / ir_1min; 
07252:  MOVFF  30E,31E
07256:  MOVFF  30D,31D
0725A:  MOVFF  30C,31C
0725E:  MOVFF  30B,31B
07262:  MOVFF  30A,322
07266:  MOVFF  309,321
0726A:  MOVFF  308,320
0726E:  MOVFF  307,31F
07272:  CALL   0FC2
07276:  MOVFF  03,312
0727A:  MOVFF  02,311
0727E:  MOVFF  01,310
07282:  MOVFF  00,30F
....................      
....................     lcd_cmd(LCD_CLEAR);       
07286:  MOVLW  01
07288:  MOVLB  3
0728A:  MOVWF  xA8
0728C:  MOVLB  0
0728E:  CALL   0E5E
....................     delay_ms(50); 
07292:  MOVLW  32
07294:  MOVLB  3
07296:  MOVWF  xA9
07298:  MOVLB  0
0729A:  CALL   0DA4
....................     lcd_goto(1, 1); 
0729E:  MOVLW  01
072A0:  MOVLB  3
072A2:  MOVWF  xA5
072A4:  MOVWF  xA6
072A6:  MOVLB  0
072A8:  CALL   119A
....................     printf(lcd_out, "PI=%3.2f RESULT ", pii); 
072AC:  MOVLW  E2
072AE:  MOVWF  FF6
072B0:  MOVLW  0C
072B2:  MOVWF  FF7
072B4:  MOVLW  03
072B6:  MOVLB  3
072B8:  MOVWF  xA5
072BA:  MOVLB  0
072BC:  CALL   18B8
072C0:  MOVLW  02
072C2:  MOVWF  FE9
072C4:  MOVFF  312,31A
072C8:  MOVFF  311,319
072CC:  MOVFF  310,318
072D0:  MOVFF  30F,317
072D4:  MOVLB  3
072D6:  MOVWF  x1B
072D8:  MOVLB  0
072DA:  CALL   1D5A
072DE:  MOVLW  EA
072E0:  MOVWF  FF6
072E2:  MOVLW  0C
072E4:  MOVWF  FF7
072E6:  MOVLW  08
072E8:  MOVLB  3
072EA:  MOVWF  xA5
072EC:  MOVLB  0
072EE:  CALL   18B8
....................     lcd_goto(1, 2); 
072F2:  MOVLW  01
072F4:  MOVLB  3
072F6:  MOVWF  xA5
072F8:  MOVLW  02
072FA:  MOVWF  xA6
072FC:  MOVLB  0
072FE:  CALL   119A
....................     if (pii >= 2.0) 
07302:  MOVLB  3
07304:  CLRF   x1A
07306:  CLRF   x19
07308:  CLRF   x18
0730A:  MOVLW  80
0730C:  MOVWF  x17
0730E:  MOVFF  312,31E
07312:  MOVFF  311,31D
07316:  MOVFF  310,31C
0731A:  MOVFF  30F,31B
0731E:  MOVLB  0
07320:  CALL   1120
07324:  BC    7328
07326:  BNZ   7336
....................         printf(lcd_out, "GOOD INSULATION "); 
07328:  MOVLW  F4
0732A:  MOVWF  FF6
0732C:  MOVLW  0C
0732E:  MOVWF  FF7
07330:  CALL   125C
07334:  BRA    7376
....................     else if (pii >= 1.0) 
07336:  MOVLB  3
07338:  CLRF   x1A
0733A:  CLRF   x19
0733C:  CLRF   x18
0733E:  MOVLW  7F
07340:  MOVWF  x17
07342:  MOVFF  312,31E
07346:  MOVFF  311,31D
0734A:  MOVFF  310,31C
0734E:  MOVFF  30F,31B
07352:  MOVLB  0
07354:  CALL   1120
07358:  BC    735C
0735A:  BNZ   736A
....................         printf(lcd_out, "POOR INSULATION "); 
0735C:  MOVLW  06
0735E:  MOVWF  FF6
07360:  MOVLW  0D
07362:  MOVWF  FF7
07364:  CALL   125C
07368:  BRA    7376
....................     else 
....................         printf(lcd_out, "BAD INSULATION  "); 
0736A:  MOVLW  18
0736C:  MOVWF  FF6
0736E:  MOVLW  0D
07370:  MOVWF  FF7
07372:  CALL   125C
....................      
....................     // ===== CHANGED: Press ENTER instead of 3 sec delay ===== 
....................     // Wait on result screen until user presses ENTER 
....................     while(input(ENCODER_SW) == 1); 
07376:  BTFSC  F81.6
07378:  BRA    7376
....................     delay_ms(20); 
0737A:  MOVLW  14
0737C:  MOVLB  3
0737E:  MOVWF  xA9
07380:  MOVLB  0
07382:  CALL   0DA4
....................     while(input(ENCODER_SW) == 0); 
07386:  BTFSS  F81.6
07388:  BRA    7386
....................     delay_ms(50); 
0738A:  MOVLW  32
0738C:  MOVLB  3
0738E:  MOVWF  xA9
07390:  MOVLB  0
07392:  CALL   0DA4
....................     // ===== END CHANGE ===== 
....................      
....................     advance_to_next_menu(); 
07396:  CALL   2244
....................      
....................     lcd_cmd(LCD_CLEAR);  
0739A:  MOVLW  01
0739C:  MOVLB  3
0739E:  MOVWF  xA8
073A0:  MOVLB  0
073A2:  CALL   0E5E
....................     delay_ms(100); 
073A6:  MOVLW  64
073A8:  MOVLB  3
073AA:  MOVWF  xA9
073AC:  MOVLB  0
073AE:  CALL   0DA4
073B2:  GOTO   746E (RETURN)
.................... } 
....................  
.................... // ==================== ENHANCED MENU HANDLER ==================== 
....................  
.................... void handle_menu(void) { 
....................    while (prog == 1) { 
073B6:  DECFSZ 3F,W
073B8:  BRA    7470
....................       if (in_menu_selection) { 
073BA:  MOVF   4C,F
073BC:  BZ    73C2
....................          handle_menu_navigation(); 
073BE:  GOTO   215C
....................       } 
....................        
....................       if (!in_menu_selection && prog == 1) { 
073C2:  MOVF   4C,F
073C4:  BNZ   746E
073C6:  DECFSZ 3F,W
073C8:  BRA    746E
....................       if (menu_number == 1) { 
073CA:  DECFSZ 4B,W
073CC:  BRA    73D4
....................          handle_phase_menu(); 
073CE:  GOTO   2256
....................       } 
073D2:  BRA    746E
....................       else if (menu_number == 2) { 
073D4:  MOVF   4B,W
073D6:  SUBLW  02
073D8:  BNZ   73E0
....................          handle_juice_menu(); 
073DA:  GOTO   24E6
....................       } 
073DE:  BRA    746E
....................       else if (menu_number == 3) { 
073E0:  MOVF   4B,W
073E2:  SUBLW  03
073E4:  BNZ   73EC
....................          handle_power_on_delay(); 
073E6:  GOTO   2712
....................       } 
073EA:  BRA    746E
....................       else if (menu_number == 4) { 
073EC:  MOVF   4B,W
073EE:  SUBLW  04
073F0:  BNZ   73F8
....................          handle_set_on_time(); 
073F2:  GOTO   2C1A
....................       } 
073F6:  BRA    746E
....................       else if (menu_number == 5) { 
073F8:  MOVF   4B,W
073FA:  SUBLW  05
073FC:  BNZ   7404
....................          handle_star_delta_delay(); 
073FE:  GOTO   30E8
....................       } 
07402:  BRA    746E
....................       else if (menu_number == 6) { 
07404:  MOVF   4B,W
07406:  SUBLW  06
07408:  BNZ   7410
....................          handle_voltage_setting(); 
0740A:  GOTO   38C6
....................       } 
0740E:  BRA    746E
....................       else if (menu_number == 7) { 
07410:  MOVF   4B,W
07412:  SUBLW  07
07414:  BNZ   741C
....................          handle_dryrun_delay(); 
07416:  GOTO   475E
....................       } 
0741A:  BRA    746E
....................       else if (menu_number == 8) { 
0741C:  MOVF   4B,W
0741E:  SUBLW  08
07420:  BNZ   7428
....................          handle_dryrun_restart(); 
07422:  GOTO   4C6A
....................       } 
07426:  BRA    746E
....................       else if (menu_number == 9) { 
07428:  MOVF   4B,W
0742A:  SUBLW  09
0742C:  BNZ   7434
....................          handle_dryrun_trip();         
0742E:  GOTO   5176
....................       } 
07432:  BRA    746E
....................       else if (menu_number == 10) { 
07434:  MOVF   4B,W
07436:  SUBLW  0A
07438:  BNZ   7440
....................          handle_cyclic_timer();       
0743A:  GOTO   569C
....................       } 
0743E:  BRA    746E
....................       else if (menu_number == 11) { 
07440:  MOVF   4B,W
07442:  SUBLW  0B
07444:  BNZ   744C
....................          handle_auto_restart_mode();   
07446:  GOTO   6016
....................       } 
0744A:  BRA    746E
....................       else if (menu_number == 12) { 
0744C:  MOVF   4B,W
0744E:  SUBLW  0C
07450:  BNZ   7458
....................          handle_unbalance_trip_setting();  
07452:  GOTO   62F8
....................       } 
07456:  BRA    746E
....................       else if (menu_number == 13) { 
07458:  MOVF   4B,W
0745A:  SUBLW  0D
0745C:  BNZ   7464
....................          handle_ct_selection_menu();  
0745E:  GOTO   666C
....................       } 
07462:  BRA    746E
....................       else if (menu_number == 14) { 
07464:  MOVF   4B,W
07466:  SUBLW  0E
07468:  BNZ   746E
....................          handle_polarization_index_menu();  
0746A:  GOTO   6A9A
....................       } 
....................    } 
0746E:  BRA    73B6
....................    } 
07470:  GOTO   8D8E (RETURN)
.................... } 
....................  
.................... void check_unbalance_trip() { 
....................    float r = ramp; 
....................    float y = yamp; 
....................    float b = bamp; 
....................  
....................    float max = r; 
....................    if (y > max) max = y; 
....................    if (b > max) max = b; 
....................  
....................    float min = r; 
....................    if (y < min) min = y; 
....................    if (b < min) min = b; 
....................  
....................    float avg = (r + y + b) / 3.0; 
....................    if (avg == 0.0){ 
....................       trip_status=0; 
....................       return; 
....................    } 
....................     
....................    float unbalance = ((max - min) / avg) * 100.0; 
....................  
....................    int16 ub_limit = make16(read_eeprom(0x27), read_eeprom(0x26)); 
....................    if (ub_limit > 100) ub_limit = 30; 
....................  
....................    if (unbalance > ub_limit) { 
....................       output_low(PIN_C1); 
....................       trip_status = 1; 
....................     } else { 
....................         trip_status = 0; 
....................     } 
.................... } 
....................  
.................... // ==================== MAIN FUNCTION ==================== 
....................  
.................... void main() { 
*
074B6:  CLRF   FF8
074B8:  BCF    FD0.7
074BA:  BSF    07.7
074BC:  MOVLW  01
074BE:  MOVWF  1D
074C0:  MOVWF  1E
074C2:  CLRF   20
074C4:  CLRF   1F
074C6:  CLRF   22
074C8:  CLRF   21
074CA:  CLRF   24
074CC:  CLRF   23
074CE:  CLRF   26
074D0:  CLRF   25
074D2:  CLRF   27
074D4:  CLRF   28
074D6:  CLRF   29
074D8:  CLRF   2A
074DA:  CLRF   2B
074DC:  CLRF   2C
074DE:  CLRF   2D
074E0:  CLRF   2E
074E2:  CLRF   2F
074E4:  CLRF   31
074E6:  CLRF   30
074E8:  CLRF   33
074EA:  CLRF   32
074EC:  CLRF   35
074EE:  CLRF   34
074F0:  CLRF   36
074F2:  CLRF   37
074F4:  CLRF   38
074F6:  CLRF   39
074F8:  CLRF   3A
074FA:  CLRF   3B
074FC:  CLRF   3D
074FE:  CLRF   3C
07500:  CLRF   3E
07502:  CLRF   3F
07504:  CLRF   40
07506:  CLRF   41
07508:  CLRF   43
0750A:  CLRF   42
0750C:  CLRF   45
0750E:  CLRF   44
07510:  CLRF   47
07512:  CLRF   46
07514:  CLRF   48
07516:  CLRF   49
07518:  CLRF   4A
0751A:  MOVWF  4B
0751C:  MOVWF  4C
0751E:  CLRF   4D
07520:  MOVLB  1
07522:  CLRF   x55
07524:  CLRF   x56
07526:  CLRF   x75
07528:  CLRF   x76
0752A:  CLRF   x77
0752C:  CLRF   x7B
0752E:  CLRF   x7A
07530:  CLRF   x79
07532:  CLRF   x78
07534:  CLRF   x8E
07536:  CLRF   x8F
07538:  BCF    1C.1
0753A:  CLRF   x91
0753C:  CLRF   x90
0753E:  CLRF   x93
07540:  CLRF   x92
07542:  CLRF   x95
07544:  CLRF   x94
07546:  CLRF   x96
07548:  CLRF   x97
0754A:  CLRF   x98
0754C:  CLRF   x99
0754E:  CLRF   x9B
07550:  CLRF   x9A
07552:  CLRF   x9C
07554:  CLRF   x9E
07556:  CLRF   x9D
07558:  CLRF   xA0
0755A:  CLRF   x9F
0755C:  CLRF   xA7
0755E:  CLRF   xA8
07560:  CLRF   xAC
07562:  CLRF   xAB
07564:  CLRF   xAA
07566:  CLRF   xA9
07568:  CLRF   xB0
0756A:  CLRF   xAF
0756C:  CLRF   xAE
0756E:  CLRF   xAD
07570:  CLRF   xB4
07572:  CLRF   xB3
07574:  CLRF   xB2
07576:  CLRF   xB1
07578:  CLRF   xB6
0757A:  CLRF   xB5
0757C:  CLRF   xB8
0757E:  CLRF   xB7
07580:  CLRF   xBA
07582:  CLRF   xB9
07584:  CLRF   xBC
07586:  CLRF   xBB
07588:  CLRF   xBE
0758A:  CLRF   xBD
0758C:  CLRF   xC0
0758E:  CLRF   xBF
07590:  CLRF   xC6
07592:  CLRF   xC5
07594:  MOVLW  61
07596:  MOVWF  xC7
07598:  CLRF   xC8
0759A:  CLRF   xCB
0759C:  CLRF   xCC
0759E:  BCF    1C.2
075A0:  BCF    1C.3
075A2:  MOVLB  2
075A4:  CLRF   xA2
075A6:  CLRF   xA3
075A8:  BCF    1C.4
075AA:  CLRF   xA4
075AC:  CLRF   xA5
075AE:  BCF    1C.5
075B0:  CLRF   xB7
075B2:  CLRF   xB6
075B4:  CLRF   xB8
075B6:  CLRF   xBA
075B8:  CLRF   xB9
075BA:  CLRF   xBB
075BC:  CLRF   xBC
075BE:  MOVLW  0E
075C0:  MOVWF  xD1
075C2:  MOVLW  29
075C4:  MOVWF  xD2
075C6:  MOVLW  33
075C8:  MOVWF  xD3
075CA:  CLRF   xD7
075CC:  CLRF   xD8
075CE:  CLRF   xD9
075D0:  CLRF   xDA
075D2:  CLRF   xDC
075D4:  MOVLW  5A
075D6:  MOVWF  xDB
075D8:  CLRF   xDD
075DA:  CLRF   xDE
075DC:  CLRF   xDF
075DE:  CLRF   xE0
075E0:  BCF    1C.6
075E2:  SETF   xE4
075E4:  MOVF   FC1,W
075E6:  ANDLW  F0
075E8:  MOVWF  FC1
075EA:  MOVLW  00
075EC:  MOVLB  F
075EE:  MOVWF  x38
075F0:  MOVWF  x39
075F2:  MOVWF  x3A
075F4:  CLRF   F77
075F6:  CLRF   F78
075F8:  CLRF   F79
075FA:  BRA    7738
075FC:  DATA 02,00
075FE:  DATA 16,00
07600:  DATA 00,E5
07602:  DATA 00,6E
07604:  DATA 00,31
07606:  DATA 2E,50
07608:  DATA 48,41
0760A:  DATA 53,45
0760C:  DATA 20,53
0760E:  DATA 45,54
07610:  DATA 54,49
07612:  DATA 4E,47
07614:  DATA 00,32
07616:  DATA 2E,4A
07618:  DATA 55,49
0761A:  DATA 43,45
0761C:  DATA 20,43
0761E:  DATA 4F,4E
07620:  DATA 54,52
07622:  DATA 4F,4C
07624:  DATA 00,33
07626:  DATA 2E,50
07628:  DATA 4F,57
0762A:  DATA 45,52
0762C:  DATA 20,4F
0762E:  DATA 4E,20
07630:  DATA 44,45
07632:  DATA 4C,41
07634:  DATA 59,00
07636:  DATA 34,2E
07638:  DATA 53,45
0763A:  DATA 54,20
0763C:  DATA 4F,4E
0763E:  DATA 20,54
07640:  DATA 49,4D
07642:  DATA 45,00
07644:  DATA 35,2E
07646:  DATA 53,54
07648:  DATA 41,52
0764A:  DATA 20,44
0764C:  DATA 45,4C
0764E:  DATA 54,41
07650:  DATA 20,44
07652:  DATA 4C,59
07654:  DATA 00,36
07656:  DATA 2E,56
07658:  DATA 4F,4C
0765A:  DATA 54,20
0765C:  DATA 53,45
0765E:  DATA 54,54
07660:  DATA 49,4E
07662:  DATA 47,00
07664:  DATA 37,2E
07666:  DATA 44,52
07668:  DATA 59,20
0766A:  DATA 52,55
0766C:  DATA 4E,20
0766E:  DATA 44,45
07670:  DATA 4C,41
07672:  DATA 59,00
07674:  DATA 38,2E
07676:  DATA 44,52
07678:  DATA 59,52
0767A:  DATA 55,4E
0767C:  DATA 20,52
0767E:  DATA 45,53
07680:  DATA 54,41
07682:  DATA 52,54
07684:  DATA 00,39
07686:  DATA 2E,44
07688:  DATA 52,59
0768A:  DATA 52,55
0768C:  DATA 4E,20
0768E:  DATA 54,52
07690:  DATA 49,50
07692:  DATA 00,31
07694:  DATA 30,2E
07696:  DATA 43,59
07698:  DATA 43,4C
0769A:  DATA 49,43
0769C:  DATA 20,54
0769E:  DATA 49,4D
076A0:  DATA 45,52
076A2:  DATA 00,31
076A4:  DATA 31,2E
076A6:  DATA 41,55
076A8:  DATA 54,4F
076AA:  DATA 20,53
076AC:  DATA 54,41
076AE:  DATA 52,54
076B0:  DATA 00,31
076B2:  DATA 32,2E
076B4:  DATA 55,4E
076B6:  DATA 42,41
076B8:  DATA 4C,41
076BA:  DATA 4E,43
076BC:  DATA 45,44
076BE:  DATA 20,54
076C0:  DATA 52,50
076C2:  DATA 00,31
076C4:  DATA 33,2E
076C6:  DATA 43,54
076C8:  DATA 20,54
076CA:  DATA 59,50
076CC:  DATA 45,00
076CE:  DATA 31,34
076D0:  DATA 2E,50
076D2:  DATA 49,20
076D4:  DATA 54,45
076D6:  DATA 53,54
076D8:  DATA 00,31
076DA:  DATA 35,2E
076DC:  DATA 45,58
076DE:  DATA 49,54
076E0:  DATA 20,54
076E2:  DATA 4F,20
076E4:  DATA 4D,41
076E6:  DATA 49,4E
076E8:  DATA 00,20
076EA:  DATA 00,4E
076EC:  DATA 6E,00
076EE:  DATA 6F,00
076F0:  DATA 7F,00
076F2:  DATA 8F,00
076F4:  DATA A0,00
076F6:  DATA AE,00
076F8:  DATA BF,00
076FA:  DATA CE,00
076FC:  DATA DE,00
076FE:  DATA EF,00
07700:  DATA FD,00
07702:  DATA 0D,01
07704:  DATA 1B,01
07706:  DATA 2D,01
07708:  DATA 38,01
0770A:  DATA 43,01
0770C:  DATA 06,41
0770E:  DATA 57,00
07710:  DATA 06,80
07712:  DATA FF,03
07714:  DATA FF,03
07716:  DATA FF,03
07718:  DATA 12,C0
0771A:  DATA 00,0D
0771C:  DATA 01,7C
0771E:  DATA 31,32
07720:  DATA 33,00
07722:  DATA 31,33
07724:  DATA 32,00
07726:  DATA 96,00
07728:  DATA 96,00
0772A:  DATA 96,05
0772C:  DATA C0,00
0772E:  DATA 06,41
07730:  DATA A1,00
07732:  DATA 14,42
07734:  DATA BD,00
07736:  DATA 00,00
07738:  MOVLW  00
0773A:  MOVWF  FF8
0773C:  MOVLW  75
0773E:  MOVWF  FF7
07740:  MOVLW  FC
07742:  MOVWF  FF6
07744:  TBLRD*+
07746:  MOVF   FF5,W
07748:  MOVWF  00
0774A:  XORLW  00
0774C:  BZ    7774
0774E:  TBLRD*+
07750:  MOVF   FF5,W
07752:  MOVWF  01
07754:  BTFSC  FE8.7
07756:  BRA    7762
07758:  ANDLW  0F
0775A:  MOVWF  FEA
0775C:  TBLRD*+
0775E:  MOVFF  FF5,FE9
07762:  BTFSC  01.6
07764:  TBLRD*+
07766:  BTFSS  01.6
07768:  TBLRD*+
0776A:  MOVFF  FF5,FEE
0776E:  DCFSNZ 00,F
07770:  BRA    7744
07772:  BRA    7766
07774:  CLRF   FF8
....................    output_high(ON); 
07776:  BSF    F8A.4
....................    output_high(OFF); 
07778:  BSF    F8A.5
....................    output_high(RLED); 
0777A:  BSF    F8B.0
....................    output_high(YLED); 
0777C:  BSF    F8B.1
....................    output_high(BLED); 
0777E:  BSF    F8A.1
....................    lcd_initialize();   
07780:  MOVLB  0
07782:  CALL   0ECC
....................    set_tris_a(0xFF); 
07786:  MOVLW  FF
07788:  MOVWF  F92
....................    set_tris_b(0xCC); 
0778A:  MOVLW  CC
0778C:  MOVWF  F93
....................    set_tris_c(0xA4); 
0778E:  MOVLW  A4
07790:  MOVWF  F94
....................      
....................    setup_adc_ports(sAN0|sAN1|sAN2|sAN3|sAN4|sAN14|NO_ANALOGS); 
07792:  MOVF   FC1,W
07794:  ANDLW  F0
07796:  MOVWF  FC1
07798:  MOVLW  2F
0779A:  MOVLB  F
0779C:  MOVWF  x38
0779E:  MOVLW  00
077A0:  MOVWF  x39
077A2:  MOVLW  04
077A4:  MOVWF  x3A
....................    setup_adc(ADC_CLOCK_INTERNAL); 
077A6:  MOVF   FC0,W
077A8:  ANDLW  C0
077AA:  IORLW  07
077AC:  MOVWF  FC0
077AE:  BSF    FC0.7
077B0:  BSF    FC2.0
....................    output_low(OFF); 
077B2:  BCF    F8A.5
....................    output_high(OFF); 
077B4:  BSF    F8A.5
....................    setup_timer_1(T1_INTERNAL|T1_DIV_BY_8); 
077B6:  MOVLW  37
077B8:  MOVWF  FCD
077BA:  CLRF   FCC
....................    enable_interrupts(int_AD); 
077BC:  BSF    F9D.6
....................    enable_interrupts(int_TIMER1); 
077BE:  BSF    F9D.0
....................    set_timer1(34286); 
077C0:  MOVLW  85
077C2:  MOVWF  FCF
077C4:  MOVLW  EE
077C6:  MOVWF  FCE
....................    enable_interrupts(int_AD); 
077C8:  BSF    F9D.6
....................    enable_interrupts(int_TIMER1); 
077CA:  BSF    F9D.0
....................    enable_interrupts(GLOBAL); 
077CC:  MOVLW  C0
077CE:  IORWF  FF2,F
....................    delay_ms(10); 
077D0:  MOVLW  0A
077D2:  MOVLB  3
077D4:  MOVWF  xA9
077D6:  MOVLB  0
077D8:  CALL   0DA4
....................    read_adc(ADC_START_ONLY); 
077DC:  BSF    FC2.1
....................     
....................    // ==== Load values from EEPROM ==== 
....................    phase_setting = read_eeprom(0x00); 
077DE:  MOVFF  FF2,2FF
077E2:  BCF    FF2.7
077E4:  CLRF   FAA
077E6:  CLRF   FA9
077E8:  BCF    FA6.6
077EA:  BCF    FA6.7
077EC:  BSF    FA6.0
077EE:  MOVF   FA8,W
077F0:  MOVLB  2
077F2:  BTFSC  xFF.7
077F4:  BSF    FF2.7
077F6:  MOVWF  40
....................    if(phase_setting==0xff) 
077F8:  INCFSZ 40,W
077FA:  BRA    77FE
....................    { 
....................       phase_setting=0; 
077FC:  CLRF   40
....................    } 
....................    phase=phase_setting;    
077FE:  MOVFF  40,153
....................    
....................    if(phase) 
07802:  MOVLB  1
07804:  MOVF   x53,F
07806:  BZ    780A
....................    { 
....................       seqok=1; 
07808:  BSF    1C.6
....................    } 
....................     
....................    hv_value = make16(read_eeprom(0x05), read_eeprom(0x04)); 
0780A:  MOVFF  FF2,2FF
0780E:  BCF    FF2.7
07810:  CLRF   FAA
07812:  MOVLW  05
07814:  MOVWF  FA9
07816:  BCF    FA6.6
07818:  BCF    FA6.7
0781A:  BSF    FA6.0
0781C:  MOVF   FA8,W
0781E:  MOVLB  2
07820:  BTFSC  xFF.7
07822:  BSF    FF2.7
07824:  MOVLB  3
07826:  MOVWF  x00
07828:  MOVFF  FF2,301
0782C:  BCF    FF2.7
0782E:  CLRF   FAA
07830:  MOVLW  04
07832:  MOVWF  FA9
07834:  BCF    FA6.6
07836:  BCF    FA6.7
07838:  BSF    FA6.0
0783A:  MOVF   FA8,W
0783C:  BTFSC  x01.7
0783E:  BSF    FF2.7
07840:  MOVWF  x02
07842:  MOVFF  300,43
07846:  MOVFF  302,42
....................    lv_value = make16(read_eeprom(0x09), read_eeprom(0x08)); 
0784A:  MOVFF  FF2,2FF
0784E:  BCF    FF2.7
07850:  CLRF   FAA
07852:  MOVLW  09
07854:  MOVWF  FA9
07856:  BCF    FA6.6
07858:  BCF    FA6.7
0785A:  BSF    FA6.0
0785C:  MOVF   FA8,W
0785E:  MOVLB  2
07860:  BTFSC  xFF.7
07862:  BSF    FF2.7
07864:  MOVLB  3
07866:  MOVWF  x00
07868:  MOVFF  FF2,301
0786C:  BCF    FF2.7
0786E:  CLRF   FAA
07870:  MOVLW  08
07872:  MOVWF  FA9
07874:  BCF    FA6.6
07876:  BCF    FA6.7
07878:  BSF    FA6.0
0787A:  MOVF   FA8,W
0787C:  BTFSC  x01.7
0787E:  BSF    FF2.7
07880:  MOVWF  x02
07882:  MOVFF  300,45
07886:  MOVFF  302,44
....................    ol_value = make16(read_eeprom(0x0D), read_eeprom(0x0C)); 
0788A:  MOVFF  FF2,2FF
0788E:  BCF    FF2.7
07890:  CLRF   FAA
07892:  MOVLW  0D
07894:  MOVWF  FA9
07896:  BCF    FA6.6
07898:  BCF    FA6.7
0789A:  BSF    FA6.0
0789C:  MOVF   FA8,W
0789E:  MOVLB  2
078A0:  BTFSC  xFF.7
078A2:  BSF    FF2.7
078A4:  MOVLB  3
078A6:  MOVWF  x00
078A8:  MOVFF  FF2,301
078AC:  BCF    FF2.7
078AE:  CLRF   FAA
078B0:  MOVLW  0C
078B2:  MOVWF  FA9
078B4:  BCF    FA6.6
078B6:  BCF    FA6.7
078B8:  BSF    FA6.0
078BA:  MOVF   FA8,W
078BC:  BTFSC  x01.7
078BE:  BSF    FF2.7
078C0:  MOVWF  x02
078C2:  MOVFF  300,47
078C6:  MOVFF  302,46
....................     
....................    delay_time1 = make16(read_eeprom(0x11), read_eeprom(0x10)); 
078CA:  MOVFF  FF2,2FF
078CE:  BCF    FF2.7
078D0:  CLRF   FAA
078D2:  MOVLW  11
078D4:  MOVWF  FA9
078D6:  BCF    FA6.6
078D8:  BCF    FA6.7
078DA:  BSF    FA6.0
078DC:  MOVF   FA8,W
078DE:  MOVLB  2
078E0:  BTFSC  xFF.7
078E2:  BSF    FF2.7
078E4:  MOVLB  3
078E6:  MOVWF  x00
078E8:  MOVFF  FF2,301
078EC:  BCF    FF2.7
078EE:  CLRF   FAA
078F0:  MOVLW  10
078F2:  MOVWF  FA9
078F4:  BCF    FA6.6
078F6:  BCF    FA6.7
078F8:  BSF    FA6.0
078FA:  MOVF   FA8,W
078FC:  BTFSC  x01.7
078FE:  BSF    FF2.7
07900:  MOVWF  x02
07902:  MOVFF  300,3D
07906:  MOVFF  302,3C
....................    sd_delay = make16(read_eeprom(0x15), read_eeprom(0x14)); 
0790A:  MOVFF  FF2,2FF
0790E:  BCF    FF2.7
07910:  CLRF   FAA
07912:  MOVLW  15
07914:  MOVWF  FA9
07916:  BCF    FA6.6
07918:  BCF    FA6.7
0791A:  BSF    FA6.0
0791C:  MOVF   FA8,W
0791E:  MOVLB  2
07920:  BTFSC  xFF.7
07922:  BSF    FF2.7
07924:  MOVLB  3
07926:  MOVWF  x00
07928:  MOVFF  FF2,301
0792C:  BCF    FF2.7
0792E:  CLRF   FAA
07930:  MOVLW  14
07932:  MOVWF  FA9
07934:  BCF    FA6.6
07936:  BCF    FA6.7
07938:  BSF    FA6.0
0793A:  MOVF   FA8,W
0793C:  BTFSC  x01.7
0793E:  BSF    FF2.7
07940:  MOVWF  x02
07942:  MOVFF  300,20
07946:  MOVFF  302,1F
....................  
....................    if(delay_time1 == 0xFFFF) { delay_time1 = 10; } 
0794A:  INCFSZ 3C,W
0794C:  BRA    7958
0794E:  INCFSZ 3D,W
07950:  BRA    7958
07952:  CLRF   3D
07954:  MOVLW  0A
07956:  MOVWF  3C
....................    if(sd_delay == 0xFFFF)    { sd_delay = 3; } 
07958:  INCFSZ 1F,W
0795A:  BRA    7966
0795C:  INCFSZ 20,W
0795E:  BRA    7966
07960:  CLRF   20
07962:  MOVLW  03
07964:  MOVWF  1F
....................    on_delay = sd_delay; 
07966:  MOVFF  20,2BA
0796A:  MOVFF  1F,2B9
....................     
....................    int16 set_on_time = make16(read_eeprom(0x49), read_eeprom(0x48)); 
0796E:  MOVFF  FF2,2FF
07972:  BCF    FF2.7
07974:  CLRF   FAA
07976:  MOVLW  49
07978:  MOVWF  FA9
0797A:  BCF    FA6.6
0797C:  BCF    FA6.7
0797E:  BSF    FA6.0
07980:  MOVF   FA8,W
07982:  MOVLB  2
07984:  BTFSC  xFF.7
07986:  BSF    FF2.7
07988:  MOVLB  3
0798A:  MOVWF  x00
0798C:  MOVFF  FF2,301
07990:  BCF    FF2.7
07992:  CLRF   FAA
07994:  MOVLW  48
07996:  MOVWF  FA9
07998:  BCF    FA6.6
0799A:  BCF    FA6.7
0799C:  BSF    FA6.0
0799E:  MOVF   FA8,W
079A0:  BTFSC  x01.7
079A2:  BSF    FF2.7
079A4:  MOVWF  x02
079A6:  MOVFF  300,2E6
079AA:  MOVFF  302,2E5
....................    if(set_on_time == 0xFFFF) { set_on_time = 0; } 
079AE:  MOVLB  2
079B0:  INCFSZ xE5,W
079B2:  BRA    79BC
079B4:  INCFSZ xE6,W
079B6:  BRA    79BC
079B8:  CLRF   xE6
079BA:  CLRF   xE5
....................     
....................   // Dryrun delay load 
....................    drys = make16(read_eeprom(0x18), read_eeprom(0x17)); 
079BC:  MOVFF  FF2,2FF
079C0:  BCF    FF2.7
079C2:  CLRF   FAA
079C4:  MOVLW  18
079C6:  MOVWF  FA9
079C8:  BCF    FA6.6
079CA:  BCF    FA6.7
079CC:  BSF    FA6.0
079CE:  MOVF   FA8,W
079D0:  BTFSC  xFF.7
079D2:  BSF    FF2.7
079D4:  MOVLB  3
079D6:  MOVWF  x00
079D8:  MOVFF  FF2,301
079DC:  BCF    FF2.7
079DE:  CLRF   FAA
079E0:  MOVLW  17
079E2:  MOVWF  FA9
079E4:  BCF    FA6.6
079E6:  BCF    FA6.7
079E8:  BSF    FA6.0
079EA:  MOVF   FA8,W
079EC:  BTFSC  x01.7
079EE:  BSF    FF2.7
079F0:  MOVWF  x02
079F2:  MOVFF  300,191
079F6:  MOVFF  302,190
....................    if(drys == 0xFFFF) { drys = 0; } 
079FA:  MOVLB  1
079FC:  INCFSZ x90,W
079FE:  BRA    7A08
07A00:  INCFSZ x91,W
07A02:  BRA    7A08
07A04:  CLRF   x91
07A06:  CLRF   x90
....................     
....................   // Dryrun trip amps load   
....................    drya = make16(read_eeprom(0x1E), read_eeprom(0x1D)); 
07A08:  MOVFF  FF2,2FF
07A0C:  BCF    FF2.7
07A0E:  CLRF   FAA
07A10:  MOVLW  1E
07A12:  MOVWF  FA9
07A14:  BCF    FA6.6
07A16:  BCF    FA6.7
07A18:  BSF    FA6.0
07A1A:  MOVF   FA8,W
07A1C:  MOVLB  2
07A1E:  BTFSC  xFF.7
07A20:  BSF    FF2.7
07A22:  MOVLB  3
07A24:  MOVWF  x00
07A26:  MOVFF  FF2,301
07A2A:  BCF    FF2.7
07A2C:  CLRF   FAA
07A2E:  MOVLW  1D
07A30:  MOVWF  FA9
07A32:  BCF    FA6.6
07A34:  BCF    FA6.7
07A36:  BSF    FA6.0
07A38:  MOVF   FA8,W
07A3A:  BTFSC  x01.7
07A3C:  BSF    FF2.7
07A3E:  MOVWF  x02
07A40:  MOVFF  300,193
07A44:  MOVFF  302,192
....................    if(drya == 0xFFFF) { drya = 0; } 
07A48:  MOVLB  1
07A4A:  INCFSZ x92,W
07A4C:  BRA    7A56
07A4E:  INCFSZ x93,W
07A50:  BRA    7A56
07A52:  CLRF   x93
07A54:  CLRF   x92
....................     
....................   // Auto restart mode load 
....................    aut = read_eeprom(0x35); 
07A56:  MOVFF  FF2,2FF
07A5A:  BCF    FF2.7
07A5C:  CLRF   FAA
07A5E:  MOVLW  35
07A60:  MOVWF  FA9
07A62:  BCF    FA6.6
07A64:  BCF    FA6.7
07A66:  BSF    FA6.0
07A68:  MOVF   FA8,W
07A6A:  MOVLB  2
07A6C:  BTFSC  xFF.7
07A6E:  BSF    FF2.7
07A70:  MOVLB  1
07A72:  CLRF   x95
07A74:  MOVWF  x94
....................    if(aut == 0xFF) { aut = 0; } 
07A76:  INCFSZ x94,W
07A78:  BRA    7A82
07A7A:  MOVF   x95,F
07A7C:  BNZ   7A82
07A7E:  CLRF   x95
07A80:  CLRF   x94
....................  
....................   // Fix 3: dryrun restart delay 
....................    dry_restart_val = make16(read_eeprom(0x1B), read_eeprom(0x1A)); 
07A82:  MOVFF  FF2,2FF
07A86:  BCF    FF2.7
07A88:  CLRF   FAA
07A8A:  MOVLW  1B
07A8C:  MOVWF  FA9
07A8E:  BCF    FA6.6
07A90:  BCF    FA6.7
07A92:  BSF    FA6.0
07A94:  MOVF   FA8,W
07A96:  MOVLB  2
07A98:  BTFSC  xFF.7
07A9A:  BSF    FF2.7
07A9C:  MOVLB  3
07A9E:  MOVWF  x00
07AA0:  MOVFF  FF2,301
07AA4:  BCF    FF2.7
07AA6:  CLRF   FAA
07AA8:  MOVLW  1A
07AAA:  MOVWF  FA9
07AAC:  BCF    FA6.6
07AAE:  BCF    FA6.7
07AB0:  BSF    FA6.0
07AB2:  MOVF   FA8,W
07AB4:  BTFSC  x01.7
07AB6:  BSF    FF2.7
07AB8:  MOVWF  x02
07ABA:  MOVFF  300,2DC
07ABE:  MOVFF  302,2DB
....................    if(dry_restart_val == 0xFFFF || dry_restart_val == 0) { dry_restart_val = 90; } 
07AC2:  MOVLB  2
07AC4:  INCFSZ xDB,W
07AC6:  BRA    7ACE
07AC8:  INCFSZ xDC,W
07ACA:  BRA    7ACE
07ACC:  BRA    7AD6
07ACE:  MOVF   xDB,F
07AD0:  BNZ   7ADC
07AD2:  MOVF   xDC,F
07AD4:  BNZ   7ADC
07AD6:  CLRF   xDC
07AD8:  MOVLW  5A
07ADA:  MOVWF  xDB
....................  
....................  // cyclic_time array load 
....................     
....................    for(int8 t = 0; t < 5; t++) { 
07ADC:  CLRF   xE7
07ADE:  MOVF   xE7,W
07AE0:  SUBLW  04
07AE2:  BTFSS  FD8.0
07AE4:  BRA    7C26
....................       int8 base = 0x20 + (t * 4); 
07AE6:  MOVF   xE7,W
07AE8:  MULLW  04
07AEA:  MOVF   FF3,W
07AEC:  ADDLW  20
07AEE:  MOVWF  xE8
....................       cyclic_time[t*2][0]   = read_eeprom(base + 0); 
07AF0:  BCF    FD8.0
07AF2:  RLCF   xE7,W
07AF4:  MOVWF  00
07AF6:  BCF    FD8.0
07AF8:  RLCF   00,F
07AFA:  MOVF   00,W
07AFC:  MOVLB  3
07AFE:  CLRF   x00
07B00:  MOVLB  2
07B02:  MOVWF  xFF
07B04:  MOVLW  BD
07B06:  ADDWF  xFF,W
07B08:  MOVWF  FE9
07B0A:  MOVLW  02
07B0C:  MOVLB  3
07B0E:  ADDWFC x00,W
07B10:  MOVWF  FEA
07B12:  MOVFF  FF2,303
07B16:  BCF    FF2.7
07B18:  CLRF   FAA
07B1A:  MOVFF  2E8,FA9
07B1E:  BCF    FA6.6
07B20:  BCF    FA6.7
07B22:  BSF    FA6.0
07B24:  MOVF   FA8,W
07B26:  BTFSC  x03.7
07B28:  BSF    FF2.7
07B2A:  MOVWF  FEF
....................       cyclic_time[t*2][1]   = read_eeprom(base + 1); 
07B2C:  BCF    FD8.0
07B2E:  MOVLB  2
07B30:  RLCF   xE7,W
07B32:  MOVWF  00
07B34:  BCF    FD8.0
07B36:  RLCF   00,F
07B38:  MOVF   00,W
07B3A:  MOVLB  3
07B3C:  CLRF   x00
07B3E:  MOVLB  2
07B40:  MOVWF  xFF
07B42:  MOVLW  01
07B44:  ADDWF  xFF,W
07B46:  MOVWF  01
07B48:  MOVLW  00
07B4A:  MOVLB  3
07B4C:  ADDWFC x00,W
07B4E:  MOVWF  03
07B50:  MOVF   01,W
07B52:  ADDLW  BD
07B54:  MOVWF  FE9
07B56:  MOVLW  02
07B58:  ADDWFC 03,W
07B5A:  MOVWF  FEA
07B5C:  MOVLW  01
07B5E:  MOVLB  2
07B60:  ADDWF  xE8,W
07B62:  MOVLB  3
07B64:  MOVWF  x01
07B66:  MOVFF  FF2,302
07B6A:  BCF    FF2.7
07B6C:  CLRF   FAA
07B6E:  MOVFF  301,FA9
07B72:  BCF    FA6.6
07B74:  BCF    FA6.7
07B76:  BSF    FA6.0
07B78:  MOVF   FA8,W
07B7A:  BTFSC  x02.7
07B7C:  BSF    FF2.7
07B7E:  MOVWF  FEF
....................       cyclic_time[t*2+1][0] = read_eeprom(base + 2); 
07B80:  BCF    FD8.0
07B82:  MOVLB  2
07B84:  RLCF   xE7,W
07B86:  ADDLW  01
07B88:  MOVWF  00
07B8A:  BCF    FD8.0
07B8C:  RLCF   00,F
07B8E:  MOVF   00,W
07B90:  MOVLB  3
07B92:  CLRF   x00
07B94:  MOVLB  2
07B96:  MOVWF  xFF
07B98:  MOVLW  BD
07B9A:  ADDWF  xFF,W
07B9C:  MOVWF  FE9
07B9E:  MOVLW  02
07BA0:  MOVLB  3
07BA2:  ADDWFC x00,W
07BA4:  MOVWF  FEA
07BA6:  MOVLW  02
07BA8:  MOVLB  2
07BAA:  ADDWF  xE8,W
07BAC:  MOVLB  3
07BAE:  MOVWF  x03
07BB0:  MOVFF  FF2,304
07BB4:  BCF    FF2.7
07BB6:  CLRF   FAA
07BB8:  MOVFF  303,FA9
07BBC:  BCF    FA6.6
07BBE:  BCF    FA6.7
07BC0:  BSF    FA6.0
07BC2:  MOVF   FA8,W
07BC4:  BTFSC  x04.7
07BC6:  BSF    FF2.7
07BC8:  MOVWF  FEF
....................       cyclic_time[t*2+1][1] = read_eeprom(base + 3); 
07BCA:  BCF    FD8.0
07BCC:  MOVLB  2
07BCE:  RLCF   xE7,W
07BD0:  ADDLW  01
07BD2:  MOVWF  00
07BD4:  BCF    FD8.0
07BD6:  RLCF   00,F
07BD8:  MOVF   00,W
07BDA:  MOVLB  3
07BDC:  CLRF   x00
07BDE:  MOVLB  2
07BE0:  MOVWF  xFF
07BE2:  MOVLW  01
07BE4:  ADDWF  xFF,W
07BE6:  MOVWF  01
07BE8:  MOVLW  00
07BEA:  MOVLB  3
07BEC:  ADDWFC x00,W
07BEE:  MOVWF  03
07BF0:  MOVF   01,W
07BF2:  ADDLW  BD
07BF4:  MOVWF  FE9
07BF6:  MOVLW  02
07BF8:  ADDWFC 03,W
07BFA:  MOVWF  FEA
07BFC:  MOVLW  03
07BFE:  MOVLB  2
07C00:  ADDWF  xE8,W
07C02:  MOVLB  3
07C04:  MOVWF  x01
07C06:  MOVFF  FF2,302
07C0A:  BCF    FF2.7
07C0C:  CLRF   FAA
07C0E:  MOVFF  301,FA9
07C12:  BCF    FA6.6
07C14:  BCF    FA6.7
07C16:  BSF    FA6.0
07C18:  MOVF   FA8,W
07C1A:  BTFSC  x02.7
07C1C:  BSF    FF2.7
07C1E:  MOVWF  FEF
07C20:  MOVLB  2
07C22:  INCF   xE7,F
07C24:  BRA    7ADE
....................    } 
....................  
....................    l_voltr = make16(read_eeprom(0x05), read_eeprom(0x04)); 
07C26:  MOVFF  FF2,2FF
07C2A:  BCF    FF2.7
07C2C:  CLRF   FAA
07C2E:  MOVLW  05
07C30:  MOVWF  FA9
07C32:  BCF    FA6.6
07C34:  BCF    FA6.7
07C36:  BSF    FA6.0
07C38:  MOVF   FA8,W
07C3A:  BTFSC  xFF.7
07C3C:  BSF    FF2.7
07C3E:  MOVLB  3
07C40:  MOVWF  x00
07C42:  MOVFF  FF2,301
07C46:  BCF    FF2.7
07C48:  CLRF   FAA
07C4A:  MOVLW  04
07C4C:  MOVWF  FA9
07C4E:  BCF    FA6.6
07C50:  BCF    FA6.7
07C52:  BSF    FA6.0
07C54:  MOVF   FA8,W
07C56:  BTFSC  x01.7
07C58:  BSF    FF2.7
07C5A:  MOVWF  x02
07C5C:  MOVFF  300,2AD
07C60:  MOVFF  302,2AC
....................    l_volty = make16(read_eeprom(0x09), read_eeprom(0x08)); 
07C64:  MOVFF  FF2,2FF
07C68:  BCF    FF2.7
07C6A:  CLRF   FAA
07C6C:  MOVLW  09
07C6E:  MOVWF  FA9
07C70:  BCF    FA6.6
07C72:  BCF    FA6.7
07C74:  BSF    FA6.0
07C76:  MOVF   FA8,W
07C78:  MOVLB  2
07C7A:  BTFSC  xFF.7
07C7C:  BSF    FF2.7
07C7E:  MOVLB  3
07C80:  MOVWF  x00
07C82:  MOVFF  FF2,301
07C86:  BCF    FF2.7
07C88:  CLRF   FAA
07C8A:  MOVLW  08
07C8C:  MOVWF  FA9
07C8E:  BCF    FA6.6
07C90:  BCF    FA6.7
07C92:  BSF    FA6.0
07C94:  MOVF   FA8,W
07C96:  BTFSC  x01.7
07C98:  BSF    FF2.7
07C9A:  MOVWF  x02
07C9C:  MOVFF  300,2AF
07CA0:  MOVFF  302,2AE
....................    l_voltb = make16(read_eeprom(0x47), read_eeprom(0x46)); 
07CA4:  MOVFF  FF2,2FF
07CA8:  BCF    FF2.7
07CAA:  CLRF   FAA
07CAC:  MOVLW  47
07CAE:  MOVWF  FA9
07CB0:  BCF    FA6.6
07CB2:  BCF    FA6.7
07CB4:  BSF    FA6.0
07CB6:  MOVF   FA8,W
07CB8:  MOVLB  2
07CBA:  BTFSC  xFF.7
07CBC:  BSF    FF2.7
07CBE:  MOVLB  3
07CC0:  MOVWF  x00
07CC2:  MOVFF  FF2,301
07CC6:  BCF    FF2.7
07CC8:  CLRF   FAA
07CCA:  MOVLW  46
07CCC:  MOVWF  FA9
07CCE:  BCF    FA6.6
07CD0:  BCF    FA6.7
07CD2:  BSF    FA6.0
07CD4:  MOVF   FA8,W
07CD6:  BTFSC  x01.7
07CD8:  BSF    FF2.7
07CDA:  MOVWF  x02
07CDC:  MOVFF  300,2B1
07CE0:  MOVFF  302,2B0
....................  
....................    h_voltr = make16(read_eeprom(0x0B), read_eeprom(0x0A)); 
07CE4:  MOVFF  FF2,2FF
07CE8:  BCF    FF2.7
07CEA:  CLRF   FAA
07CEC:  MOVLW  0B
07CEE:  MOVWF  FA9
07CF0:  BCF    FA6.6
07CF2:  BCF    FA6.7
07CF4:  BSF    FA6.0
07CF6:  MOVF   FA8,W
07CF8:  MOVLB  2
07CFA:  BTFSC  xFF.7
07CFC:  BSF    FF2.7
07CFE:  MOVLB  3
07D00:  MOVWF  x00
07D02:  MOVFF  FF2,301
07D06:  BCF    FF2.7
07D08:  CLRF   FAA
07D0A:  MOVLW  0A
07D0C:  MOVWF  FA9
07D0E:  BCF    FA6.6
07D10:  BCF    FA6.7
07D12:  BSF    FA6.0
07D14:  MOVF   FA8,W
07D16:  BTFSC  x01.7
07D18:  BSF    FF2.7
07D1A:  MOVWF  x02
07D1C:  MOVFF  300,2A7
07D20:  MOVFF  302,2A6
....................    h_volty = make16(read_eeprom(0x0D), read_eeprom(0x0C)); 
07D24:  MOVFF  FF2,2FF
07D28:  BCF    FF2.7
07D2A:  CLRF   FAA
07D2C:  MOVLW  0D
07D2E:  MOVWF  FA9
07D30:  BCF    FA6.6
07D32:  BCF    FA6.7
07D34:  BSF    FA6.0
07D36:  MOVF   FA8,W
07D38:  MOVLB  2
07D3A:  BTFSC  xFF.7
07D3C:  BSF    FF2.7
07D3E:  MOVLB  3
07D40:  MOVWF  x00
07D42:  MOVFF  FF2,301
07D46:  BCF    FF2.7
07D48:  CLRF   FAA
07D4A:  MOVLW  0C
07D4C:  MOVWF  FA9
07D4E:  BCF    FA6.6
07D50:  BCF    FA6.7
07D52:  BSF    FA6.0
07D54:  MOVF   FA8,W
07D56:  BTFSC  x01.7
07D58:  BSF    FF2.7
07D5A:  MOVWF  x02
07D5C:  MOVFF  300,2A9
07D60:  MOVFF  302,2A8
....................    h_voltb = make16(read_eeprom(0x0F), read_eeprom(0x0E)); 
07D64:  MOVFF  FF2,2FF
07D68:  BCF    FF2.7
07D6A:  CLRF   FAA
07D6C:  MOVLW  0F
07D6E:  MOVWF  FA9
07D70:  BCF    FA6.6
07D72:  BCF    FA6.7
07D74:  BSF    FA6.0
07D76:  MOVF   FA8,W
07D78:  MOVLB  2
07D7A:  BTFSC  xFF.7
07D7C:  BSF    FF2.7
07D7E:  MOVLB  3
07D80:  MOVWF  x00
07D82:  MOVFF  FF2,301
07D86:  BCF    FF2.7
07D88:  CLRF   FAA
07D8A:  MOVLW  0E
07D8C:  MOVWF  FA9
07D8E:  BCF    FA6.6
07D90:  BCF    FA6.7
07D92:  BSF    FA6.0
07D94:  MOVF   FA8,W
07D96:  BTFSC  x01.7
07D98:  BSF    FF2.7
07D9A:  MOVWF  x02
07D9C:  MOVFF  300,2AB
07DA0:  MOVFF  302,2AA
....................  
....................    over_cr = make16(read_eeprom(0x41), read_eeprom(0x40)); 
07DA4:  MOVFF  FF2,2FF
07DA8:  BCF    FF2.7
07DAA:  CLRF   FAA
07DAC:  MOVLW  41
07DAE:  MOVWF  FA9
07DB0:  BCF    FA6.6
07DB2:  BCF    FA6.7
07DB4:  BSF    FA6.0
07DB6:  MOVF   FA8,W
07DB8:  MOVLB  2
07DBA:  BTFSC  xFF.7
07DBC:  BSF    FF2.7
07DBE:  MOVLB  3
07DC0:  MOVWF  x00
07DC2:  MOVFF  FF2,301
07DC6:  BCF    FF2.7
07DC8:  CLRF   FAA
07DCA:  MOVLW  40
07DCC:  MOVWF  FA9
07DCE:  BCF    FA6.6
07DD0:  BCF    FA6.7
07DD2:  BSF    FA6.0
07DD4:  MOVF   FA8,W
07DD6:  BTFSC  x01.7
07DD8:  BSF    FF2.7
07DDA:  MOVWF  x02
07DDC:  MOVFF  300,2B3
07DE0:  MOVFF  302,2B2
....................    over_cy = make16(read_eeprom(0x43), read_eeprom(0x42)); 
07DE4:  MOVFF  FF2,2FF
07DE8:  BCF    FF2.7
07DEA:  CLRF   FAA
07DEC:  MOVLW  43
07DEE:  MOVWF  FA9
07DF0:  BCF    FA6.6
07DF2:  BCF    FA6.7
07DF4:  BSF    FA6.0
07DF6:  MOVF   FA8,W
07DF8:  MOVLB  2
07DFA:  BTFSC  xFF.7
07DFC:  BSF    FF2.7
07DFE:  MOVLB  3
07E00:  MOVWF  x00
07E02:  MOVFF  FF2,301
07E06:  BCF    FF2.7
07E08:  CLRF   FAA
07E0A:  MOVLW  42
07E0C:  MOVWF  FA9
07E0E:  BCF    FA6.6
07E10:  BCF    FA6.7
07E12:  BSF    FA6.0
07E14:  MOVF   FA8,W
07E16:  BTFSC  x01.7
07E18:  BSF    FF2.7
07E1A:  MOVWF  x02
07E1C:  MOVFF  300,2B5
07E20:  MOVFF  302,2B4
....................    over_cb = make16(read_eeprom(0x45), read_eeprom(0x44)); 
07E24:  MOVFF  FF2,2FF
07E28:  BCF    FF2.7
07E2A:  CLRF   FAA
07E2C:  MOVLW  45
07E2E:  MOVWF  FA9
07E30:  BCF    FA6.6
07E32:  BCF    FA6.7
07E34:  BSF    FA6.0
07E36:  MOVF   FA8,W
07E38:  MOVLB  2
07E3A:  BTFSC  xFF.7
07E3C:  BSF    FF2.7
07E3E:  MOVLB  3
07E40:  MOVWF  x00
07E42:  MOVFF  FF2,301
07E46:  BCF    FF2.7
07E48:  CLRF   FAA
07E4A:  MOVLW  44
07E4C:  MOVWF  FA9
07E4E:  BCF    FA6.6
07E50:  BCF    FA6.7
07E52:  BSF    FA6.0
07E54:  MOVF   FA8,W
07E56:  BTFSC  x01.7
07E58:  BSF    FF2.7
07E5A:  MOVWF  x02
07E5C:  MOVFF  300,2B7
07E60:  MOVFF  302,2B6
....................  
....................    if(l_voltr == 0xFFFF || l_voltr < 100 || l_voltr > 400) { 
07E64:  MOVLB  2
07E66:  INCFSZ xAC,W
07E68:  BRA    7E70
07E6A:  INCFSZ xAD,W
07E6C:  BRA    7E70
07E6E:  BRA    7E8A
07E70:  MOVF   xAD,F
07E72:  BNZ   7E7A
07E74:  MOVF   xAC,W
07E76:  SUBLW  63
07E78:  BC    7E8A
07E7A:  MOVF   xAD,W
07E7C:  SUBLW  00
07E7E:  BC    7EF0
07E80:  XORLW  FF
07E82:  BNZ   7E8A
07E84:  MOVF   xAC,W
07E86:  SUBLW  90
07E88:  BC    7EF0
....................       l_voltr = 200; 
07E8A:  CLRF   xAD
07E8C:  MOVLW  C8
07E8E:  MOVWF  xAC
....................       write_eeprom(0x04, make8(l_voltr, 0)); 
07E90:  MOVFF  2AC,2FF
07E94:  MOVF   FF2,W
07E96:  MOVWF  00
07E98:  BCF    FF2.7
07E9A:  CLRF   FAA
07E9C:  MOVLW  04
07E9E:  MOVWF  FA9
07EA0:  MOVFF  2FF,FA8
07EA4:  BCF    FA6.6
07EA6:  BCF    FA6.7
07EA8:  BSF    FA6.2
07EAA:  MOVLB  F
07EAC:  MOVLW  55
07EAE:  MOVWF  FA7
07EB0:  MOVLW  AA
07EB2:  MOVWF  FA7
07EB4:  BSF    FA6.1
07EB6:  BTFSC  FA6.1
07EB8:  BRA    7EB6
07EBA:  BCF    FA6.2
07EBC:  MOVF   00,W
07EBE:  IORWF  FF2,F
....................       write_eeprom(0x05, make8(l_voltr, 1)); 
07EC0:  MOVFF  2AD,2FF
07EC4:  MOVFF  FF2,00
07EC8:  BCF    FF2.7
07ECA:  CLRF   FAA
07ECC:  MOVLW  05
07ECE:  MOVWF  FA9
07ED0:  MOVFF  2AD,FA8
07ED4:  BCF    FA6.6
07ED6:  BCF    FA6.7
07ED8:  BSF    FA6.2
07EDA:  MOVLW  55
07EDC:  MOVWF  FA7
07EDE:  MOVLW  AA
07EE0:  MOVWF  FA7
07EE2:  BSF    FA6.1
07EE4:  BTFSC  FA6.1
07EE6:  BRA    7EE4
07EE8:  BCF    FA6.2
07EEA:  MOVF   00,W
07EEC:  IORWF  FF2,F
07EEE:  MOVLB  2
....................    } 
....................    if(l_volty == 0xFFFF || l_volty < 100 || l_volty > 400) { 
07EF0:  INCFSZ xAE,W
07EF2:  BRA    7EFA
07EF4:  INCFSZ xAF,W
07EF6:  BRA    7EFA
07EF8:  BRA    7F14
07EFA:  MOVF   xAF,F
07EFC:  BNZ   7F04
07EFE:  MOVF   xAE,W
07F00:  SUBLW  63
07F02:  BC    7F14
07F04:  MOVF   xAF,W
07F06:  SUBLW  00
07F08:  BC    7F7A
07F0A:  XORLW  FF
07F0C:  BNZ   7F14
07F0E:  MOVF   xAE,W
07F10:  SUBLW  90
07F12:  BC    7F7A
....................       l_volty = 200; 
07F14:  CLRF   xAF
07F16:  MOVLW  C8
07F18:  MOVWF  xAE
....................       write_eeprom(0x08, make8(l_volty, 0)); 
07F1A:  MOVFF  2AE,2FF
07F1E:  MOVF   FF2,W
07F20:  MOVWF  00
07F22:  BCF    FF2.7
07F24:  CLRF   FAA
07F26:  MOVLW  08
07F28:  MOVWF  FA9
07F2A:  MOVFF  2FF,FA8
07F2E:  BCF    FA6.6
07F30:  BCF    FA6.7
07F32:  BSF    FA6.2
07F34:  MOVLB  F
07F36:  MOVLW  55
07F38:  MOVWF  FA7
07F3A:  MOVLW  AA
07F3C:  MOVWF  FA7
07F3E:  BSF    FA6.1
07F40:  BTFSC  FA6.1
07F42:  BRA    7F40
07F44:  BCF    FA6.2
07F46:  MOVF   00,W
07F48:  IORWF  FF2,F
....................       write_eeprom(0x09, make8(l_volty, 1)); 
07F4A:  MOVFF  2AF,2FF
07F4E:  MOVFF  FF2,00
07F52:  BCF    FF2.7
07F54:  CLRF   FAA
07F56:  MOVLW  09
07F58:  MOVWF  FA9
07F5A:  MOVFF  2AF,FA8
07F5E:  BCF    FA6.6
07F60:  BCF    FA6.7
07F62:  BSF    FA6.2
07F64:  MOVLW  55
07F66:  MOVWF  FA7
07F68:  MOVLW  AA
07F6A:  MOVWF  FA7
07F6C:  BSF    FA6.1
07F6E:  BTFSC  FA6.1
07F70:  BRA    7F6E
07F72:  BCF    FA6.2
07F74:  MOVF   00,W
07F76:  IORWF  FF2,F
07F78:  MOVLB  2
....................    } 
....................    if(l_voltb == 0xFFFF || l_voltb < 100 || l_voltb > 400) { 
07F7A:  INCFSZ xB0,W
07F7C:  BRA    7F84
07F7E:  INCFSZ xB1,W
07F80:  BRA    7F84
07F82:  BRA    7F9E
07F84:  MOVF   xB1,F
07F86:  BNZ   7F8E
07F88:  MOVF   xB0,W
07F8A:  SUBLW  63
07F8C:  BC    7F9E
07F8E:  MOVF   xB1,W
07F90:  SUBLW  00
07F92:  BC    8004
07F94:  XORLW  FF
07F96:  BNZ   7F9E
07F98:  MOVF   xB0,W
07F9A:  SUBLW  90
07F9C:  BC    8004
....................       l_voltb = 200; 
07F9E:  CLRF   xB1
07FA0:  MOVLW  C8
07FA2:  MOVWF  xB0
....................       write_eeprom(0x46, make8(l_voltb, 0)); 
07FA4:  MOVFF  2B0,2FF
07FA8:  MOVF   FF2,W
07FAA:  MOVWF  00
07FAC:  BCF    FF2.7
07FAE:  CLRF   FAA
07FB0:  MOVLW  46
07FB2:  MOVWF  FA9
07FB4:  MOVFF  2FF,FA8
07FB8:  BCF    FA6.6
07FBA:  BCF    FA6.7
07FBC:  BSF    FA6.2
07FBE:  MOVLB  F
07FC0:  MOVLW  55
07FC2:  MOVWF  FA7
07FC4:  MOVLW  AA
07FC6:  MOVWF  FA7
07FC8:  BSF    FA6.1
07FCA:  BTFSC  FA6.1
07FCC:  BRA    7FCA
07FCE:  BCF    FA6.2
07FD0:  MOVF   00,W
07FD2:  IORWF  FF2,F
....................       write_eeprom(0x47, make8(l_voltb, 1)); 
07FD4:  MOVFF  2B1,2FF
07FD8:  MOVFF  FF2,00
07FDC:  BCF    FF2.7
07FDE:  CLRF   FAA
07FE0:  MOVLW  47
07FE2:  MOVWF  FA9
07FE4:  MOVFF  2B1,FA8
07FE8:  BCF    FA6.6
07FEA:  BCF    FA6.7
07FEC:  BSF    FA6.2
07FEE:  MOVLW  55
07FF0:  MOVWF  FA7
07FF2:  MOVLW  AA
07FF4:  MOVWF  FA7
07FF6:  BSF    FA6.1
07FF8:  BTFSC  FA6.1
07FFA:  BRA    7FF8
07FFC:  BCF    FA6.2
07FFE:  MOVF   00,W
08000:  IORWF  FF2,F
08002:  MOVLB  2
....................    } 
....................  
....................    if(h_voltr == 0xFFFF || h_voltr < 250 || h_voltr > 600) { 
08004:  INCFSZ xA6,W
08006:  BRA    800E
08008:  INCFSZ xA7,W
0800A:  BRA    800E
0800C:  BRA    8028
0800E:  MOVF   xA7,F
08010:  BNZ   8018
08012:  MOVF   xA6,W
08014:  SUBLW  F9
08016:  BC    8028
08018:  MOVF   xA7,W
0801A:  SUBLW  01
0801C:  BC    8090
0801E:  XORLW  FF
08020:  BNZ   8028
08022:  MOVF   xA6,W
08024:  SUBLW  58
08026:  BC    8090
....................       h_voltr = 480; 
08028:  MOVLW  01
0802A:  MOVWF  xA7
0802C:  MOVLW  E0
0802E:  MOVWF  xA6
....................       write_eeprom(0x0A, make8(h_voltr, 0)); 
08030:  MOVFF  2A6,2FF
08034:  MOVF   FF2,W
08036:  MOVWF  00
08038:  BCF    FF2.7
0803A:  CLRF   FAA
0803C:  MOVLW  0A
0803E:  MOVWF  FA9
08040:  MOVFF  2FF,FA8
08044:  BCF    FA6.6
08046:  BCF    FA6.7
08048:  BSF    FA6.2
0804A:  MOVLB  F
0804C:  MOVLW  55
0804E:  MOVWF  FA7
08050:  MOVLW  AA
08052:  MOVWF  FA7
08054:  BSF    FA6.1
08056:  BTFSC  FA6.1
08058:  BRA    8056
0805A:  BCF    FA6.2
0805C:  MOVF   00,W
0805E:  IORWF  FF2,F
....................       write_eeprom(0x0B, make8(h_voltr, 1)); 
08060:  MOVFF  2A7,2FF
08064:  MOVFF  FF2,00
08068:  BCF    FF2.7
0806A:  CLRF   FAA
0806C:  MOVLW  0B
0806E:  MOVWF  FA9
08070:  MOVFF  2A7,FA8
08074:  BCF    FA6.6
08076:  BCF    FA6.7
08078:  BSF    FA6.2
0807A:  MOVLW  55
0807C:  MOVWF  FA7
0807E:  MOVLW  AA
08080:  MOVWF  FA7
08082:  BSF    FA6.1
08084:  BTFSC  FA6.1
08086:  BRA    8084
08088:  BCF    FA6.2
0808A:  MOVF   00,W
0808C:  IORWF  FF2,F
0808E:  MOVLB  2
....................    } 
....................    if(h_volty == 0xFFFF || h_volty < 250 || h_volty > 600) { 
08090:  INCFSZ xA8,W
08092:  BRA    809A
08094:  INCFSZ xA9,W
08096:  BRA    809A
08098:  BRA    80B4
0809A:  MOVF   xA9,F
0809C:  BNZ   80A4
0809E:  MOVF   xA8,W
080A0:  SUBLW  F9
080A2:  BC    80B4
080A4:  MOVF   xA9,W
080A6:  SUBLW  01
080A8:  BC    811C
080AA:  XORLW  FF
080AC:  BNZ   80B4
080AE:  MOVF   xA8,W
080B0:  SUBLW  58
080B2:  BC    811C
....................       h_volty = 480; 
080B4:  MOVLW  01
080B6:  MOVWF  xA9
080B8:  MOVLW  E0
080BA:  MOVWF  xA8
....................       write_eeprom(0x0C, make8(h_volty, 0)); 
080BC:  MOVFF  2A8,2FF
080C0:  MOVF   FF2,W
080C2:  MOVWF  00
080C4:  BCF    FF2.7
080C6:  CLRF   FAA
080C8:  MOVLW  0C
080CA:  MOVWF  FA9
080CC:  MOVFF  2FF,FA8
080D0:  BCF    FA6.6
080D2:  BCF    FA6.7
080D4:  BSF    FA6.2
080D6:  MOVLB  F
080D8:  MOVLW  55
080DA:  MOVWF  FA7
080DC:  MOVLW  AA
080DE:  MOVWF  FA7
080E0:  BSF    FA6.1
080E2:  BTFSC  FA6.1
080E4:  BRA    80E2
080E6:  BCF    FA6.2
080E8:  MOVF   00,W
080EA:  IORWF  FF2,F
....................       write_eeprom(0x0D, make8(h_volty, 1)); 
080EC:  MOVFF  2A9,2FF
080F0:  MOVFF  FF2,00
080F4:  BCF    FF2.7
080F6:  CLRF   FAA
080F8:  MOVLW  0D
080FA:  MOVWF  FA9
080FC:  MOVFF  2A9,FA8
08100:  BCF    FA6.6
08102:  BCF    FA6.7
08104:  BSF    FA6.2
08106:  MOVLW  55
08108:  MOVWF  FA7
0810A:  MOVLW  AA
0810C:  MOVWF  FA7
0810E:  BSF    FA6.1
08110:  BTFSC  FA6.1
08112:  BRA    8110
08114:  BCF    FA6.2
08116:  MOVF   00,W
08118:  IORWF  FF2,F
0811A:  MOVLB  2
....................    } 
....................    if(h_voltb == 0xFFFF || h_voltb < 250 || h_voltb > 600) { 
0811C:  INCFSZ xAA,W
0811E:  BRA    8126
08120:  INCFSZ xAB,W
08122:  BRA    8126
08124:  BRA    8140
08126:  MOVF   xAB,F
08128:  BNZ   8130
0812A:  MOVF   xAA,W
0812C:  SUBLW  F9
0812E:  BC    8140
08130:  MOVF   xAB,W
08132:  SUBLW  01
08134:  BC    81A8
08136:  XORLW  FF
08138:  BNZ   8140
0813A:  MOVF   xAA,W
0813C:  SUBLW  58
0813E:  BC    81A8
....................       h_voltb = 480; 
08140:  MOVLW  01
08142:  MOVWF  xAB
08144:  MOVLW  E0
08146:  MOVWF  xAA
....................       write_eeprom(0x0E, make8(h_voltb, 0)); 
08148:  MOVFF  2AA,2FF
0814C:  MOVF   FF2,W
0814E:  MOVWF  00
08150:  BCF    FF2.7
08152:  CLRF   FAA
08154:  MOVLW  0E
08156:  MOVWF  FA9
08158:  MOVFF  2FF,FA8
0815C:  BCF    FA6.6
0815E:  BCF    FA6.7
08160:  BSF    FA6.2
08162:  MOVLB  F
08164:  MOVLW  55
08166:  MOVWF  FA7
08168:  MOVLW  AA
0816A:  MOVWF  FA7
0816C:  BSF    FA6.1
0816E:  BTFSC  FA6.1
08170:  BRA    816E
08172:  BCF    FA6.2
08174:  MOVF   00,W
08176:  IORWF  FF2,F
....................       write_eeprom(0x0F, make8(h_voltb, 1)); 
08178:  MOVFF  2AB,2FF
0817C:  MOVFF  FF2,00
08180:  BCF    FF2.7
08182:  CLRF   FAA
08184:  MOVLW  0F
08186:  MOVWF  FA9
08188:  MOVFF  2AB,FA8
0818C:  BCF    FA6.6
0818E:  BCF    FA6.7
08190:  BSF    FA6.2
08192:  MOVLW  55
08194:  MOVWF  FA7
08196:  MOVLW  AA
08198:  MOVWF  FA7
0819A:  BSF    FA6.1
0819C:  BTFSC  FA6.1
0819E:  BRA    819C
081A0:  BCF    FA6.2
081A2:  MOVF   00,W
081A4:  IORWF  FF2,F
081A6:  MOVLB  2
....................    } 
....................  
....................    if(over_cr == 0xFFFF || over_cr > 300) { 
081A8:  INCFSZ xB2,W
081AA:  BRA    81B2
081AC:  INCFSZ xB3,W
081AE:  BRA    81B2
081B0:  BRA    81C2
081B2:  MOVF   xB3,W
081B4:  SUBLW  00
081B6:  BC    8228
081B8:  XORLW  FF
081BA:  BNZ   81C2
081BC:  MOVF   xB2,W
081BE:  SUBLW  2C
081C0:  BC    8228
....................       over_cr = 30; 
081C2:  CLRF   xB3
081C4:  MOVLW  1E
081C6:  MOVWF  xB2
....................       write_eeprom(0x40, make8(over_cr, 0)); 
081C8:  MOVFF  2B2,2FF
081CC:  MOVF   FF2,W
081CE:  MOVWF  00
081D0:  BCF    FF2.7
081D2:  CLRF   FAA
081D4:  MOVLW  40
081D6:  MOVWF  FA9
081D8:  MOVFF  2FF,FA8
081DC:  BCF    FA6.6
081DE:  BCF    FA6.7
081E0:  BSF    FA6.2
081E2:  MOVLB  F
081E4:  MOVLW  55
081E6:  MOVWF  FA7
081E8:  MOVLW  AA
081EA:  MOVWF  FA7
081EC:  BSF    FA6.1
081EE:  BTFSC  FA6.1
081F0:  BRA    81EE
081F2:  BCF    FA6.2
081F4:  MOVF   00,W
081F6:  IORWF  FF2,F
....................       write_eeprom(0x41, make8(over_cr, 1)); 
081F8:  MOVFF  2B3,2FF
081FC:  MOVFF  FF2,00
08200:  BCF    FF2.7
08202:  CLRF   FAA
08204:  MOVLW  41
08206:  MOVWF  FA9
08208:  MOVFF  2B3,FA8
0820C:  BCF    FA6.6
0820E:  BCF    FA6.7
08210:  BSF    FA6.2
08212:  MOVLW  55
08214:  MOVWF  FA7
08216:  MOVLW  AA
08218:  MOVWF  FA7
0821A:  BSF    FA6.1
0821C:  BTFSC  FA6.1
0821E:  BRA    821C
08220:  BCF    FA6.2
08222:  MOVF   00,W
08224:  IORWF  FF2,F
08226:  MOVLB  2
....................    } 
....................    if(over_cy == 0xFFFF || over_cy > 300) { 
08228:  INCFSZ xB4,W
0822A:  BRA    8232
0822C:  INCFSZ xB5,W
0822E:  BRA    8232
08230:  BRA    8242
08232:  MOVF   xB5,W
08234:  SUBLW  00
08236:  BC    82A8
08238:  XORLW  FF
0823A:  BNZ   8242
0823C:  MOVF   xB4,W
0823E:  SUBLW  2C
08240:  BC    82A8
....................       over_cy = 30; 
08242:  CLRF   xB5
08244:  MOVLW  1E
08246:  MOVWF  xB4
....................       write_eeprom(0x42, make8(over_cy, 0)); 
08248:  MOVFF  2B4,2FF
0824C:  MOVF   FF2,W
0824E:  MOVWF  00
08250:  BCF    FF2.7
08252:  CLRF   FAA
08254:  MOVLW  42
08256:  MOVWF  FA9
08258:  MOVFF  2FF,FA8
0825C:  BCF    FA6.6
0825E:  BCF    FA6.7
08260:  BSF    FA6.2
08262:  MOVLB  F
08264:  MOVLW  55
08266:  MOVWF  FA7
08268:  MOVLW  AA
0826A:  MOVWF  FA7
0826C:  BSF    FA6.1
0826E:  BTFSC  FA6.1
08270:  BRA    826E
08272:  BCF    FA6.2
08274:  MOVF   00,W
08276:  IORWF  FF2,F
....................       write_eeprom(0x43, make8(over_cy, 1)); 
08278:  MOVFF  2B5,2FF
0827C:  MOVFF  FF2,00
08280:  BCF    FF2.7
08282:  CLRF   FAA
08284:  MOVLW  43
08286:  MOVWF  FA9
08288:  MOVFF  2B5,FA8
0828C:  BCF    FA6.6
0828E:  BCF    FA6.7
08290:  BSF    FA6.2
08292:  MOVLW  55
08294:  MOVWF  FA7
08296:  MOVLW  AA
08298:  MOVWF  FA7
0829A:  BSF    FA6.1
0829C:  BTFSC  FA6.1
0829E:  BRA    829C
082A0:  BCF    FA6.2
082A2:  MOVF   00,W
082A4:  IORWF  FF2,F
082A6:  MOVLB  2
....................    } 
....................    if(over_cb == 0xFFFF || over_cb > 300) { 
082A8:  INCFSZ xB6,W
082AA:  BRA    82B2
082AC:  INCFSZ xB7,W
082AE:  BRA    82B2
082B0:  BRA    82C2
082B2:  MOVF   xB7,W
082B4:  SUBLW  00
082B6:  BC    8328
082B8:  XORLW  FF
082BA:  BNZ   82C2
082BC:  MOVF   xB6,W
082BE:  SUBLW  2C
082C0:  BC    8328
....................       over_cb = 30; 
082C2:  CLRF   xB7
082C4:  MOVLW  1E
082C6:  MOVWF  xB6
....................       write_eeprom(0x44, make8(over_cb, 0)); 
082C8:  MOVFF  2B6,2FF
082CC:  MOVF   FF2,W
082CE:  MOVWF  00
082D0:  BCF    FF2.7
082D2:  CLRF   FAA
082D4:  MOVLW  44
082D6:  MOVWF  FA9
082D8:  MOVFF  2FF,FA8
082DC:  BCF    FA6.6
082DE:  BCF    FA6.7
082E0:  BSF    FA6.2
082E2:  MOVLB  F
082E4:  MOVLW  55
082E6:  MOVWF  FA7
082E8:  MOVLW  AA
082EA:  MOVWF  FA7
082EC:  BSF    FA6.1
082EE:  BTFSC  FA6.1
082F0:  BRA    82EE
082F2:  BCF    FA6.2
082F4:  MOVF   00,W
082F6:  IORWF  FF2,F
....................       write_eeprom(0x45, make8(over_cb, 1)); 
082F8:  MOVFF  2B7,2FF
082FC:  MOVFF  FF2,00
08300:  BCF    FF2.7
08302:  CLRF   FAA
08304:  MOVLW  45
08306:  MOVWF  FA9
08308:  MOVFF  2B7,FA8
0830C:  BCF    FA6.6
0830E:  BCF    FA6.7
08310:  BSF    FA6.2
08312:  MOVLW  55
08314:  MOVWF  FA7
08316:  MOVLW  AA
08318:  MOVWF  FA7
0831A:  BSF    FA6.1
0831C:  BTFSC  FA6.1
0831E:  BRA    831C
08320:  BCF    FA6.2
08322:  MOVF   00,W
08324:  IORWF  FF2,F
08326:  MOVLB  2
....................    } 
....................     // ===== NEW: Load remaining menu EEPROM values ===== 
....................  
....................  int8  juice_enable = read_eeprom(0x03); 
08328:  MOVFF  FF2,2FF
0832C:  BCF    FF2.7
0832E:  CLRF   FAA
08330:  MOVLW  03
08332:  MOVWF  FA9
08334:  BCF    FA6.6
08336:  BCF    FA6.7
08338:  BSF    FA6.0
0833A:  MOVF   FA8,W
0833C:  BTFSC  xFF.7
0833E:  BSF    FF2.7
08340:  MOVWF  xE9
....................    if (juice_enable != 0 && juice_enable != 1) juice_enable = 1; 
08342:  MOVF   xE9,F
08344:  BZ    8350
08346:  DECFSZ xE9,W
08348:  BRA    834C
0834A:  BRA    8350
0834C:  MOVLW  01
0834E:  MOVWF  xE9
....................  
....................  
....................  
....................     int16 ub_limit = make16(read_eeprom(0x27), read_eeprom(0x26)); 
08350:  MOVFF  FF2,2FF
08354:  BCF    FF2.7
08356:  CLRF   FAA
08358:  MOVLW  27
0835A:  MOVWF  FA9
0835C:  BCF    FA6.6
0835E:  BCF    FA6.7
08360:  BSF    FA6.0
08362:  MOVF   FA8,W
08364:  BTFSC  xFF.7
08366:  BSF    FF2.7
08368:  MOVLB  3
0836A:  MOVWF  x00
0836C:  MOVFF  FF2,301
08370:  BCF    FF2.7
08372:  CLRF   FAA
08374:  MOVLW  26
08376:  MOVWF  FA9
08378:  BCF    FA6.6
0837A:  BCF    FA6.7
0837C:  BSF    FA6.0
0837E:  MOVF   FA8,W
08380:  BTFSC  x01.7
08382:  BSF    FF2.7
08384:  MOVWF  x02
08386:  MOVFF  300,2EB
0838A:  MOVFF  302,2EA
....................    if (ub_limit > 100) ub_limit = 30; 
0838E:  MOVLB  2
08390:  MOVF   xEB,F
08392:  BNZ   839A
08394:  MOVF   xEA,W
08396:  SUBLW  64
08398:  BC    83A0
0839A:  CLRF   xEB
0839C:  MOVLW  1E
0839E:  MOVWF  xEA
....................    int16 ir_1min_int  = make16(read_eeprom(0x3B), read_eeprom(0x3A)); 
....................   int16 ir_10min_int = make16(read_eeprom(0x3D), read_eeprom(0x3C)); 
083A0:  MOVFF  FF2,2FF
083A4:  BCF    FF2.7
083A6:  CLRF   FAA
083A8:  MOVLW  3B
083AA:  MOVWF  FA9
083AC:  BCF    FA6.6
083AE:  BCF    FA6.7
083B0:  BSF    FA6.0
083B2:  MOVF   FA8,W
083B4:  BTFSC  xFF.7
083B6:  BSF    FF2.7
083B8:  MOVLB  3
083BA:  MOVWF  x00
083BC:  MOVFF  FF2,301
083C0:  BCF    FF2.7
083C2:  CLRF   FAA
083C4:  MOVLW  3A
083C6:  MOVWF  FA9
083C8:  BCF    FA6.6
083CA:  BCF    FA6.7
083CC:  BSF    FA6.0
083CE:  MOVF   FA8,W
083D0:  BTFSC  x01.7
083D2:  BSF    FF2.7
083D4:  MOVWF  x02
083D6:  MOVFF  300,2ED
083DA:  MOVFF  302,2EC
083DE:  MOVFF  FF2,303
083E2:  BCF    FF2.7
083E4:  CLRF   FAA
083E6:  MOVLW  3D
083E8:  MOVWF  FA9
083EA:  BCF    FA6.6
083EC:  BCF    FA6.7
083EE:  BSF    FA6.0
083F0:  MOVF   FA8,W
083F2:  BTFSC  x03.7
083F4:  BSF    FF2.7
083F6:  MOVWF  x04
083F8:  MOVFF  FF2,305
083FC:  BCF    FF2.7
083FE:  CLRF   FAA
08400:  MOVLW  3C
08402:  MOVWF  FA9
08404:  BCF    FA6.6
08406:  BCF    FA6.7
08408:  BSF    FA6.0
0840A:  MOVF   FA8,W
0840C:  BTFSC  x05.7
0840E:  BSF    FF2.7
08410:  MOVWF  x06
08412:  MOVFF  304,2EF
08416:  MOVFF  306,2EE
....................    if (ir_1min_int  < 5  || ir_1min_int  > 1000) ir_1min_int  = 5; 
0841A:  MOVLB  2
0841C:  MOVF   xED,F
0841E:  BNZ   8426
08420:  MOVF   xEC,W
08422:  SUBLW  04
08424:  BC    8436
08426:  MOVF   xED,W
08428:  SUBLW  02
0842A:  BC    843C
0842C:  XORLW  FF
0842E:  BNZ   8436
08430:  MOVF   xEC,W
08432:  SUBLW  E8
08434:  BC    843C
08436:  CLRF   xED
08438:  MOVLW  05
0843A:  MOVWF  xEC
....................    if (ir_10min_int < 5  || ir_10min_int > 1000) ir_10min_int = 10; 
0843C:  MOVF   xEF,F
0843E:  BNZ   8446
08440:  MOVF   xEE,W
08442:  SUBLW  04
08444:  BC    8456
08446:  MOVF   xEF,W
08448:  SUBLW  02
0844A:  BC    845C
0844C:  XORLW  FF
0844E:  BNZ   8456
08450:  MOVF   xEE,W
08452:  SUBLW  E8
08454:  BC    845C
08456:  CLRF   xEF
08458:  MOVLW  0A
0845A:  MOVWF  xEE
....................   float  ir_1min  = (float)ir_1min_int  / 10.0; 
....................   float  ir_10min = (float)ir_10min_int / 10.0; 
....................   float pii; 
0845C:  MOVFF  2ED,318
08460:  MOVFF  2EC,317
08464:  MOVLB  0
08466:  CALL   0F8C
0846A:  MOVFF  03,302
0846E:  MOVFF  02,301
08472:  MOVFF  01,300
08476:  MOVFF  00,2FF
0847A:  MOVFF  03,31E
0847E:  MOVFF  02,31D
08482:  MOVFF  01,31C
08486:  MOVFF  00,31B
0848A:  MOVLB  3
0848C:  CLRF   x22
0848E:  CLRF   x21
08490:  MOVLW  20
08492:  MOVWF  x20
08494:  MOVLW  82
08496:  MOVWF  x1F
08498:  MOVLB  0
0849A:  CALL   0FC2
0849E:  MOVFF  03,2F3
084A2:  MOVFF  02,2F2
084A6:  MOVFF  01,2F1
084AA:  MOVFF  00,2F0
084AE:  MOVFF  2EF,318
084B2:  MOVFF  2EE,317
084B6:  CALL   0F8C
084BA:  MOVFF  03,302
084BE:  MOVFF  02,301
084C2:  MOVFF  01,300
084C6:  MOVFF  00,2FF
084CA:  MOVFF  03,31E
084CE:  MOVFF  02,31D
084D2:  MOVFF  01,31C
084D6:  MOVFF  00,31B
084DA:  MOVLB  3
084DC:  CLRF   x22
084DE:  CLRF   x21
084E0:  MOVLW  20
084E2:  MOVWF  x20
084E4:  MOVLW  82
084E6:  MOVWF  x1F
084E8:  MOVLB  0
084EA:  CALL   0FC2
084EE:  MOVFF  03,2F7
084F2:  MOVFF  02,2F6
084F6:  MOVFF  01,2F5
084FA:  MOVFF  00,2F4
....................    if (ir_1min > 0.0) pii = ir_10min / ir_1min; 
084FE:  MOVLB  3
08500:  CLRF   x1A
08502:  CLRF   x19
08504:  CLRF   x18
08506:  CLRF   x17
08508:  MOVFF  2F3,31E
0850C:  MOVFF  2F2,31D
08510:  MOVFF  2F1,31C
08514:  MOVFF  2F0,31B
08518:  MOVLB  0
0851A:  CALL   1120
0851E:  BNC   8554
08520:  MOVFF  2F7,31E
08524:  MOVFF  2F6,31D
08528:  MOVFF  2F5,31C
0852C:  MOVFF  2F4,31B
08530:  MOVFF  2F3,322
08534:  MOVFF  2F2,321
08538:  MOVFF  2F1,320
0853C:  MOVFF  2F0,31F
08540:  CALL   0FC2
08544:  MOVFF  03,2FB
08548:  MOVFF  02,2FA
0854C:  MOVFF  01,2F9
08550:  MOVFF  00,2F8
....................     
....................    lcd_initialize(); 
08554:  CALL   0ECC
....................    lcd_cmd(LCD_CLEAR);  
08558:  MOVLW  01
0855A:  MOVLB  3
0855C:  MOVWF  xA8
0855E:  MOVLB  0
08560:  CALL   0E5E
....................      
....................    lcd_goto(1, 1);  
08564:  MOVLW  01
08566:  MOVLB  3
08568:  MOVWF  xA5
0856A:  MOVWF  xA6
0856C:  MOVLB  0
0856E:  CALL   119A
....................    printf(lcd_out, "NEW QBITRONICS"); 
08572:  MOVLW  2A
08574:  MOVWF  FF6
08576:  MOVLW  0D
08578:  MOVWF  FF7
0857A:  CALL   125C
....................    lcd_goto(1, 2);  
0857E:  MOVLW  01
08580:  MOVLB  3
08582:  MOVWF  xA5
08584:  MOVLW  02
08586:  MOVWF  xA6
08588:  MOVLB  0
0858A:  CALL   119A
....................    printf(lcd_out,"DIGITAL STARTER"); 
0858E:  MOVLW  3A
08590:  MOVWF  FF6
08592:  MOVLW  0D
08594:  MOVWF  FF7
08596:  CALL   125C
....................    delay_ms(2000); 
0859A:  MOVLW  08
0859C:  MOVLB  2
0859E:  MOVWF  xFF
085A0:  MOVLW  FA
085A2:  MOVLB  3
085A4:  MOVWF  xA9
085A6:  MOVLB  0
085A8:  CALL   0DA4
085AC:  MOVLB  2
085AE:  DECFSZ xFF,F
085B0:  BRA    85A0
....................     
....................    lcd_cmd(LCD_CLEAR);  
085B2:  MOVLW  01
085B4:  MOVLB  3
085B6:  MOVWF  xA8
085B8:  MOVLB  0
085BA:  CALL   0E5E
....................    lcd_goto(1, 1);  
085BE:  MOVLW  01
085C0:  MOVLB  3
085C2:  MOVWF  xA5
085C4:  MOVWF  xA6
085C6:  MOVLB  0
085C8:  CALL   119A
....................    printf(lcd_out, "DIGITAL STARTER"); 
085CC:  MOVLW  4A
085CE:  MOVWF  FF6
085D0:  MOVLW  0D
085D2:  MOVWF  FF7
085D4:  CALL   125C
....................    lcd_goto(1, 2);  
085D8:  MOVLW  01
085DA:  MOVLB  3
085DC:  MOVWF  xA5
085DE:  MOVLW  02
085E0:  MOVWF  xA6
085E2:  MOVLB  0
085E4:  CALL   119A
....................    printf(lcd_out,"Seq. Checking..."); 
085E8:  MOVLW  5A
085EA:  MOVWF  FF6
085EC:  MOVLW  0D
085EE:  MOVWF  FF7
085F0:  CALL   125C
....................    delay_ms(1000); 
085F4:  MOVLW  04
085F6:  MOVLB  2
085F8:  MOVWF  xFF
085FA:  MOVLW  FA
085FC:  MOVLB  3
085FE:  MOVWF  xA9
08600:  MOVLB  0
08602:  CALL   0DA4
08606:  MOVLB  2
08608:  DECFSZ xFF,F
0860A:  BRA    85FA
....................     
....................     
....................    enable_interrupts(int_AD); 
0860C:  BSF    F9D.6
....................    enable_interrupts(int_TIMER1); 
0860E:  BSF    F9D.0
....................    set_timer1(34286); 
08610:  MOVLW  85
08612:  MOVWF  FCF
08614:  MOVLW  EE
08616:  MOVWF  FCE
....................    delay_ms(10); 
08618:  MOVLW  0A
0861A:  MOVLB  3
0861C:  MOVWF  xA9
0861E:  MOVLB  0
08620:  CALL   0DA4
....................    read_adc(ADC_START_ONLY); 
08624:  BSF    FC2.1
....................    enable_interrupts(GLOBAL); 
08626:  MOVLW  C0
08628:  IORWF  FF2,F
....................     
....................    if(seqok==0) 
0862A:  BTFSC  1C.6
0862C:  BRA    86AC
....................    { 
....................       while (1) { 
....................          output_low(RLED); 
0862E:  BCF    F8B.0
....................          output_low(YLED); 
08630:  BCF    F8B.1
....................          output_low(BLED); 
08632:  BCF    F8A.1
....................          delay_ms(300); 
08634:  MOVLW  02
08636:  MOVLB  2
08638:  MOVWF  xFF
0863A:  MOVLW  96
0863C:  MOVLB  3
0863E:  MOVWF  xA9
08640:  MOVLB  0
08642:  CALL   0DA4
08646:  MOVLB  2
08648:  DECFSZ xFF,F
0864A:  BRA    863A
....................          output_high(RLED); 
0864C:  BSF    F8B.0
....................          output_high(YLED); 
0864E:  BSF    F8B.1
....................          output_high(BLED); 
08650:  BSF    F8A.1
....................          delay_ms(200); 
08652:  MOVLW  C8
08654:  MOVLB  3
08656:  MOVWF  xA9
08658:  MOVLB  0
0865A:  CALL   0DA4
....................          display_sequence(); 
0865E:  GOTO   127C
....................          reset_sequence(); 
08662:  CALL   12FE
....................         
....................          if (ryb_detected >= 5) { 
08666:  MOVLB  1
08668:  MOVF   x8F,W
0866A:  SUBLW  04
0866C:  BC    8674
....................             wait= 1; 
0866E:  MOVLW  01
08670:  MOVWF  x77
....................             break; 
08672:  BRA    86AE
....................          } 
....................          new_value();  
08674:  MOVLB  0
08676:  CALL   14E4
....................          voltage(); 
0867A:  CALL   1744
....................          currentr=0; 
0867E:  MOVLB  1
08680:  CLRF   xAC
08682:  CLRF   xAB
08684:  CLRF   xAA
08686:  CLRF   xA9
....................          currentr2=0; 
08688:  CLRF   xB0
0868A:  CLRF   xAF
0868C:  CLRF   xAE
0868E:  CLRF   xAD
....................          currentr3=0; 
08690:  CLRF   xB4
08692:  CLRF   xB3
08694:  CLRF   xB2
08696:  CLRF   xB1
....................          if(sentflg ==1 || sentflg2 == 1){ 
08698:  MOVLB  2
0869A:  DECFSZ xA2,W
0869C:  BRA    86A0
0869E:  BRA    86A4
086A0:  DECFSZ xA3,W
086A2:  BRA    86A8
....................             sentflg=0; 
086A4:  CLRF   xA2
....................             sentflg2=0; 
086A6:  CLRF   xA3
....................          } 
086A8:  MOVLB  0
086AA:  BRA    862E
086AC:  MOVLB  1
....................       }   
....................    } 
....................      
....................    if(seqok==1) 
086AE:  BTFSS  1C.6
086B0:  BRA    8732
....................    { 
....................       while (1) { 
....................          output_low(RLED); 
086B2:  BCF    F8B.0
....................          output_low(YLED); 
086B4:  BCF    F8B.1
....................          output_low(BLED); 
086B6:  BCF    F8A.1
....................          delay_ms(300); 
086B8:  MOVLW  02
086BA:  MOVLB  2
086BC:  MOVWF  xFF
086BE:  MOVLW  96
086C0:  MOVLB  3
086C2:  MOVWF  xA9
086C4:  MOVLB  0
086C6:  CALL   0DA4
086CA:  MOVLB  2
086CC:  DECFSZ xFF,F
086CE:  BRA    86BE
....................          output_high(RLED); 
086D0:  BSF    F8B.0
....................          output_high(YLED); 
086D2:  BSF    F8B.1
....................          output_high(BLED); 
086D4:  BSF    F8A.1
....................          delay_ms(200); 
086D6:  MOVLW  C8
086D8:  MOVLB  3
086DA:  MOVWF  xA9
086DC:  MOVLB  0
086DE:  CALL   0DA4
....................          seq_flag =1; 
086E2:  BSF    1C.1
....................          reset_sequence(); 
086E4:  CALL   12FE
....................          ryb_detected=ryb_detected+1; 
086E8:  MOVLW  01
086EA:  MOVLB  1
086EC:  ADDWF  x8F,F
....................         
....................          if (ryb_detected >= 5) { 
086EE:  MOVF   x8F,W
086F0:  SUBLW  04
086F2:  BC    86FA
....................             wait= 1; 
086F4:  MOVLW  01
086F6:  MOVWF  x77
....................             break; 
086F8:  BRA    8732
....................          } 
....................          new_value();  
086FA:  MOVLB  0
086FC:  CALL   14E4
....................          voltage(); 
08700:  CALL   1744
....................          currentr=0; 
08704:  MOVLB  1
08706:  CLRF   xAC
08708:  CLRF   xAB
0870A:  CLRF   xAA
0870C:  CLRF   xA9
....................          currentr2=0; 
0870E:  CLRF   xB0
08710:  CLRF   xAF
08712:  CLRF   xAE
08714:  CLRF   xAD
....................          currentr3=0; 
08716:  CLRF   xB4
08718:  CLRF   xB3
0871A:  CLRF   xB2
0871C:  CLRF   xB1
....................          if(sentflg ==1 || sentflg2 == 1){ 
0871E:  MOVLB  2
08720:  DECFSZ xA2,W
08722:  BRA    8726
08724:  BRA    872A
08726:  DECFSZ xA3,W
08728:  BRA    872E
....................             sentflg=0; 
0872A:  CLRF   xA2
....................             sentflg2=0; 
0872C:  CLRF   xA3
....................          } 
0872E:  MOVLB  1
08730:  BRA    86B2
....................       }   
....................    } 
....................  
....................    output_low(RLED); 
08732:  BCF    F8B.0
....................    output_low(YLED); 
08734:  BCF    F8B.1
....................    output_low(BLED); 
08736:  BCF    F8A.1
....................  
....................    prog = 0; 
08738:  CLRF   3F
....................    menu_number = 1; 
0873A:  MOVLW  01
0873C:  MOVWF  4B
....................    in_menu_selection = 1; 
0873E:  MOVWF  4C
....................    int8 prog_prev = 0xFF;   
....................    int1 show_welcome_once = 0; 
....................    int8 ct_ratio = read_eeprom(0x60); 
08740:  MOVLB  2
08742:  SETF   xFC
08744:  BCF    xFD.0
08746:  MOVFF  FF2,2FF
0874A:  BCF    FF2.7
0874C:  CLRF   FAA
0874E:  MOVLW  60
08750:  MOVWF  FA9
08752:  BCF    FA6.6
08754:  BCF    FA6.7
08756:  BSF    FA6.0
08758:  MOVF   FA8,W
0875A:  BTFSC  xFF.7
0875C:  BSF    FF2.7
0875E:  MOVWF  xFE
....................     
....................    disable_interrupts(int_AD); 
08760:  BCF    F9D.6
....................    disable_interrupts(int_TIMER1);     
08762:  BCF    F9D.0
....................    
....................    lcd_cmd(LCD_CLEAR);  
08764:  MOVLW  01
08766:  MOVLB  3
08768:  MOVWF  xA8
0876A:  MOVLB  0
0876C:  CALL   0E5E
....................    ///////////////////////////////////////P-Delay///////////////////////////// 
....................    while(1){    
....................       delay_time1=delay_time1-1; 
08770:  MOVLW  01
08772:  SUBWF  3C,F
08774:  MOVLW  00
08776:  SUBWFB 3D,F
....................       lcd_goto(1, 1);  
08778:  MOVLW  01
0877A:  MOVLB  3
0877C:  MOVWF  xA5
0877E:  MOVWF  xA6
08780:  MOVLB  0
08782:  CALL   119A
....................       printf(lcd_out, "POWER ON DLY..."); 
08786:  MOVLW  6C
08788:  MOVWF  FF6
0878A:  MOVLW  0D
0878C:  MOVWF  FF7
0878E:  CALL   125C
....................       lcd_goto(1, 2);  
08792:  MOVLW  01
08794:  MOVLB  3
08796:  MOVWF  xA5
08798:  MOVLW  02
0879A:  MOVWF  xA6
0879C:  MOVLB  0
0879E:  CALL   119A
....................       printf(lcd_out, "   %ld sec   ", (long)delay_time1); 
087A2:  MOVLW  7C
087A4:  MOVWF  FF6
087A6:  MOVLW  0D
087A8:  MOVWF  FF7
087AA:  MOVLW  03
087AC:  MOVLB  3
087AE:  MOVWF  xA5
087B0:  MOVLB  0
087B2:  CALL   18B8
087B6:  MOVLW  10
087B8:  MOVWF  FE9
087BA:  MOVFF  3D,3A6
087BE:  MOVFF  3C,3A5
087C2:  CALL   18E0
087C6:  MOVLW  82
087C8:  MOVWF  FF6
087CA:  MOVLW  0D
087CC:  MOVWF  FF7
087CE:  MOVLW  07
087D0:  MOVLB  3
087D2:  MOVWF  xA5
087D4:  MOVLB  0
087D6:  CALL   18B8
....................       delay_ms(950); 
087DA:  MOVLW  05
087DC:  MOVLB  2
087DE:  MOVWF  xFF
087E0:  MOVLW  BE
087E2:  MOVLB  3
087E4:  MOVWF  xA9
087E6:  MOVLB  0
087E8:  CALL   0DA4
087EC:  MOVLB  2
087EE:  DECFSZ xFF,F
087F0:  BRA    87E0
....................       if(delay_time1 <=1) 
087F2:  MOVF   3D,F
087F4:  BNZ   87FE
087F6:  MOVF   3C,W
087F8:  SUBLW  01
087FA:  BNC   87FE
....................       { 
....................          break; 
087FC:  BRA    8804
....................       } 
087FE:  MOVLB  0
08800:  BRA    8770
08802:  MOVLB  2
....................    } 
....................    delay_ms(100); 
08804:  MOVLW  64
08806:  MOVLB  3
08808:  MOVWF  xA9
0880A:  MOVLB  0
0880C:  CALL   0DA4
....................    enable_interrupts(int_AD); 
08810:  BSF    F9D.6
....................    enable_interrupts(int_TIMER1); 
08812:  BSF    F9D.0
....................    enable_interrupts(GLOBAL); 
08814:  MOVLW  C0
08816:  IORWF  FF2,F
....................       
....................    lcd_cmd(LCD_CLEAR);  
08818:  MOVLW  01
0881A:  MOVLB  3
0881C:  MOVWF  xA8
0881E:  MOVLB  0
08820:  CALL   0E5E
....................     
....................    while(1) { 
....................     
....................       new_value();  
08824:  CALL   14E4
....................       voltage();         
08828:  CALL   1744
....................       amps(); 
0882C:  GOTO   19DE
....................     
....................       if(t_state==on_state) 
08830:  MOVLB  1
08832:  MOVF   x97,W
08834:  SUBWF  xA8,W
08836:  BNZ   883A
....................       { 
....................          now=now; 
....................       } 
08838:  BRA    8842
....................       else 
....................       { 
....................          t_state=on_state; 
0883A:  MOVFF  197,1A8
....................          now=2; 
0883E:  MOVLW  02
08840:  MOVWF  xA7
....................       } 
....................       new_value(); 
08842:  MOVLB  0
08844:  CALL   14E4
....................     
....................       for(i=0;i<1;i++) 
08848:  MOVLB  1
0884A:  CLRF   xC8
0884C:  MOVF   xC8,F
0884E:  BTFSS  FD8.2
08850:  BRA    8940
....................       { 
....................          if(old_value[i]==voltages[i]&&temp_amp==currentr) 
08852:  BCF    FD8.0
08854:  RLCF   xC8,W
08856:  CLRF   03
08858:  ADDLW  A1
0885A:  MOVWF  FE9
0885C:  MOVLW  01
0885E:  ADDWFC 03,W
08860:  MOVWF  FEA
08862:  MOVFF  FEC,300
08866:  MOVF   FED,F
08868:  MOVFF  FEF,2FF
0886C:  BCF    FD8.0
0886E:  RLCF   xC8,W
08870:  CLRF   03
08872:  ADDLW  63
08874:  MOVWF  FE9
08876:  MOVLW  01
08878:  ADDWFC 03,W
0887A:  MOVWF  FEA
0887C:  MOVFF  FEC,03
08880:  MOVF   FED,F
08882:  MOVF   FEF,W
08884:  MOVLB  2
08886:  SUBWF  xFF,W
08888:  BNZ   88D8
0888A:  MOVF   03,W
0888C:  MOVLB  3
0888E:  SUBWF  x00,W
08890:  BTFSC  FD8.2
08892:  BRA    8898
08894:  MOVLB  2
08896:  BRA    88D8
08898:  MOVFF  17B,31A
0889C:  MOVFF  17A,319
088A0:  MOVFF  179,318
088A4:  MOVFF  178,317
088A8:  MOVFF  1AC,31E
088AC:  MOVFF  1AB,31D
088B0:  MOVFF  1AA,31C
088B4:  MOVFF  1A9,31B
088B8:  MOVLB  0
088BA:  CALL   1120
088BE:  BTFSC  FD8.2
088C0:  BRA    88C6
088C2:  MOVLB  2
088C4:  BRA    88D8
....................             now=(now==0)?0:now; 
088C6:  MOVLB  1
088C8:  MOVF   xA7,F
088CA:  BNZ   88D0
088CC:  MOVLW  00
088CE:  BRA    88D2
088D0:  MOVF   xA7,W
088D2:  MOVWF  xA7
088D4:  BRA    893C
088D6:  MOVLB  2
....................          else 
....................          { 
....................             old_value[i]=voltages[i]; 
088D8:  BCF    FD8.0
088DA:  MOVLB  1
088DC:  RLCF   xC8,W
088DE:  CLRF   03
088E0:  ADDLW  A1
088E2:  MOVWF  01
088E4:  MOVLW  01
088E6:  ADDWFC 03,F
088E8:  MOVLB  2
088EA:  MOVFF  03,300
088EE:  BCF    FD8.0
088F0:  MOVLB  1
088F2:  RLCF   xC8,W
088F4:  CLRF   03
088F6:  ADDLW  63
088F8:  MOVWF  FE9
088FA:  MOVLW  01
088FC:  ADDWFC 03,W
088FE:  MOVWF  FEA
08900:  MOVFF  FEC,03
08904:  MOVF   FED,F
08906:  MOVFF  FEF,301
0890A:  MOVLB  3
0890C:  MOVFF  300,FEA
08910:  MOVFF  01,FE9
08914:  MOVFF  03,FEC
08918:  MOVF   FED,F
0891A:  MOVFF  301,FEF
....................             temp_amp=currentr; 
0891E:  MOVFF  1AC,17B
08922:  MOVFF  1AB,17A
08926:  MOVFF  1AA,179
0892A:  MOVFF  1A9,178
....................             now=(now==0)?1:now; 
0892E:  MOVLB  1
08930:  MOVF   xA7,F
08932:  BNZ   8938
08934:  MOVLW  01
08936:  BRA    893A
08938:  MOVF   xA7,W
0893A:  MOVWF  xA7
....................          } 
0893C:  INCF   xC8,F
0893E:  BRA    884C
....................       } 
....................     
....................       lcd_goto(1, 1);  
08940:  MOVLW  01
08942:  MOVLB  3
08944:  MOVWF  xA5
08946:  MOVWF  xA6
08948:  MOVLB  0
0894A:  CALL   119A
....................       printf(lcd_out, "%2.0f", currentr);      
0894E:  MOVLW  01
08950:  MOVWF  FE9
08952:  MOVFF  1AC,31A
08956:  MOVFF  1AB,319
0895A:  MOVFF  1AA,318
0895E:  MOVFF  1A9,317
08962:  MOVLB  3
08964:  CLRF   x1B
08966:  MOVLB  0
08968:  CALL   1D5A
....................       lcd_goto(5, 1);  
0896C:  MOVLW  05
0896E:  MOVLB  3
08970:  MOVWF  xA5
08972:  MOVLW  01
08974:  MOVWF  xA6
08976:  MOVLB  0
08978:  CALL   119A
....................       printf(lcd_out, "%2.0f", currentr2); 
0897C:  MOVLW  01
0897E:  MOVWF  FE9
08980:  MOVFF  1B0,31A
08984:  MOVFF  1AF,319
08988:  MOVFF  1AE,318
0898C:  MOVFF  1AD,317
08990:  MOVLB  3
08992:  CLRF   x1B
08994:  MOVLB  0
08996:  CALL   1D5A
....................       lcd_goto(9, 1);  
0899A:  MOVLW  09
0899C:  MOVLB  3
0899E:  MOVWF  xA5
089A0:  MOVLW  01
089A2:  MOVWF  xA6
089A4:  MOVLB  0
089A6:  CALL   119A
....................       printf(lcd_out, "%2.0f", currentr3); 
089AA:  MOVLW  01
089AC:  MOVWF  FE9
089AE:  MOVFF  1B4,31A
089B2:  MOVFF  1B3,319
089B6:  MOVFF  1B2,318
089BA:  MOVFF  1B1,317
089BE:  MOVLB  3
089C0:  CLRF   x1B
089C2:  MOVLB  0
089C4:  CALL   1D5A
....................  
....................       lcd_goto(14, 1); 
089C8:  MOVLW  0E
089CA:  MOVLB  3
089CC:  MOVWF  xA5
089CE:  MOVLW  01
089D0:  MOVWF  xA6
089D2:  MOVLB  0
089D4:  CALL   119A
....................       if (phase_setting == 0) 
089D8:  MOVF   40,F
089DA:  BNZ   89F6
....................          printf(lcd_out, "2P"); 
089DC:  MOVLW  32
089DE:  MOVLB  3
089E0:  MOVWF  xAE
089E2:  MOVLB  0
089E4:  CALL   122E
089E8:  MOVLW  50
089EA:  MOVLB  3
089EC:  MOVWF  xAE
089EE:  MOVLB  0
089F0:  CALL   122E
089F4:  BRA    8A0E
....................       else 
....................          printf(lcd_out, "3P"); 
089F6:  MOVLW  33
089F8:  MOVLB  3
089FA:  MOVWF  xAE
089FC:  MOVLB  0
089FE:  CALL   122E
08A02:  MOVLW  50
08A04:  MOVLB  3
08A06:  MOVWF  xAE
08A08:  MOVLB  0
08A0A:  CALL   122E
....................    
....................       rvolt=(int16)vr1; 
08A0E:  MOVFF  1BC,22
08A12:  MOVFF  1BB,21
....................       yvolt=(int16)vy1; 
08A16:  MOVFF  1BE,24
08A1A:  MOVFF  1BD,23
....................       bvolt=(int16)vb1; 
08A1E:  MOVFF  1C0,26
08A22:  MOVFF  1BF,25
....................      
....................       rvolt3=(((rvolt/100) % 10) ); 
08A26:  MOVFF  22,302
08A2A:  MOVFF  21,301
08A2E:  MOVLB  3
08A30:  CLRF   x04
08A32:  MOVLW  64
08A34:  MOVWF  x03
08A36:  MOVLB  0
08A38:  CALL   1F0A
08A3C:  MOVFF  02,300
08A40:  MOVFF  01,2FF
08A44:  MOVFF  02,302
08A48:  MOVFF  01,301
08A4C:  MOVLB  3
08A4E:  CLRF   x04
08A50:  MOVLW  0A
08A52:  MOVWF  x03
08A54:  MOVLB  0
08A56:  CALL   1F0A
08A5A:  MOVFF  00,2D
....................       rvolt2=(((rvolt/10) % 10) ); 
08A5E:  MOVFF  22,302
08A62:  MOVFF  21,301
08A66:  MOVLB  3
08A68:  CLRF   x04
08A6A:  MOVLW  0A
08A6C:  MOVWF  x03
08A6E:  MOVLB  0
08A70:  CALL   1F0A
08A74:  MOVFF  02,300
08A78:  MOVFF  01,2FF
08A7C:  MOVFF  02,302
08A80:  MOVFF  01,301
08A84:  MOVLB  3
08A86:  CLRF   x04
08A88:  MOVLW  0A
08A8A:  MOVWF  x03
08A8C:  MOVLB  0
08A8E:  CALL   1F0A
08A92:  MOVFF  00,2A
....................       rvolt1=((rvolt % 10) ); 
08A96:  MOVFF  22,302
08A9A:  MOVFF  21,301
08A9E:  MOVLB  3
08AA0:  CLRF   x04
08AA2:  MOVLW  0A
08AA4:  MOVWF  x03
08AA6:  MOVLB  0
08AA8:  CALL   1F0A
08AAC:  MOVFF  00,27
....................  
....................       yvolt3=(((yvolt/100) % 10) ); 
08AB0:  MOVFF  24,302
08AB4:  MOVFF  23,301
08AB8:  MOVLB  3
08ABA:  CLRF   x04
08ABC:  MOVLW  64
08ABE:  MOVWF  x03
08AC0:  MOVLB  0
08AC2:  CALL   1F0A
08AC6:  MOVFF  02,300
08ACA:  MOVFF  01,2FF
08ACE:  MOVFF  02,302
08AD2:  MOVFF  01,301
08AD6:  MOVLB  3
08AD8:  CLRF   x04
08ADA:  MOVLW  0A
08ADC:  MOVWF  x03
08ADE:  MOVLB  0
08AE0:  CALL   1F0A
08AE4:  MOVFF  00,2E
....................       yvolt2=(((yvolt/10) % 10) ); 
08AE8:  MOVFF  24,302
08AEC:  MOVFF  23,301
08AF0:  MOVLB  3
08AF2:  CLRF   x04
08AF4:  MOVLW  0A
08AF6:  MOVWF  x03
08AF8:  MOVLB  0
08AFA:  CALL   1F0A
08AFE:  MOVFF  02,300
08B02:  MOVFF  01,2FF
08B06:  MOVFF  02,302
08B0A:  MOVFF  01,301
08B0E:  MOVLB  3
08B10:  CLRF   x04
08B12:  MOVLW  0A
08B14:  MOVWF  x03
08B16:  MOVLB  0
08B18:  CALL   1F0A
08B1C:  MOVFF  00,2B
....................       yvolt1=((yvolt % 10) ); 
08B20:  MOVFF  24,302
08B24:  MOVFF  23,301
08B28:  MOVLB  3
08B2A:  CLRF   x04
08B2C:  MOVLW  0A
08B2E:  MOVWF  x03
08B30:  MOVLB  0
08B32:  CALL   1F0A
08B36:  MOVFF  00,28
....................  
....................       bvolt3=(((bvolt/100) % 10) ); 
08B3A:  MOVFF  26,302
08B3E:  MOVFF  25,301
08B42:  MOVLB  3
08B44:  CLRF   x04
08B46:  MOVLW  64
08B48:  MOVWF  x03
08B4A:  MOVLB  0
08B4C:  CALL   1F0A
08B50:  MOVFF  02,300
08B54:  MOVFF  01,2FF
08B58:  MOVFF  02,302
08B5C:  MOVFF  01,301
08B60:  MOVLB  3
08B62:  CLRF   x04
08B64:  MOVLW  0A
08B66:  MOVWF  x03
08B68:  MOVLB  0
08B6A:  CALL   1F0A
08B6E:  MOVFF  00,2F
....................       bvolt2=(((bvolt/10) % 10) ); 
08B72:  MOVFF  26,302
08B76:  MOVFF  25,301
08B7A:  MOVLB  3
08B7C:  CLRF   x04
08B7E:  MOVLW  0A
08B80:  MOVWF  x03
08B82:  MOVLB  0
08B84:  CALL   1F0A
08B88:  MOVFF  02,300
08B8C:  MOVFF  01,2FF
08B90:  MOVFF  02,302
08B94:  MOVFF  01,301
08B98:  MOVLB  3
08B9A:  CLRF   x04
08B9C:  MOVLW  0A
08B9E:  MOVWF  x03
08BA0:  MOVLB  0
08BA2:  CALL   1F0A
08BA6:  MOVFF  00,2C
....................       bvolt1=((bvolt % 10) ); 
08BAA:  MOVFF  26,302
08BAE:  MOVFF  25,301
08BB2:  MOVLB  3
08BB4:  CLRF   x04
08BB6:  MOVLW  0A
08BB8:  MOVWF  x03
08BBA:  MOVLB  0
08BBC:  CALL   1F0A
08BC0:  MOVFF  00,29
....................    
....................       lcd_goto(1, 2);         
08BC4:  MOVLW  01
08BC6:  MOVLB  3
08BC8:  MOVWF  xA5
08BCA:  MOVLW  02
08BCC:  MOVWF  xA6
08BCE:  MOVLB  0
08BD0:  CALL   119A
....................       printf(lcd_out,"%d%d%d,", rvolt3,rvolt2,rvolt1);   
08BD4:  MOVFF  2D,387
08BD8:  MOVLW  18
08BDA:  MOVLB  3
08BDC:  MOVWF  x88
08BDE:  MOVLB  0
08BE0:  CALL   1F7C
08BE4:  MOVFF  2A,387
08BE8:  MOVLW  18
08BEA:  MOVLB  3
08BEC:  MOVWF  x88
08BEE:  MOVLB  0
08BF0:  CALL   1F7C
08BF4:  MOVFF  27,387
08BF8:  MOVLW  18
08BFA:  MOVLB  3
08BFC:  MOVWF  x88
08BFE:  MOVLB  0
08C00:  CALL   1F7C
08C04:  MOVLW  2C
08C06:  MOVLB  3
08C08:  MOVWF  xAE
08C0A:  MOVLB  0
08C0C:  CALL   122E
....................     
....................       lcd_goto(5, 2);  
08C10:  MOVLW  05
08C12:  MOVLB  3
08C14:  MOVWF  xA5
08C16:  MOVLW  02
08C18:  MOVWF  xA6
08C1A:  MOVLB  0
08C1C:  CALL   119A
....................       printf(lcd_out,"%d%d%d,", yvolt3,yvolt2,yvolt1);    
08C20:  MOVFF  2E,387
08C24:  MOVLW  18
08C26:  MOVLB  3
08C28:  MOVWF  x88
08C2A:  MOVLB  0
08C2C:  CALL   1F7C
08C30:  MOVFF  2B,387
08C34:  MOVLW  18
08C36:  MOVLB  3
08C38:  MOVWF  x88
08C3A:  MOVLB  0
08C3C:  CALL   1F7C
08C40:  MOVFF  28,387
08C44:  MOVLW  18
08C46:  MOVLB  3
08C48:  MOVWF  x88
08C4A:  MOVLB  0
08C4C:  CALL   1F7C
08C50:  MOVLW  2C
08C52:  MOVLB  3
08C54:  MOVWF  xAE
08C56:  MOVLB  0
08C58:  CALL   122E
....................     
....................       lcd_goto(9, 2);  
08C5C:  MOVLW  09
08C5E:  MOVLB  3
08C60:  MOVWF  xA5
08C62:  MOVLW  02
08C64:  MOVWF  xA6
08C66:  MOVLB  0
08C68:  CALL   119A
....................       printf(lcd_out,"%d%d%d", bvolt3,bvolt2,bvolt1);  
08C6C:  MOVFF  2F,387
08C70:  MOVLW  18
08C72:  MOVLB  3
08C74:  MOVWF  x88
08C76:  MOVLB  0
08C78:  CALL   1F7C
08C7C:  MOVFF  2C,387
08C80:  MOVLW  18
08C82:  MOVLB  3
08C84:  MOVWF  x88
08C86:  MOVLB  0
08C88:  CALL   1F7C
08C8C:  MOVFF  29,387
08C90:  MOVLW  18
08C92:  MOVLB  3
08C94:  MOVWF  x88
08C96:  MOVLB  0
08C98:  CALL   1F7C
....................       delay_ms(500); 
08C9C:  MOVLW  02
08C9E:  MOVLB  2
08CA0:  MOVWF  xFF
08CA2:  MOVLW  FA
08CA4:  MOVLB  3
08CA6:  MOVWF  xA9
08CA8:  MOVLB  0
08CAA:  CALL   0DA4
08CAE:  MOVLB  2
08CB0:  DECFSZ xFF,F
08CB2:  BRA    8CA2
....................  
....................       if((volt_level!=0||amps_level!=0)&&on_state==1){ 
08CB4:  MOVLB  1
08CB6:  MOVF   x98,F
08CB8:  BNZ   8CBE
08CBA:  MOVF   x99,F
08CBC:  BZ    8CD6
08CBE:  DECFSZ x97,W
08CC0:  BRA    8CD6
....................          on_state=0; 
08CC2:  CLRF   x97
....................          moff();          
08CC4:  MOVLB  0
08CC6:  CALL   2040
....................          setsw=0; 
08CCA:  MOVLB  2
08CCC:  CLRF   xDE
....................          auto_state =1; 
08CCE:  MOVLW  01
08CD0:  MOVLB  1
08CD2:  MOVWF  x9C
....................          ckflg=0;                  
08CD4:  BCF    1C.5
....................       } 
....................        
....................       if (prog == 0) { 
08CD6:  MOVF   3F,F
08CD8:  BNZ   8D76
....................          if (!input(ENCODER_SW) && !input(key2)) { 
08CDA:  BTFSC  F81.6
08CDC:  BRA    8D74
08CDE:  BTFSC  F81.2
08CE0:  BRA    8D74
....................             delay_ms(30); 
08CE2:  MOVLW  1E
08CE4:  MOVLB  3
08CE6:  MOVWF  xA9
08CE8:  MOVLB  0
08CEA:  CALL   0DA4
....................             if (!input(ENCODER_SW) && !input(key2)) { 
08CEE:  BTFSC  F81.6
08CF0:  BRA    8D72
08CF2:  BTFSC  F81.2
08CF4:  BRA    8D72
....................                disable_interrupts(int_AD); 
08CF6:  BCF    F9D.6
....................                disable_interrupts(int_TIMER1);   
08CF8:  BCF    F9D.0
....................                lcd_cmd(LCD_CLEAR);  
08CFA:  MOVLW  01
08CFC:  MOVLB  3
08CFE:  MOVWF  xA8
08D00:  MOVLB  0
08D02:  CALL   0E5E
....................                lcd_goto(1, 1); 
08D06:  MOVLW  01
08D08:  MOVLB  3
08D0A:  MOVWF  xA5
08D0C:  MOVWF  xA6
08D0E:  MOVLB  0
08D10:  CALL   119A
....................                printf(lcd_out, "ENTERING MENU..."); 
08D14:  MOVLW  8A
08D16:  MOVWF  FF6
08D18:  MOVLW  0D
08D1A:  MOVWF  FF7
08D1C:  CALL   125C
....................                delay_ms(2000); 
08D20:  MOVLW  08
08D22:  MOVLB  2
08D24:  MOVWF  xFF
08D26:  MOVLW  FA
08D28:  MOVLB  3
08D2A:  MOVWF  xA9
08D2C:  MOVLB  0
08D2E:  CALL   0DA4
08D32:  MOVLB  2
08D34:  DECFSZ xFF,F
08D36:  BRA    8D26
....................                lcd_cmd(LCD_CLEAR);  
08D38:  MOVLW  01
08D3A:  MOVLB  3
08D3C:  MOVWF  xA8
08D3E:  MOVLB  0
08D40:  CALL   0E5E
....................                while (!input(ENCODER_SW) || !input(key2)); 
08D44:  BTFSS  F81.6
08D46:  BRA    8D44
08D48:  BTFSS  F81.2
08D4A:  BRA    8D44
....................                 
....................                while (input(ENCODER_SW) == 0); 
08D4C:  BTFSS  F81.6
08D4E:  BRA    8D4C
....................                delay_ms(1000); 
08D50:  MOVLW  04
08D52:  MOVLB  2
08D54:  MOVWF  xFF
08D56:  MOVLW  FA
08D58:  MOVLB  3
08D5A:  MOVWF  xA9
08D5C:  MOVLB  0
08D5E:  CALL   0DA4
08D62:  MOVLB  2
08D64:  DECFSZ xFF,F
08D66:  BRA    8D56
....................                prog = 1; 
08D68:  MOVLW  01
08D6A:  MOVWF  3F
....................                in_menu_selection = 1; 
08D6C:  MOVWF  4C
....................                menu_number = 1; 
08D6E:  MOVWF  4B
08D70:  MOVLB  0
08D72:  MOVLB  1
....................             } 
....................          } 
....................       } 
08D74:  BRA    8D98
....................       else if (prog == 1) { 
08D76:  DECFSZ 3F,W
08D78:  BRA    8D98
....................          disable_interrupts(int_AD); 
08D7A:  BCF    F9D.6
....................          disable_interrupts(int_TIMER1);   
08D7C:  BCF    F9D.0
....................          lcd_cmd(LCD_CLEAR);  
08D7E:  MOVLW  01
08D80:  MOVLB  3
08D82:  MOVWF  xA8
08D84:  MOVLB  0
08D86:  CALL   0E5E
....................          handle_menu(); 
08D8A:  GOTO   73B6
....................          enable_interrupts(int_AD); 
08D8E:  BSF    F9D.6
....................          enable_interrupts(int_TIMER1); 
08D90:  BSF    F9D.0
....................          enable_interrupts(GLOBAL); 
08D92:  MOVLW  C0
08D94:  IORWF  FF2,F
08D96:  MOVLB  1
....................       } 
....................        
....................       if(!input(key1) &&volt_level==0&&amps_level==0) 
08D98:  BTFSC  F81.3
08D9A:  BRA    8DE4
08D9C:  MOVF   x98,F
08D9E:  BNZ   8DE4
08DA0:  MOVF   x99,F
08DA2:  BNZ   8DE4
....................       { 
....................          disable_interrupts(int_AD); 
08DA4:  BCF    F9D.6
....................          disable_interrupts(int_TIMER1);         
08DA6:  BCF    F9D.0
....................          lcd_goto(14, 2);  
08DA8:  MOVLW  0E
08DAA:  MOVLB  3
08DAC:  MOVWF  xA5
08DAE:  MOVLW  02
08DB0:  MOVWF  xA6
08DB2:  MOVLB  0
08DB4:  CALL   119A
....................          printf(lcd_out, "ON "); 
08DB8:  MOVLW  9C
08DBA:  MOVWF  FF6
08DBC:  MOVLW  0D
08DBE:  MOVWF  FF7
08DC0:  CALL   125C
....................          mon(); 
08DC4:  GOTO   7474
....................          q='A';           
08DC8:  MOVLW  41
08DCA:  MOVLB  1
08DCC:  MOVWF  xC7
....................          state=1;  
08DCE:  MOVLW  01
08DD0:  MOVWF  x96
....................          on_state=1; 
08DD2:  MOVWF  x97
....................          setsw=1;  
08DD4:  MOVLB  2
08DD6:  MOVWF  xDE
....................          ckflg=1; 
08DD8:  BSF    1C.5
....................          enable_interrupts(int_AD); 
08DDA:  BSF    F9D.6
....................          enable_interrupts(int_TIMER1); 
08DDC:  BSF    F9D.0
....................          enable_interrupts(GLOBAL); 
08DDE:  MOVLW  C0
08DE0:  IORWF  FF2,F
08DE2:  MOVLB  1
....................       } 
....................  
....................       if(!input(key2)) 
08DE4:  BTFSC  F81.2
08DE6:  BRA    8E28
....................       {   
....................          disable_interrupts(int_AD); 
08DE8:  BCF    F9D.6
....................          disable_interrupts(int_TIMER1);     
08DEA:  BCF    F9D.0
....................          lcd_goto(14, 2);  
08DEC:  MOVLW  0E
08DEE:  MOVLB  3
08DF0:  MOVWF  xA5
08DF2:  MOVLW  02
08DF4:  MOVWF  xA6
08DF6:  MOVLB  0
08DF8:  CALL   119A
....................          printf(lcd_out, "OFF"); 
08DFC:  MOVLW  A0
08DFE:  MOVWF  FF6
08E00:  MOVLW  0D
08E02:  MOVWF  FF7
08E04:  CALL   125C
....................          moff(); 
08E08:  CALL   2040
....................          setsw=1; 
08E0C:  MOVLW  01
08E0E:  MOVLB  2
08E10:  MOVWF  xDE
....................          on_state=0; 
08E12:  MOVLB  1
08E14:  CLRF   x97
....................          q='a';          
08E16:  MOVLW  61
08E18:  MOVWF  xC7
....................          state=0;           
08E1A:  CLRF   x96
....................          auto_state =1;          
08E1C:  MOVLW  01
08E1E:  MOVWF  x9C
....................               
....................          enable_interrupts(int_AD); 
08E20:  BSF    F9D.6
....................          enable_interrupts(int_TIMER1); 
08E22:  BSF    F9D.0
....................          enable_interrupts(GLOBAL); 
08E24:  MOVLW  C0
08E26:  IORWF  FF2,F
....................       } 
08E28:  MOVLB  0
08E2A:  BRA    8824
....................    } 
.................... } 
08E2C:  SLEEP 

Configuration Fuses:
   Word  1: E200   HSH NOPLLEN PRIMARY FCMEN IESO
   Word  2: 3C18   PUT NOBROWNOUT BORV19 NOWDT WDT32768
   Word  3: BD00   CCP2C1 NOPBADEN CCP3B5 HFOFST TIMER3C0 CCP2B5 MCLR
   Word  4: 0081   STVREN NOLVP NOXINST NODEBUG
   Word  5: C00F   NOPROTECT NOCPB NOCPD
   Word  6: E00F   NOWRT NOWRTC NOWRTB NOWRTD
   Word  7: 400F   NOEBTR NOEBTRB
